   1              	 .cpu cortex-m0
   2              	 .fpu softvfp
   3              	 .eabi_attribute 20,1
   4              	 .eabi_attribute 21,1
   5              	 .eabi_attribute 23,3
   6              	 .eabi_attribute 24,1
   7              	 .eabi_attribute 25,1
   8              	 .eabi_attribute 26,1
   9              	 .eabi_attribute 30,6
  10              	 .eabi_attribute 34,0
  11              	 .eabi_attribute 18,4
  12              	 .code 16
  13              	 .file "misc_operation.c"
  14              	 .text
  15              	.Ltext0:
  16              	 .cfi_sections .debug_frame
  17              	 .section .text.__NVIC_EnableIRQ,"ax",%progbits
  18              	 .align 2
  19              	 .code 16
  20              	 .thumb_func
  22              	__NVIC_EnableIRQ:
  23              	.LFB23:
  24              	 .file 1 "C:/Users/Lenovo/workspace/dave_workspace/SOLAR_TOWER/Libraries/CMSIS/Include/core_cm0.h"
   1:C:/Users/Lenovo/workspace/dave_workspace/SOLAR_TOWER/Libraries/CMSIS/Include\core_cm0.h **** /**************************************************************************//**
   2:C:/Users/Lenovo/workspace/dave_workspace/SOLAR_TOWER/Libraries/CMSIS/Include\core_cm0.h ****  * @file     core_cm0.h
   3:C:/Users/Lenovo/workspace/dave_workspace/SOLAR_TOWER/Libraries/CMSIS/Include\core_cm0.h ****  * @brief    CMSIS Cortex-M0 Core Peripheral Access Layer Header File
   4:C:/Users/Lenovo/workspace/dave_workspace/SOLAR_TOWER/Libraries/CMSIS/Include\core_cm0.h ****  * @version  V5.0.2
   5:C:/Users/Lenovo/workspace/dave_workspace/SOLAR_TOWER/Libraries/CMSIS/Include\core_cm0.h ****  * @date     19. April 2017
   6:C:/Users/Lenovo/workspace/dave_workspace/SOLAR_TOWER/Libraries/CMSIS/Include\core_cm0.h ****  ******************************************************************************/
   7:C:/Users/Lenovo/workspace/dave_workspace/SOLAR_TOWER/Libraries/CMSIS/Include\core_cm0.h **** /*
   8:C:/Users/Lenovo/workspace/dave_workspace/SOLAR_TOWER/Libraries/CMSIS/Include\core_cm0.h ****  * Copyright (c) 2009-2017 ARM Limited. All rights reserved.
   9:C:/Users/Lenovo/workspace/dave_workspace/SOLAR_TOWER/Libraries/CMSIS/Include\core_cm0.h ****  *
  10:C:/Users/Lenovo/workspace/dave_workspace/SOLAR_TOWER/Libraries/CMSIS/Include\core_cm0.h ****  * SPDX-License-Identifier: Apache-2.0
  11:C:/Users/Lenovo/workspace/dave_workspace/SOLAR_TOWER/Libraries/CMSIS/Include\core_cm0.h ****  *
  12:C:/Users/Lenovo/workspace/dave_workspace/SOLAR_TOWER/Libraries/CMSIS/Include\core_cm0.h ****  * Licensed under the Apache License, Version 2.0 (the License); you may
  13:C:/Users/Lenovo/workspace/dave_workspace/SOLAR_TOWER/Libraries/CMSIS/Include\core_cm0.h ****  * not use this file except in compliance with the License.
  14:C:/Users/Lenovo/workspace/dave_workspace/SOLAR_TOWER/Libraries/CMSIS/Include\core_cm0.h ****  * You may obtain a copy of the License at
  15:C:/Users/Lenovo/workspace/dave_workspace/SOLAR_TOWER/Libraries/CMSIS/Include\core_cm0.h ****  *
  16:C:/Users/Lenovo/workspace/dave_workspace/SOLAR_TOWER/Libraries/CMSIS/Include\core_cm0.h ****  * www.apache.org/licenses/LICENSE-2.0
  17:C:/Users/Lenovo/workspace/dave_workspace/SOLAR_TOWER/Libraries/CMSIS/Include\core_cm0.h ****  *
  18:C:/Users/Lenovo/workspace/dave_workspace/SOLAR_TOWER/Libraries/CMSIS/Include\core_cm0.h ****  * Unless required by applicable law or agreed to in writing, software
  19:C:/Users/Lenovo/workspace/dave_workspace/SOLAR_TOWER/Libraries/CMSIS/Include\core_cm0.h ****  * distributed under the License is distributed on an AS IS BASIS, WITHOUT
  20:C:/Users/Lenovo/workspace/dave_workspace/SOLAR_TOWER/Libraries/CMSIS/Include\core_cm0.h ****  * WARRANTIES OR CONDITIONS OF ANY KIND, either express or implied.
  21:C:/Users/Lenovo/workspace/dave_workspace/SOLAR_TOWER/Libraries/CMSIS/Include\core_cm0.h ****  * See the License for the specific language governing permissions and
  22:C:/Users/Lenovo/workspace/dave_workspace/SOLAR_TOWER/Libraries/CMSIS/Include\core_cm0.h ****  * limitations under the License.
  23:C:/Users/Lenovo/workspace/dave_workspace/SOLAR_TOWER/Libraries/CMSIS/Include\core_cm0.h ****  */
  24:C:/Users/Lenovo/workspace/dave_workspace/SOLAR_TOWER/Libraries/CMSIS/Include\core_cm0.h **** 
  25:C:/Users/Lenovo/workspace/dave_workspace/SOLAR_TOWER/Libraries/CMSIS/Include\core_cm0.h **** #if   defined ( __ICCARM__ )
  26:C:/Users/Lenovo/workspace/dave_workspace/SOLAR_TOWER/Libraries/CMSIS/Include\core_cm0.h ****   #pragma system_include         /* treat file as system include file for MISRA check */
  27:C:/Users/Lenovo/workspace/dave_workspace/SOLAR_TOWER/Libraries/CMSIS/Include\core_cm0.h **** #elif defined (__clang__)
  28:C:/Users/Lenovo/workspace/dave_workspace/SOLAR_TOWER/Libraries/CMSIS/Include\core_cm0.h ****   #pragma clang system_header   /* treat file as system include file */
  29:C:/Users/Lenovo/workspace/dave_workspace/SOLAR_TOWER/Libraries/CMSIS/Include\core_cm0.h **** #endif
  30:C:/Users/Lenovo/workspace/dave_workspace/SOLAR_TOWER/Libraries/CMSIS/Include\core_cm0.h **** 
  31:C:/Users/Lenovo/workspace/dave_workspace/SOLAR_TOWER/Libraries/CMSIS/Include\core_cm0.h **** #ifndef __CORE_CM0_H_GENERIC
  32:C:/Users/Lenovo/workspace/dave_workspace/SOLAR_TOWER/Libraries/CMSIS/Include\core_cm0.h **** #define __CORE_CM0_H_GENERIC
  33:C:/Users/Lenovo/workspace/dave_workspace/SOLAR_TOWER/Libraries/CMSIS/Include\core_cm0.h **** 
  34:C:/Users/Lenovo/workspace/dave_workspace/SOLAR_TOWER/Libraries/CMSIS/Include\core_cm0.h **** #include <stdint.h>
  35:C:/Users/Lenovo/workspace/dave_workspace/SOLAR_TOWER/Libraries/CMSIS/Include\core_cm0.h **** 
  36:C:/Users/Lenovo/workspace/dave_workspace/SOLAR_TOWER/Libraries/CMSIS/Include\core_cm0.h **** #ifdef __cplusplus
  37:C:/Users/Lenovo/workspace/dave_workspace/SOLAR_TOWER/Libraries/CMSIS/Include\core_cm0.h ****  extern "C" {
  38:C:/Users/Lenovo/workspace/dave_workspace/SOLAR_TOWER/Libraries/CMSIS/Include\core_cm0.h **** #endif
  39:C:/Users/Lenovo/workspace/dave_workspace/SOLAR_TOWER/Libraries/CMSIS/Include\core_cm0.h **** 
  40:C:/Users/Lenovo/workspace/dave_workspace/SOLAR_TOWER/Libraries/CMSIS/Include\core_cm0.h **** /**
  41:C:/Users/Lenovo/workspace/dave_workspace/SOLAR_TOWER/Libraries/CMSIS/Include\core_cm0.h ****   \page CMSIS_MISRA_Exceptions  MISRA-C:2004 Compliance Exceptions
  42:C:/Users/Lenovo/workspace/dave_workspace/SOLAR_TOWER/Libraries/CMSIS/Include\core_cm0.h ****   CMSIS violates the following MISRA-C:2004 rules:
  43:C:/Users/Lenovo/workspace/dave_workspace/SOLAR_TOWER/Libraries/CMSIS/Include\core_cm0.h **** 
  44:C:/Users/Lenovo/workspace/dave_workspace/SOLAR_TOWER/Libraries/CMSIS/Include\core_cm0.h ****    \li Required Rule 8.5, object/function definition in header file.<br>
  45:C:/Users/Lenovo/workspace/dave_workspace/SOLAR_TOWER/Libraries/CMSIS/Include\core_cm0.h ****      Function definitions in header files are used to allow 'inlining'.
  46:C:/Users/Lenovo/workspace/dave_workspace/SOLAR_TOWER/Libraries/CMSIS/Include\core_cm0.h **** 
  47:C:/Users/Lenovo/workspace/dave_workspace/SOLAR_TOWER/Libraries/CMSIS/Include\core_cm0.h ****    \li Required Rule 18.4, declaration of union type or object of union type: '{...}'.<br>
  48:C:/Users/Lenovo/workspace/dave_workspace/SOLAR_TOWER/Libraries/CMSIS/Include\core_cm0.h ****      Unions are used for effective representation of core registers.
  49:C:/Users/Lenovo/workspace/dave_workspace/SOLAR_TOWER/Libraries/CMSIS/Include\core_cm0.h **** 
  50:C:/Users/Lenovo/workspace/dave_workspace/SOLAR_TOWER/Libraries/CMSIS/Include\core_cm0.h ****    \li Advisory Rule 19.7, Function-like macro defined.<br>
  51:C:/Users/Lenovo/workspace/dave_workspace/SOLAR_TOWER/Libraries/CMSIS/Include\core_cm0.h ****      Function-like macros are used to allow more efficient code.
  52:C:/Users/Lenovo/workspace/dave_workspace/SOLAR_TOWER/Libraries/CMSIS/Include\core_cm0.h ****  */
  53:C:/Users/Lenovo/workspace/dave_workspace/SOLAR_TOWER/Libraries/CMSIS/Include\core_cm0.h **** 
  54:C:/Users/Lenovo/workspace/dave_workspace/SOLAR_TOWER/Libraries/CMSIS/Include\core_cm0.h **** 
  55:C:/Users/Lenovo/workspace/dave_workspace/SOLAR_TOWER/Libraries/CMSIS/Include\core_cm0.h **** /*******************************************************************************
  56:C:/Users/Lenovo/workspace/dave_workspace/SOLAR_TOWER/Libraries/CMSIS/Include\core_cm0.h ****  *                 CMSIS definitions
  57:C:/Users/Lenovo/workspace/dave_workspace/SOLAR_TOWER/Libraries/CMSIS/Include\core_cm0.h ****  ******************************************************************************/
  58:C:/Users/Lenovo/workspace/dave_workspace/SOLAR_TOWER/Libraries/CMSIS/Include\core_cm0.h **** /**
  59:C:/Users/Lenovo/workspace/dave_workspace/SOLAR_TOWER/Libraries/CMSIS/Include\core_cm0.h ****   \ingroup Cortex_M0
  60:C:/Users/Lenovo/workspace/dave_workspace/SOLAR_TOWER/Libraries/CMSIS/Include\core_cm0.h ****   @{
  61:C:/Users/Lenovo/workspace/dave_workspace/SOLAR_TOWER/Libraries/CMSIS/Include\core_cm0.h ****  */
  62:C:/Users/Lenovo/workspace/dave_workspace/SOLAR_TOWER/Libraries/CMSIS/Include\core_cm0.h **** 
  63:C:/Users/Lenovo/workspace/dave_workspace/SOLAR_TOWER/Libraries/CMSIS/Include\core_cm0.h **** #include "cmsis_version.h"
  64:C:/Users/Lenovo/workspace/dave_workspace/SOLAR_TOWER/Libraries/CMSIS/Include\core_cm0.h ****  
  65:C:/Users/Lenovo/workspace/dave_workspace/SOLAR_TOWER/Libraries/CMSIS/Include\core_cm0.h **** /*  CMSIS CM0 definitions */
  66:C:/Users/Lenovo/workspace/dave_workspace/SOLAR_TOWER/Libraries/CMSIS/Include\core_cm0.h **** #define __CM0_CMSIS_VERSION_MAIN  (__CM_CMSIS_VERSION_MAIN)              /*!< \deprecated [31:16] C
  67:C:/Users/Lenovo/workspace/dave_workspace/SOLAR_TOWER/Libraries/CMSIS/Include\core_cm0.h **** #define __CM0_CMSIS_VERSION_SUB   (__CM_CMSIS_VERSION_SUB)               /*!< \deprecated [15:0]  C
  68:C:/Users/Lenovo/workspace/dave_workspace/SOLAR_TOWER/Libraries/CMSIS/Include\core_cm0.h **** #define __CM0_CMSIS_VERSION       ((__CM0_CMSIS_VERSION_MAIN << 16U) | \
  69:C:/Users/Lenovo/workspace/dave_workspace/SOLAR_TOWER/Libraries/CMSIS/Include\core_cm0.h ****                                     __CM0_CMSIS_VERSION_SUB           )  /*!< \deprecated CMSIS HAL
  70:C:/Users/Lenovo/workspace/dave_workspace/SOLAR_TOWER/Libraries/CMSIS/Include\core_cm0.h **** 
  71:C:/Users/Lenovo/workspace/dave_workspace/SOLAR_TOWER/Libraries/CMSIS/Include\core_cm0.h **** #define __CORTEX_M                (0U)                                   /*!< Cortex-M Core */
  72:C:/Users/Lenovo/workspace/dave_workspace/SOLAR_TOWER/Libraries/CMSIS/Include\core_cm0.h **** 
  73:C:/Users/Lenovo/workspace/dave_workspace/SOLAR_TOWER/Libraries/CMSIS/Include\core_cm0.h **** /** __FPU_USED indicates whether an FPU is used or not.
  74:C:/Users/Lenovo/workspace/dave_workspace/SOLAR_TOWER/Libraries/CMSIS/Include\core_cm0.h ****     This core does not support an FPU at all
  75:C:/Users/Lenovo/workspace/dave_workspace/SOLAR_TOWER/Libraries/CMSIS/Include\core_cm0.h **** */
  76:C:/Users/Lenovo/workspace/dave_workspace/SOLAR_TOWER/Libraries/CMSIS/Include\core_cm0.h **** #define __FPU_USED       0U
  77:C:/Users/Lenovo/workspace/dave_workspace/SOLAR_TOWER/Libraries/CMSIS/Include\core_cm0.h **** 
  78:C:/Users/Lenovo/workspace/dave_workspace/SOLAR_TOWER/Libraries/CMSIS/Include\core_cm0.h **** #if defined ( __CC_ARM )
  79:C:/Users/Lenovo/workspace/dave_workspace/SOLAR_TOWER/Libraries/CMSIS/Include\core_cm0.h ****   #if defined __TARGET_FPU_VFP
  80:C:/Users/Lenovo/workspace/dave_workspace/SOLAR_TOWER/Libraries/CMSIS/Include\core_cm0.h ****     #error "Compiler generates FPU instructions for a device without an FPU (check __FPU_PRESENT)"
  81:C:/Users/Lenovo/workspace/dave_workspace/SOLAR_TOWER/Libraries/CMSIS/Include\core_cm0.h ****   #endif
  82:C:/Users/Lenovo/workspace/dave_workspace/SOLAR_TOWER/Libraries/CMSIS/Include\core_cm0.h **** 
  83:C:/Users/Lenovo/workspace/dave_workspace/SOLAR_TOWER/Libraries/CMSIS/Include\core_cm0.h **** #elif defined (__ARMCC_VERSION) && (__ARMCC_VERSION >= 6010050)
  84:C:/Users/Lenovo/workspace/dave_workspace/SOLAR_TOWER/Libraries/CMSIS/Include\core_cm0.h ****   #if defined __ARM_PCS_VFP
  85:C:/Users/Lenovo/workspace/dave_workspace/SOLAR_TOWER/Libraries/CMSIS/Include\core_cm0.h ****     #error "Compiler generates FPU instructions for a device without an FPU (check __FPU_PRESENT)"
  86:C:/Users/Lenovo/workspace/dave_workspace/SOLAR_TOWER/Libraries/CMSIS/Include\core_cm0.h ****   #endif
  87:C:/Users/Lenovo/workspace/dave_workspace/SOLAR_TOWER/Libraries/CMSIS/Include\core_cm0.h **** 
  88:C:/Users/Lenovo/workspace/dave_workspace/SOLAR_TOWER/Libraries/CMSIS/Include\core_cm0.h **** #elif defined ( __GNUC__ )
  89:C:/Users/Lenovo/workspace/dave_workspace/SOLAR_TOWER/Libraries/CMSIS/Include\core_cm0.h ****   #if defined (__VFP_FP__) && !defined(__SOFTFP__)
  90:C:/Users/Lenovo/workspace/dave_workspace/SOLAR_TOWER/Libraries/CMSIS/Include\core_cm0.h ****     #error "Compiler generates FPU instructions for a device without an FPU (check __FPU_PRESENT)"
  91:C:/Users/Lenovo/workspace/dave_workspace/SOLAR_TOWER/Libraries/CMSIS/Include\core_cm0.h ****   #endif
  92:C:/Users/Lenovo/workspace/dave_workspace/SOLAR_TOWER/Libraries/CMSIS/Include\core_cm0.h **** 
  93:C:/Users/Lenovo/workspace/dave_workspace/SOLAR_TOWER/Libraries/CMSIS/Include\core_cm0.h **** #elif defined ( __ICCARM__ )
  94:C:/Users/Lenovo/workspace/dave_workspace/SOLAR_TOWER/Libraries/CMSIS/Include\core_cm0.h ****   #if defined __ARMVFP__
  95:C:/Users/Lenovo/workspace/dave_workspace/SOLAR_TOWER/Libraries/CMSIS/Include\core_cm0.h ****     #error "Compiler generates FPU instructions for a device without an FPU (check __FPU_PRESENT)"
  96:C:/Users/Lenovo/workspace/dave_workspace/SOLAR_TOWER/Libraries/CMSIS/Include\core_cm0.h ****   #endif
  97:C:/Users/Lenovo/workspace/dave_workspace/SOLAR_TOWER/Libraries/CMSIS/Include\core_cm0.h **** 
  98:C:/Users/Lenovo/workspace/dave_workspace/SOLAR_TOWER/Libraries/CMSIS/Include\core_cm0.h **** #elif defined ( __TI_ARM__ )
  99:C:/Users/Lenovo/workspace/dave_workspace/SOLAR_TOWER/Libraries/CMSIS/Include\core_cm0.h ****   #if defined __TI_VFP_SUPPORT__
 100:C:/Users/Lenovo/workspace/dave_workspace/SOLAR_TOWER/Libraries/CMSIS/Include\core_cm0.h ****     #error "Compiler generates FPU instructions for a device without an FPU (check __FPU_PRESENT)"
 101:C:/Users/Lenovo/workspace/dave_workspace/SOLAR_TOWER/Libraries/CMSIS/Include\core_cm0.h ****   #endif
 102:C:/Users/Lenovo/workspace/dave_workspace/SOLAR_TOWER/Libraries/CMSIS/Include\core_cm0.h **** 
 103:C:/Users/Lenovo/workspace/dave_workspace/SOLAR_TOWER/Libraries/CMSIS/Include\core_cm0.h **** #elif defined ( __TASKING__ )
 104:C:/Users/Lenovo/workspace/dave_workspace/SOLAR_TOWER/Libraries/CMSIS/Include\core_cm0.h ****   #if defined __FPU_VFP__
 105:C:/Users/Lenovo/workspace/dave_workspace/SOLAR_TOWER/Libraries/CMSIS/Include\core_cm0.h ****     #error "Compiler generates FPU instructions for a device without an FPU (check __FPU_PRESENT)"
 106:C:/Users/Lenovo/workspace/dave_workspace/SOLAR_TOWER/Libraries/CMSIS/Include\core_cm0.h ****   #endif
 107:C:/Users/Lenovo/workspace/dave_workspace/SOLAR_TOWER/Libraries/CMSIS/Include\core_cm0.h **** 
 108:C:/Users/Lenovo/workspace/dave_workspace/SOLAR_TOWER/Libraries/CMSIS/Include\core_cm0.h **** #elif defined ( __CSMC__ )
 109:C:/Users/Lenovo/workspace/dave_workspace/SOLAR_TOWER/Libraries/CMSIS/Include\core_cm0.h ****   #if ( __CSMC__ & 0x400U)
 110:C:/Users/Lenovo/workspace/dave_workspace/SOLAR_TOWER/Libraries/CMSIS/Include\core_cm0.h ****     #error "Compiler generates FPU instructions for a device without an FPU (check __FPU_PRESENT)"
 111:C:/Users/Lenovo/workspace/dave_workspace/SOLAR_TOWER/Libraries/CMSIS/Include\core_cm0.h ****   #endif
 112:C:/Users/Lenovo/workspace/dave_workspace/SOLAR_TOWER/Libraries/CMSIS/Include\core_cm0.h **** 
 113:C:/Users/Lenovo/workspace/dave_workspace/SOLAR_TOWER/Libraries/CMSIS/Include\core_cm0.h **** #endif
 114:C:/Users/Lenovo/workspace/dave_workspace/SOLAR_TOWER/Libraries/CMSIS/Include\core_cm0.h **** 
 115:C:/Users/Lenovo/workspace/dave_workspace/SOLAR_TOWER/Libraries/CMSIS/Include\core_cm0.h **** #include "cmsis_compiler.h"               /* CMSIS compiler specific defines */
 116:C:/Users/Lenovo/workspace/dave_workspace/SOLAR_TOWER/Libraries/CMSIS/Include\core_cm0.h **** 
 117:C:/Users/Lenovo/workspace/dave_workspace/SOLAR_TOWER/Libraries/CMSIS/Include\core_cm0.h **** 
 118:C:/Users/Lenovo/workspace/dave_workspace/SOLAR_TOWER/Libraries/CMSIS/Include\core_cm0.h **** #ifdef __cplusplus
 119:C:/Users/Lenovo/workspace/dave_workspace/SOLAR_TOWER/Libraries/CMSIS/Include\core_cm0.h **** }
 120:C:/Users/Lenovo/workspace/dave_workspace/SOLAR_TOWER/Libraries/CMSIS/Include\core_cm0.h **** #endif
 121:C:/Users/Lenovo/workspace/dave_workspace/SOLAR_TOWER/Libraries/CMSIS/Include\core_cm0.h **** 
 122:C:/Users/Lenovo/workspace/dave_workspace/SOLAR_TOWER/Libraries/CMSIS/Include\core_cm0.h **** #endif /* __CORE_CM0_H_GENERIC */
 123:C:/Users/Lenovo/workspace/dave_workspace/SOLAR_TOWER/Libraries/CMSIS/Include\core_cm0.h **** 
 124:C:/Users/Lenovo/workspace/dave_workspace/SOLAR_TOWER/Libraries/CMSIS/Include\core_cm0.h **** #ifndef __CMSIS_GENERIC
 125:C:/Users/Lenovo/workspace/dave_workspace/SOLAR_TOWER/Libraries/CMSIS/Include\core_cm0.h **** 
 126:C:/Users/Lenovo/workspace/dave_workspace/SOLAR_TOWER/Libraries/CMSIS/Include\core_cm0.h **** #ifndef __CORE_CM0_H_DEPENDANT
 127:C:/Users/Lenovo/workspace/dave_workspace/SOLAR_TOWER/Libraries/CMSIS/Include\core_cm0.h **** #define __CORE_CM0_H_DEPENDANT
 128:C:/Users/Lenovo/workspace/dave_workspace/SOLAR_TOWER/Libraries/CMSIS/Include\core_cm0.h **** 
 129:C:/Users/Lenovo/workspace/dave_workspace/SOLAR_TOWER/Libraries/CMSIS/Include\core_cm0.h **** #ifdef __cplusplus
 130:C:/Users/Lenovo/workspace/dave_workspace/SOLAR_TOWER/Libraries/CMSIS/Include\core_cm0.h ****  extern "C" {
 131:C:/Users/Lenovo/workspace/dave_workspace/SOLAR_TOWER/Libraries/CMSIS/Include\core_cm0.h **** #endif
 132:C:/Users/Lenovo/workspace/dave_workspace/SOLAR_TOWER/Libraries/CMSIS/Include\core_cm0.h **** 
 133:C:/Users/Lenovo/workspace/dave_workspace/SOLAR_TOWER/Libraries/CMSIS/Include\core_cm0.h **** /* check device defines and use defaults */
 134:C:/Users/Lenovo/workspace/dave_workspace/SOLAR_TOWER/Libraries/CMSIS/Include\core_cm0.h **** #if defined __CHECK_DEVICE_DEFINES
 135:C:/Users/Lenovo/workspace/dave_workspace/SOLAR_TOWER/Libraries/CMSIS/Include\core_cm0.h ****   #ifndef __CM0_REV
 136:C:/Users/Lenovo/workspace/dave_workspace/SOLAR_TOWER/Libraries/CMSIS/Include\core_cm0.h ****     #define __CM0_REV               0x0000U
 137:C:/Users/Lenovo/workspace/dave_workspace/SOLAR_TOWER/Libraries/CMSIS/Include\core_cm0.h ****     #warning "__CM0_REV not defined in device header file; using default!"
 138:C:/Users/Lenovo/workspace/dave_workspace/SOLAR_TOWER/Libraries/CMSIS/Include\core_cm0.h ****   #endif
 139:C:/Users/Lenovo/workspace/dave_workspace/SOLAR_TOWER/Libraries/CMSIS/Include\core_cm0.h **** 
 140:C:/Users/Lenovo/workspace/dave_workspace/SOLAR_TOWER/Libraries/CMSIS/Include\core_cm0.h ****   #ifndef __NVIC_PRIO_BITS
 141:C:/Users/Lenovo/workspace/dave_workspace/SOLAR_TOWER/Libraries/CMSIS/Include\core_cm0.h ****     #define __NVIC_PRIO_BITS          2U
 142:C:/Users/Lenovo/workspace/dave_workspace/SOLAR_TOWER/Libraries/CMSIS/Include\core_cm0.h ****     #warning "__NVIC_PRIO_BITS not defined in device header file; using default!"
 143:C:/Users/Lenovo/workspace/dave_workspace/SOLAR_TOWER/Libraries/CMSIS/Include\core_cm0.h ****   #endif
 144:C:/Users/Lenovo/workspace/dave_workspace/SOLAR_TOWER/Libraries/CMSIS/Include\core_cm0.h **** 
 145:C:/Users/Lenovo/workspace/dave_workspace/SOLAR_TOWER/Libraries/CMSIS/Include\core_cm0.h ****   #ifndef __Vendor_SysTickConfig
 146:C:/Users/Lenovo/workspace/dave_workspace/SOLAR_TOWER/Libraries/CMSIS/Include\core_cm0.h ****     #define __Vendor_SysTickConfig    0U
 147:C:/Users/Lenovo/workspace/dave_workspace/SOLAR_TOWER/Libraries/CMSIS/Include\core_cm0.h ****     #warning "__Vendor_SysTickConfig not defined in device header file; using default!"
 148:C:/Users/Lenovo/workspace/dave_workspace/SOLAR_TOWER/Libraries/CMSIS/Include\core_cm0.h ****   #endif
 149:C:/Users/Lenovo/workspace/dave_workspace/SOLAR_TOWER/Libraries/CMSIS/Include\core_cm0.h **** #endif
 150:C:/Users/Lenovo/workspace/dave_workspace/SOLAR_TOWER/Libraries/CMSIS/Include\core_cm0.h **** 
 151:C:/Users/Lenovo/workspace/dave_workspace/SOLAR_TOWER/Libraries/CMSIS/Include\core_cm0.h **** /* IO definitions (access restrictions to peripheral registers) */
 152:C:/Users/Lenovo/workspace/dave_workspace/SOLAR_TOWER/Libraries/CMSIS/Include\core_cm0.h **** /**
 153:C:/Users/Lenovo/workspace/dave_workspace/SOLAR_TOWER/Libraries/CMSIS/Include\core_cm0.h ****     \defgroup CMSIS_glob_defs CMSIS Global Defines
 154:C:/Users/Lenovo/workspace/dave_workspace/SOLAR_TOWER/Libraries/CMSIS/Include\core_cm0.h **** 
 155:C:/Users/Lenovo/workspace/dave_workspace/SOLAR_TOWER/Libraries/CMSIS/Include\core_cm0.h ****     <strong>IO Type Qualifiers</strong> are used
 156:C:/Users/Lenovo/workspace/dave_workspace/SOLAR_TOWER/Libraries/CMSIS/Include\core_cm0.h ****     \li to specify the access to peripheral variables.
 157:C:/Users/Lenovo/workspace/dave_workspace/SOLAR_TOWER/Libraries/CMSIS/Include\core_cm0.h ****     \li for automatic generation of peripheral register debug information.
 158:C:/Users/Lenovo/workspace/dave_workspace/SOLAR_TOWER/Libraries/CMSIS/Include\core_cm0.h **** */
 159:C:/Users/Lenovo/workspace/dave_workspace/SOLAR_TOWER/Libraries/CMSIS/Include\core_cm0.h **** #ifdef __cplusplus
 160:C:/Users/Lenovo/workspace/dave_workspace/SOLAR_TOWER/Libraries/CMSIS/Include\core_cm0.h ****   #define   __I     volatile             /*!< Defines 'read only' permissions */
 161:C:/Users/Lenovo/workspace/dave_workspace/SOLAR_TOWER/Libraries/CMSIS/Include\core_cm0.h **** #else
 162:C:/Users/Lenovo/workspace/dave_workspace/SOLAR_TOWER/Libraries/CMSIS/Include\core_cm0.h ****   #define   __I     volatile const       /*!< Defines 'read only' permissions */
 163:C:/Users/Lenovo/workspace/dave_workspace/SOLAR_TOWER/Libraries/CMSIS/Include\core_cm0.h **** #endif
 164:C:/Users/Lenovo/workspace/dave_workspace/SOLAR_TOWER/Libraries/CMSIS/Include\core_cm0.h **** #define     __O     volatile             /*!< Defines 'write only' permissions */
 165:C:/Users/Lenovo/workspace/dave_workspace/SOLAR_TOWER/Libraries/CMSIS/Include\core_cm0.h **** #define     __IO    volatile             /*!< Defines 'read / write' permissions */
 166:C:/Users/Lenovo/workspace/dave_workspace/SOLAR_TOWER/Libraries/CMSIS/Include\core_cm0.h **** 
 167:C:/Users/Lenovo/workspace/dave_workspace/SOLAR_TOWER/Libraries/CMSIS/Include\core_cm0.h **** /* following defines should be used for structure members */
 168:C:/Users/Lenovo/workspace/dave_workspace/SOLAR_TOWER/Libraries/CMSIS/Include\core_cm0.h **** #define     __IM     volatile const      /*! Defines 'read only' structure member permissions */
 169:C:/Users/Lenovo/workspace/dave_workspace/SOLAR_TOWER/Libraries/CMSIS/Include\core_cm0.h **** #define     __OM     volatile            /*! Defines 'write only' structure member permissions */
 170:C:/Users/Lenovo/workspace/dave_workspace/SOLAR_TOWER/Libraries/CMSIS/Include\core_cm0.h **** #define     __IOM    volatile            /*! Defines 'read / write' structure member permissions */
 171:C:/Users/Lenovo/workspace/dave_workspace/SOLAR_TOWER/Libraries/CMSIS/Include\core_cm0.h **** 
 172:C:/Users/Lenovo/workspace/dave_workspace/SOLAR_TOWER/Libraries/CMSIS/Include\core_cm0.h **** /*@} end of group Cortex_M0 */
 173:C:/Users/Lenovo/workspace/dave_workspace/SOLAR_TOWER/Libraries/CMSIS/Include\core_cm0.h **** 
 174:C:/Users/Lenovo/workspace/dave_workspace/SOLAR_TOWER/Libraries/CMSIS/Include\core_cm0.h **** 
 175:C:/Users/Lenovo/workspace/dave_workspace/SOLAR_TOWER/Libraries/CMSIS/Include\core_cm0.h **** 
 176:C:/Users/Lenovo/workspace/dave_workspace/SOLAR_TOWER/Libraries/CMSIS/Include\core_cm0.h **** /*******************************************************************************
 177:C:/Users/Lenovo/workspace/dave_workspace/SOLAR_TOWER/Libraries/CMSIS/Include\core_cm0.h ****  *                 Register Abstraction
 178:C:/Users/Lenovo/workspace/dave_workspace/SOLAR_TOWER/Libraries/CMSIS/Include\core_cm0.h ****   Core Register contain:
 179:C:/Users/Lenovo/workspace/dave_workspace/SOLAR_TOWER/Libraries/CMSIS/Include\core_cm0.h ****   - Core Register
 180:C:/Users/Lenovo/workspace/dave_workspace/SOLAR_TOWER/Libraries/CMSIS/Include\core_cm0.h ****   - Core NVIC Register
 181:C:/Users/Lenovo/workspace/dave_workspace/SOLAR_TOWER/Libraries/CMSIS/Include\core_cm0.h ****   - Core SCB Register
 182:C:/Users/Lenovo/workspace/dave_workspace/SOLAR_TOWER/Libraries/CMSIS/Include\core_cm0.h ****   - Core SysTick Register
 183:C:/Users/Lenovo/workspace/dave_workspace/SOLAR_TOWER/Libraries/CMSIS/Include\core_cm0.h ****  ******************************************************************************/
 184:C:/Users/Lenovo/workspace/dave_workspace/SOLAR_TOWER/Libraries/CMSIS/Include\core_cm0.h **** /**
 185:C:/Users/Lenovo/workspace/dave_workspace/SOLAR_TOWER/Libraries/CMSIS/Include\core_cm0.h ****   \defgroup CMSIS_core_register Defines and Type Definitions
 186:C:/Users/Lenovo/workspace/dave_workspace/SOLAR_TOWER/Libraries/CMSIS/Include\core_cm0.h ****   \brief Type definitions and defines for Cortex-M processor based devices.
 187:C:/Users/Lenovo/workspace/dave_workspace/SOLAR_TOWER/Libraries/CMSIS/Include\core_cm0.h **** */
 188:C:/Users/Lenovo/workspace/dave_workspace/SOLAR_TOWER/Libraries/CMSIS/Include\core_cm0.h **** 
 189:C:/Users/Lenovo/workspace/dave_workspace/SOLAR_TOWER/Libraries/CMSIS/Include\core_cm0.h **** /**
 190:C:/Users/Lenovo/workspace/dave_workspace/SOLAR_TOWER/Libraries/CMSIS/Include\core_cm0.h ****   \ingroup    CMSIS_core_register
 191:C:/Users/Lenovo/workspace/dave_workspace/SOLAR_TOWER/Libraries/CMSIS/Include\core_cm0.h ****   \defgroup   CMSIS_CORE  Status and Control Registers
 192:C:/Users/Lenovo/workspace/dave_workspace/SOLAR_TOWER/Libraries/CMSIS/Include\core_cm0.h ****   \brief      Core Register type definitions.
 193:C:/Users/Lenovo/workspace/dave_workspace/SOLAR_TOWER/Libraries/CMSIS/Include\core_cm0.h ****   @{
 194:C:/Users/Lenovo/workspace/dave_workspace/SOLAR_TOWER/Libraries/CMSIS/Include\core_cm0.h ****  */
 195:C:/Users/Lenovo/workspace/dave_workspace/SOLAR_TOWER/Libraries/CMSIS/Include\core_cm0.h **** 
 196:C:/Users/Lenovo/workspace/dave_workspace/SOLAR_TOWER/Libraries/CMSIS/Include\core_cm0.h **** /**
 197:C:/Users/Lenovo/workspace/dave_workspace/SOLAR_TOWER/Libraries/CMSIS/Include\core_cm0.h ****   \brief  Union type to access the Application Program Status Register (APSR).
 198:C:/Users/Lenovo/workspace/dave_workspace/SOLAR_TOWER/Libraries/CMSIS/Include\core_cm0.h ****  */
 199:C:/Users/Lenovo/workspace/dave_workspace/SOLAR_TOWER/Libraries/CMSIS/Include\core_cm0.h **** typedef union
 200:C:/Users/Lenovo/workspace/dave_workspace/SOLAR_TOWER/Libraries/CMSIS/Include\core_cm0.h **** {
 201:C:/Users/Lenovo/workspace/dave_workspace/SOLAR_TOWER/Libraries/CMSIS/Include\core_cm0.h ****   struct
 202:C:/Users/Lenovo/workspace/dave_workspace/SOLAR_TOWER/Libraries/CMSIS/Include\core_cm0.h ****   {
 203:C:/Users/Lenovo/workspace/dave_workspace/SOLAR_TOWER/Libraries/CMSIS/Include\core_cm0.h ****     uint32_t _reserved0:28;              /*!< bit:  0..27  Reserved */
 204:C:/Users/Lenovo/workspace/dave_workspace/SOLAR_TOWER/Libraries/CMSIS/Include\core_cm0.h ****     uint32_t V:1;                        /*!< bit:     28  Overflow condition code flag */
 205:C:/Users/Lenovo/workspace/dave_workspace/SOLAR_TOWER/Libraries/CMSIS/Include\core_cm0.h ****     uint32_t C:1;                        /*!< bit:     29  Carry condition code flag */
 206:C:/Users/Lenovo/workspace/dave_workspace/SOLAR_TOWER/Libraries/CMSIS/Include\core_cm0.h ****     uint32_t Z:1;                        /*!< bit:     30  Zero condition code flag */
 207:C:/Users/Lenovo/workspace/dave_workspace/SOLAR_TOWER/Libraries/CMSIS/Include\core_cm0.h ****     uint32_t N:1;                        /*!< bit:     31  Negative condition code flag */
 208:C:/Users/Lenovo/workspace/dave_workspace/SOLAR_TOWER/Libraries/CMSIS/Include\core_cm0.h ****   } b;                                   /*!< Structure used for bit  access */
 209:C:/Users/Lenovo/workspace/dave_workspace/SOLAR_TOWER/Libraries/CMSIS/Include\core_cm0.h ****   uint32_t w;                            /*!< Type      used for word access */
 210:C:/Users/Lenovo/workspace/dave_workspace/SOLAR_TOWER/Libraries/CMSIS/Include\core_cm0.h **** } APSR_Type;
 211:C:/Users/Lenovo/workspace/dave_workspace/SOLAR_TOWER/Libraries/CMSIS/Include\core_cm0.h **** 
 212:C:/Users/Lenovo/workspace/dave_workspace/SOLAR_TOWER/Libraries/CMSIS/Include\core_cm0.h **** /* APSR Register Definitions */
 213:C:/Users/Lenovo/workspace/dave_workspace/SOLAR_TOWER/Libraries/CMSIS/Include\core_cm0.h **** #define APSR_N_Pos                         31U                                            /*!< APSR
 214:C:/Users/Lenovo/workspace/dave_workspace/SOLAR_TOWER/Libraries/CMSIS/Include\core_cm0.h **** #define APSR_N_Msk                         (1UL << APSR_N_Pos)                            /*!< APSR
 215:C:/Users/Lenovo/workspace/dave_workspace/SOLAR_TOWER/Libraries/CMSIS/Include\core_cm0.h **** 
 216:C:/Users/Lenovo/workspace/dave_workspace/SOLAR_TOWER/Libraries/CMSIS/Include\core_cm0.h **** #define APSR_Z_Pos                         30U                                            /*!< APSR
 217:C:/Users/Lenovo/workspace/dave_workspace/SOLAR_TOWER/Libraries/CMSIS/Include\core_cm0.h **** #define APSR_Z_Msk                         (1UL << APSR_Z_Pos)                            /*!< APSR
 218:C:/Users/Lenovo/workspace/dave_workspace/SOLAR_TOWER/Libraries/CMSIS/Include\core_cm0.h **** 
 219:C:/Users/Lenovo/workspace/dave_workspace/SOLAR_TOWER/Libraries/CMSIS/Include\core_cm0.h **** #define APSR_C_Pos                         29U                                            /*!< APSR
 220:C:/Users/Lenovo/workspace/dave_workspace/SOLAR_TOWER/Libraries/CMSIS/Include\core_cm0.h **** #define APSR_C_Msk                         (1UL << APSR_C_Pos)                            /*!< APSR
 221:C:/Users/Lenovo/workspace/dave_workspace/SOLAR_TOWER/Libraries/CMSIS/Include\core_cm0.h **** 
 222:C:/Users/Lenovo/workspace/dave_workspace/SOLAR_TOWER/Libraries/CMSIS/Include\core_cm0.h **** #define APSR_V_Pos                         28U                                            /*!< APSR
 223:C:/Users/Lenovo/workspace/dave_workspace/SOLAR_TOWER/Libraries/CMSIS/Include\core_cm0.h **** #define APSR_V_Msk                         (1UL << APSR_V_Pos)                            /*!< APSR
 224:C:/Users/Lenovo/workspace/dave_workspace/SOLAR_TOWER/Libraries/CMSIS/Include\core_cm0.h **** 
 225:C:/Users/Lenovo/workspace/dave_workspace/SOLAR_TOWER/Libraries/CMSIS/Include\core_cm0.h **** 
 226:C:/Users/Lenovo/workspace/dave_workspace/SOLAR_TOWER/Libraries/CMSIS/Include\core_cm0.h **** /**
 227:C:/Users/Lenovo/workspace/dave_workspace/SOLAR_TOWER/Libraries/CMSIS/Include\core_cm0.h ****   \brief  Union type to access the Interrupt Program Status Register (IPSR).
 228:C:/Users/Lenovo/workspace/dave_workspace/SOLAR_TOWER/Libraries/CMSIS/Include\core_cm0.h ****  */
 229:C:/Users/Lenovo/workspace/dave_workspace/SOLAR_TOWER/Libraries/CMSIS/Include\core_cm0.h **** typedef union
 230:C:/Users/Lenovo/workspace/dave_workspace/SOLAR_TOWER/Libraries/CMSIS/Include\core_cm0.h **** {
 231:C:/Users/Lenovo/workspace/dave_workspace/SOLAR_TOWER/Libraries/CMSIS/Include\core_cm0.h ****   struct
 232:C:/Users/Lenovo/workspace/dave_workspace/SOLAR_TOWER/Libraries/CMSIS/Include\core_cm0.h ****   {
 233:C:/Users/Lenovo/workspace/dave_workspace/SOLAR_TOWER/Libraries/CMSIS/Include\core_cm0.h ****     uint32_t ISR:9;                      /*!< bit:  0.. 8  Exception number */
 234:C:/Users/Lenovo/workspace/dave_workspace/SOLAR_TOWER/Libraries/CMSIS/Include\core_cm0.h ****     uint32_t _reserved0:23;              /*!< bit:  9..31  Reserved */
 235:C:/Users/Lenovo/workspace/dave_workspace/SOLAR_TOWER/Libraries/CMSIS/Include\core_cm0.h ****   } b;                                   /*!< Structure used for bit  access */
 236:C:/Users/Lenovo/workspace/dave_workspace/SOLAR_TOWER/Libraries/CMSIS/Include\core_cm0.h ****   uint32_t w;                            /*!< Type      used for word access */
 237:C:/Users/Lenovo/workspace/dave_workspace/SOLAR_TOWER/Libraries/CMSIS/Include\core_cm0.h **** } IPSR_Type;
 238:C:/Users/Lenovo/workspace/dave_workspace/SOLAR_TOWER/Libraries/CMSIS/Include\core_cm0.h **** 
 239:C:/Users/Lenovo/workspace/dave_workspace/SOLAR_TOWER/Libraries/CMSIS/Include\core_cm0.h **** /* IPSR Register Definitions */
 240:C:/Users/Lenovo/workspace/dave_workspace/SOLAR_TOWER/Libraries/CMSIS/Include\core_cm0.h **** #define IPSR_ISR_Pos                        0U                                            /*!< IPSR
 241:C:/Users/Lenovo/workspace/dave_workspace/SOLAR_TOWER/Libraries/CMSIS/Include\core_cm0.h **** #define IPSR_ISR_Msk                       (0x1FFUL /*<< IPSR_ISR_Pos*/)                  /*!< IPSR
 242:C:/Users/Lenovo/workspace/dave_workspace/SOLAR_TOWER/Libraries/CMSIS/Include\core_cm0.h **** 
 243:C:/Users/Lenovo/workspace/dave_workspace/SOLAR_TOWER/Libraries/CMSIS/Include\core_cm0.h **** 
 244:C:/Users/Lenovo/workspace/dave_workspace/SOLAR_TOWER/Libraries/CMSIS/Include\core_cm0.h **** /**
 245:C:/Users/Lenovo/workspace/dave_workspace/SOLAR_TOWER/Libraries/CMSIS/Include\core_cm0.h ****   \brief  Union type to access the Special-Purpose Program Status Registers (xPSR).
 246:C:/Users/Lenovo/workspace/dave_workspace/SOLAR_TOWER/Libraries/CMSIS/Include\core_cm0.h ****  */
 247:C:/Users/Lenovo/workspace/dave_workspace/SOLAR_TOWER/Libraries/CMSIS/Include\core_cm0.h **** typedef union
 248:C:/Users/Lenovo/workspace/dave_workspace/SOLAR_TOWER/Libraries/CMSIS/Include\core_cm0.h **** {
 249:C:/Users/Lenovo/workspace/dave_workspace/SOLAR_TOWER/Libraries/CMSIS/Include\core_cm0.h ****   struct
 250:C:/Users/Lenovo/workspace/dave_workspace/SOLAR_TOWER/Libraries/CMSIS/Include\core_cm0.h ****   {
 251:C:/Users/Lenovo/workspace/dave_workspace/SOLAR_TOWER/Libraries/CMSIS/Include\core_cm0.h ****     uint32_t ISR:9;                      /*!< bit:  0.. 8  Exception number */
 252:C:/Users/Lenovo/workspace/dave_workspace/SOLAR_TOWER/Libraries/CMSIS/Include\core_cm0.h ****     uint32_t _reserved0:15;              /*!< bit:  9..23  Reserved */
 253:C:/Users/Lenovo/workspace/dave_workspace/SOLAR_TOWER/Libraries/CMSIS/Include\core_cm0.h ****     uint32_t T:1;                        /*!< bit:     24  Thumb bit        (read 0) */
 254:C:/Users/Lenovo/workspace/dave_workspace/SOLAR_TOWER/Libraries/CMSIS/Include\core_cm0.h ****     uint32_t _reserved1:3;               /*!< bit: 25..27  Reserved */
 255:C:/Users/Lenovo/workspace/dave_workspace/SOLAR_TOWER/Libraries/CMSIS/Include\core_cm0.h ****     uint32_t V:1;                        /*!< bit:     28  Overflow condition code flag */
 256:C:/Users/Lenovo/workspace/dave_workspace/SOLAR_TOWER/Libraries/CMSIS/Include\core_cm0.h ****     uint32_t C:1;                        /*!< bit:     29  Carry condition code flag */
 257:C:/Users/Lenovo/workspace/dave_workspace/SOLAR_TOWER/Libraries/CMSIS/Include\core_cm0.h ****     uint32_t Z:1;                        /*!< bit:     30  Zero condition code flag */
 258:C:/Users/Lenovo/workspace/dave_workspace/SOLAR_TOWER/Libraries/CMSIS/Include\core_cm0.h ****     uint32_t N:1;                        /*!< bit:     31  Negative condition code flag */
 259:C:/Users/Lenovo/workspace/dave_workspace/SOLAR_TOWER/Libraries/CMSIS/Include\core_cm0.h ****   } b;                                   /*!< Structure used for bit  access */
 260:C:/Users/Lenovo/workspace/dave_workspace/SOLAR_TOWER/Libraries/CMSIS/Include\core_cm0.h ****   uint32_t w;                            /*!< Type      used for word access */
 261:C:/Users/Lenovo/workspace/dave_workspace/SOLAR_TOWER/Libraries/CMSIS/Include\core_cm0.h **** } xPSR_Type;
 262:C:/Users/Lenovo/workspace/dave_workspace/SOLAR_TOWER/Libraries/CMSIS/Include\core_cm0.h **** 
 263:C:/Users/Lenovo/workspace/dave_workspace/SOLAR_TOWER/Libraries/CMSIS/Include\core_cm0.h **** /* xPSR Register Definitions */
 264:C:/Users/Lenovo/workspace/dave_workspace/SOLAR_TOWER/Libraries/CMSIS/Include\core_cm0.h **** #define xPSR_N_Pos                         31U                                            /*!< xPSR
 265:C:/Users/Lenovo/workspace/dave_workspace/SOLAR_TOWER/Libraries/CMSIS/Include\core_cm0.h **** #define xPSR_N_Msk                         (1UL << xPSR_N_Pos)                            /*!< xPSR
 266:C:/Users/Lenovo/workspace/dave_workspace/SOLAR_TOWER/Libraries/CMSIS/Include\core_cm0.h **** 
 267:C:/Users/Lenovo/workspace/dave_workspace/SOLAR_TOWER/Libraries/CMSIS/Include\core_cm0.h **** #define xPSR_Z_Pos                         30U                                            /*!< xPSR
 268:C:/Users/Lenovo/workspace/dave_workspace/SOLAR_TOWER/Libraries/CMSIS/Include\core_cm0.h **** #define xPSR_Z_Msk                         (1UL << xPSR_Z_Pos)                            /*!< xPSR
 269:C:/Users/Lenovo/workspace/dave_workspace/SOLAR_TOWER/Libraries/CMSIS/Include\core_cm0.h **** 
 270:C:/Users/Lenovo/workspace/dave_workspace/SOLAR_TOWER/Libraries/CMSIS/Include\core_cm0.h **** #define xPSR_C_Pos                         29U                                            /*!< xPSR
 271:C:/Users/Lenovo/workspace/dave_workspace/SOLAR_TOWER/Libraries/CMSIS/Include\core_cm0.h **** #define xPSR_C_Msk                         (1UL << xPSR_C_Pos)                            /*!< xPSR
 272:C:/Users/Lenovo/workspace/dave_workspace/SOLAR_TOWER/Libraries/CMSIS/Include\core_cm0.h **** 
 273:C:/Users/Lenovo/workspace/dave_workspace/SOLAR_TOWER/Libraries/CMSIS/Include\core_cm0.h **** #define xPSR_V_Pos                         28U                                            /*!< xPSR
 274:C:/Users/Lenovo/workspace/dave_workspace/SOLAR_TOWER/Libraries/CMSIS/Include\core_cm0.h **** #define xPSR_V_Msk                         (1UL << xPSR_V_Pos)                            /*!< xPSR
 275:C:/Users/Lenovo/workspace/dave_workspace/SOLAR_TOWER/Libraries/CMSIS/Include\core_cm0.h **** 
 276:C:/Users/Lenovo/workspace/dave_workspace/SOLAR_TOWER/Libraries/CMSIS/Include\core_cm0.h **** #define xPSR_T_Pos                         24U                                            /*!< xPSR
 277:C:/Users/Lenovo/workspace/dave_workspace/SOLAR_TOWER/Libraries/CMSIS/Include\core_cm0.h **** #define xPSR_T_Msk                         (1UL << xPSR_T_Pos)                            /*!< xPSR
 278:C:/Users/Lenovo/workspace/dave_workspace/SOLAR_TOWER/Libraries/CMSIS/Include\core_cm0.h **** 
 279:C:/Users/Lenovo/workspace/dave_workspace/SOLAR_TOWER/Libraries/CMSIS/Include\core_cm0.h **** #define xPSR_ISR_Pos                        0U                                            /*!< xPSR
 280:C:/Users/Lenovo/workspace/dave_workspace/SOLAR_TOWER/Libraries/CMSIS/Include\core_cm0.h **** #define xPSR_ISR_Msk                       (0x1FFUL /*<< xPSR_ISR_Pos*/)                  /*!< xPSR
 281:C:/Users/Lenovo/workspace/dave_workspace/SOLAR_TOWER/Libraries/CMSIS/Include\core_cm0.h **** 
 282:C:/Users/Lenovo/workspace/dave_workspace/SOLAR_TOWER/Libraries/CMSIS/Include\core_cm0.h **** 
 283:C:/Users/Lenovo/workspace/dave_workspace/SOLAR_TOWER/Libraries/CMSIS/Include\core_cm0.h **** /**
 284:C:/Users/Lenovo/workspace/dave_workspace/SOLAR_TOWER/Libraries/CMSIS/Include\core_cm0.h ****   \brief  Union type to access the Control Registers (CONTROL).
 285:C:/Users/Lenovo/workspace/dave_workspace/SOLAR_TOWER/Libraries/CMSIS/Include\core_cm0.h ****  */
 286:C:/Users/Lenovo/workspace/dave_workspace/SOLAR_TOWER/Libraries/CMSIS/Include\core_cm0.h **** typedef union
 287:C:/Users/Lenovo/workspace/dave_workspace/SOLAR_TOWER/Libraries/CMSIS/Include\core_cm0.h **** {
 288:C:/Users/Lenovo/workspace/dave_workspace/SOLAR_TOWER/Libraries/CMSIS/Include\core_cm0.h ****   struct
 289:C:/Users/Lenovo/workspace/dave_workspace/SOLAR_TOWER/Libraries/CMSIS/Include\core_cm0.h ****   {
 290:C:/Users/Lenovo/workspace/dave_workspace/SOLAR_TOWER/Libraries/CMSIS/Include\core_cm0.h ****     uint32_t _reserved0:1;               /*!< bit:      0  Reserved */
 291:C:/Users/Lenovo/workspace/dave_workspace/SOLAR_TOWER/Libraries/CMSIS/Include\core_cm0.h ****     uint32_t SPSEL:1;                    /*!< bit:      1  Stack to be used */
 292:C:/Users/Lenovo/workspace/dave_workspace/SOLAR_TOWER/Libraries/CMSIS/Include\core_cm0.h ****     uint32_t _reserved1:30;              /*!< bit:  2..31  Reserved */
 293:C:/Users/Lenovo/workspace/dave_workspace/SOLAR_TOWER/Libraries/CMSIS/Include\core_cm0.h ****   } b;                                   /*!< Structure used for bit  access */
 294:C:/Users/Lenovo/workspace/dave_workspace/SOLAR_TOWER/Libraries/CMSIS/Include\core_cm0.h ****   uint32_t w;                            /*!< Type      used for word access */
 295:C:/Users/Lenovo/workspace/dave_workspace/SOLAR_TOWER/Libraries/CMSIS/Include\core_cm0.h **** } CONTROL_Type;
 296:C:/Users/Lenovo/workspace/dave_workspace/SOLAR_TOWER/Libraries/CMSIS/Include\core_cm0.h **** 
 297:C:/Users/Lenovo/workspace/dave_workspace/SOLAR_TOWER/Libraries/CMSIS/Include\core_cm0.h **** /* CONTROL Register Definitions */
 298:C:/Users/Lenovo/workspace/dave_workspace/SOLAR_TOWER/Libraries/CMSIS/Include\core_cm0.h **** #define CONTROL_SPSEL_Pos                   1U                                            /*!< CONT
 299:C:/Users/Lenovo/workspace/dave_workspace/SOLAR_TOWER/Libraries/CMSIS/Include\core_cm0.h **** #define CONTROL_SPSEL_Msk                  (1UL << CONTROL_SPSEL_Pos)                     /*!< CONT
 300:C:/Users/Lenovo/workspace/dave_workspace/SOLAR_TOWER/Libraries/CMSIS/Include\core_cm0.h **** 
 301:C:/Users/Lenovo/workspace/dave_workspace/SOLAR_TOWER/Libraries/CMSIS/Include\core_cm0.h **** /*@} end of group CMSIS_CORE */
 302:C:/Users/Lenovo/workspace/dave_workspace/SOLAR_TOWER/Libraries/CMSIS/Include\core_cm0.h **** 
 303:C:/Users/Lenovo/workspace/dave_workspace/SOLAR_TOWER/Libraries/CMSIS/Include\core_cm0.h **** 
 304:C:/Users/Lenovo/workspace/dave_workspace/SOLAR_TOWER/Libraries/CMSIS/Include\core_cm0.h **** /**
 305:C:/Users/Lenovo/workspace/dave_workspace/SOLAR_TOWER/Libraries/CMSIS/Include\core_cm0.h ****   \ingroup    CMSIS_core_register
 306:C:/Users/Lenovo/workspace/dave_workspace/SOLAR_TOWER/Libraries/CMSIS/Include\core_cm0.h ****   \defgroup   CMSIS_NVIC  Nested Vectored Interrupt Controller (NVIC)
 307:C:/Users/Lenovo/workspace/dave_workspace/SOLAR_TOWER/Libraries/CMSIS/Include\core_cm0.h ****   \brief      Type definitions for the NVIC Registers
 308:C:/Users/Lenovo/workspace/dave_workspace/SOLAR_TOWER/Libraries/CMSIS/Include\core_cm0.h ****   @{
 309:C:/Users/Lenovo/workspace/dave_workspace/SOLAR_TOWER/Libraries/CMSIS/Include\core_cm0.h ****  */
 310:C:/Users/Lenovo/workspace/dave_workspace/SOLAR_TOWER/Libraries/CMSIS/Include\core_cm0.h **** 
 311:C:/Users/Lenovo/workspace/dave_workspace/SOLAR_TOWER/Libraries/CMSIS/Include\core_cm0.h **** /**
 312:C:/Users/Lenovo/workspace/dave_workspace/SOLAR_TOWER/Libraries/CMSIS/Include\core_cm0.h ****   \brief  Structure type to access the Nested Vectored Interrupt Controller (NVIC).
 313:C:/Users/Lenovo/workspace/dave_workspace/SOLAR_TOWER/Libraries/CMSIS/Include\core_cm0.h ****  */
 314:C:/Users/Lenovo/workspace/dave_workspace/SOLAR_TOWER/Libraries/CMSIS/Include\core_cm0.h **** typedef struct
 315:C:/Users/Lenovo/workspace/dave_workspace/SOLAR_TOWER/Libraries/CMSIS/Include\core_cm0.h **** {
 316:C:/Users/Lenovo/workspace/dave_workspace/SOLAR_TOWER/Libraries/CMSIS/Include\core_cm0.h ****   __IOM uint32_t ISER[1U];               /*!< Offset: 0x000 (R/W)  Interrupt Set Enable Register */
 317:C:/Users/Lenovo/workspace/dave_workspace/SOLAR_TOWER/Libraries/CMSIS/Include\core_cm0.h ****         uint32_t RESERVED0[31U];
 318:C:/Users/Lenovo/workspace/dave_workspace/SOLAR_TOWER/Libraries/CMSIS/Include\core_cm0.h ****   __IOM uint32_t ICER[1U];               /*!< Offset: 0x080 (R/W)  Interrupt Clear Enable Register 
 319:C:/Users/Lenovo/workspace/dave_workspace/SOLAR_TOWER/Libraries/CMSIS/Include\core_cm0.h ****         uint32_t RSERVED1[31U];
 320:C:/Users/Lenovo/workspace/dave_workspace/SOLAR_TOWER/Libraries/CMSIS/Include\core_cm0.h ****   __IOM uint32_t ISPR[1U];               /*!< Offset: 0x100 (R/W)  Interrupt Set Pending Register *
 321:C:/Users/Lenovo/workspace/dave_workspace/SOLAR_TOWER/Libraries/CMSIS/Include\core_cm0.h ****         uint32_t RESERVED2[31U];
 322:C:/Users/Lenovo/workspace/dave_workspace/SOLAR_TOWER/Libraries/CMSIS/Include\core_cm0.h ****   __IOM uint32_t ICPR[1U];               /*!< Offset: 0x180 (R/W)  Interrupt Clear Pending Register
 323:C:/Users/Lenovo/workspace/dave_workspace/SOLAR_TOWER/Libraries/CMSIS/Include\core_cm0.h ****         uint32_t RESERVED3[31U];
 324:C:/Users/Lenovo/workspace/dave_workspace/SOLAR_TOWER/Libraries/CMSIS/Include\core_cm0.h ****         uint32_t RESERVED4[64U];
 325:C:/Users/Lenovo/workspace/dave_workspace/SOLAR_TOWER/Libraries/CMSIS/Include\core_cm0.h ****   __IOM uint32_t IP[8U];                 /*!< Offset: 0x300 (R/W)  Interrupt Priority Register */
 326:C:/Users/Lenovo/workspace/dave_workspace/SOLAR_TOWER/Libraries/CMSIS/Include\core_cm0.h **** }  NVIC_Type;
 327:C:/Users/Lenovo/workspace/dave_workspace/SOLAR_TOWER/Libraries/CMSIS/Include\core_cm0.h **** 
 328:C:/Users/Lenovo/workspace/dave_workspace/SOLAR_TOWER/Libraries/CMSIS/Include\core_cm0.h **** /*@} end of group CMSIS_NVIC */
 329:C:/Users/Lenovo/workspace/dave_workspace/SOLAR_TOWER/Libraries/CMSIS/Include\core_cm0.h **** 
 330:C:/Users/Lenovo/workspace/dave_workspace/SOLAR_TOWER/Libraries/CMSIS/Include\core_cm0.h **** 
 331:C:/Users/Lenovo/workspace/dave_workspace/SOLAR_TOWER/Libraries/CMSIS/Include\core_cm0.h **** /**
 332:C:/Users/Lenovo/workspace/dave_workspace/SOLAR_TOWER/Libraries/CMSIS/Include\core_cm0.h ****   \ingroup  CMSIS_core_register
 333:C:/Users/Lenovo/workspace/dave_workspace/SOLAR_TOWER/Libraries/CMSIS/Include\core_cm0.h ****   \defgroup CMSIS_SCB     System Control Block (SCB)
 334:C:/Users/Lenovo/workspace/dave_workspace/SOLAR_TOWER/Libraries/CMSIS/Include\core_cm0.h ****   \brief    Type definitions for the System Control Block Registers
 335:C:/Users/Lenovo/workspace/dave_workspace/SOLAR_TOWER/Libraries/CMSIS/Include\core_cm0.h ****   @{
 336:C:/Users/Lenovo/workspace/dave_workspace/SOLAR_TOWER/Libraries/CMSIS/Include\core_cm0.h ****  */
 337:C:/Users/Lenovo/workspace/dave_workspace/SOLAR_TOWER/Libraries/CMSIS/Include\core_cm0.h **** 
 338:C:/Users/Lenovo/workspace/dave_workspace/SOLAR_TOWER/Libraries/CMSIS/Include\core_cm0.h **** /**
 339:C:/Users/Lenovo/workspace/dave_workspace/SOLAR_TOWER/Libraries/CMSIS/Include\core_cm0.h ****   \brief  Structure type to access the System Control Block (SCB).
 340:C:/Users/Lenovo/workspace/dave_workspace/SOLAR_TOWER/Libraries/CMSIS/Include\core_cm0.h ****  */
 341:C:/Users/Lenovo/workspace/dave_workspace/SOLAR_TOWER/Libraries/CMSIS/Include\core_cm0.h **** typedef struct
 342:C:/Users/Lenovo/workspace/dave_workspace/SOLAR_TOWER/Libraries/CMSIS/Include\core_cm0.h **** {
 343:C:/Users/Lenovo/workspace/dave_workspace/SOLAR_TOWER/Libraries/CMSIS/Include\core_cm0.h ****   __IM  uint32_t CPUID;                  /*!< Offset: 0x000 (R/ )  CPUID Base Register */
 344:C:/Users/Lenovo/workspace/dave_workspace/SOLAR_TOWER/Libraries/CMSIS/Include\core_cm0.h ****   __IOM uint32_t ICSR;                   /*!< Offset: 0x004 (R/W)  Interrupt Control and State Regi
 345:C:/Users/Lenovo/workspace/dave_workspace/SOLAR_TOWER/Libraries/CMSIS/Include\core_cm0.h ****         uint32_t RESERVED0;
 346:C:/Users/Lenovo/workspace/dave_workspace/SOLAR_TOWER/Libraries/CMSIS/Include\core_cm0.h ****   __IOM uint32_t AIRCR;                  /*!< Offset: 0x00C (R/W)  Application Interrupt and Reset 
 347:C:/Users/Lenovo/workspace/dave_workspace/SOLAR_TOWER/Libraries/CMSIS/Include\core_cm0.h ****   __IOM uint32_t SCR;                    /*!< Offset: 0x010 (R/W)  System Control Register */
 348:C:/Users/Lenovo/workspace/dave_workspace/SOLAR_TOWER/Libraries/CMSIS/Include\core_cm0.h ****   __IOM uint32_t CCR;                    /*!< Offset: 0x014 (R/W)  Configuration Control Register *
 349:C:/Users/Lenovo/workspace/dave_workspace/SOLAR_TOWER/Libraries/CMSIS/Include\core_cm0.h ****         uint32_t RESERVED1;
 350:C:/Users/Lenovo/workspace/dave_workspace/SOLAR_TOWER/Libraries/CMSIS/Include\core_cm0.h ****   __IOM uint32_t SHP[2U];                /*!< Offset: 0x01C (R/W)  System Handlers Priority Registe
 351:C:/Users/Lenovo/workspace/dave_workspace/SOLAR_TOWER/Libraries/CMSIS/Include\core_cm0.h ****   __IOM uint32_t SHCSR;                  /*!< Offset: 0x024 (R/W)  System Handler Control and State
 352:C:/Users/Lenovo/workspace/dave_workspace/SOLAR_TOWER/Libraries/CMSIS/Include\core_cm0.h **** } SCB_Type;
 353:C:/Users/Lenovo/workspace/dave_workspace/SOLAR_TOWER/Libraries/CMSIS/Include\core_cm0.h **** 
 354:C:/Users/Lenovo/workspace/dave_workspace/SOLAR_TOWER/Libraries/CMSIS/Include\core_cm0.h **** /* SCB CPUID Register Definitions */
 355:C:/Users/Lenovo/workspace/dave_workspace/SOLAR_TOWER/Libraries/CMSIS/Include\core_cm0.h **** #define SCB_CPUID_IMPLEMENTER_Pos          24U                                            /*!< SCB 
 356:C:/Users/Lenovo/workspace/dave_workspace/SOLAR_TOWER/Libraries/CMSIS/Include\core_cm0.h **** #define SCB_CPUID_IMPLEMENTER_Msk          (0xFFUL << SCB_CPUID_IMPLEMENTER_Pos)          /*!< SCB 
 357:C:/Users/Lenovo/workspace/dave_workspace/SOLAR_TOWER/Libraries/CMSIS/Include\core_cm0.h **** 
 358:C:/Users/Lenovo/workspace/dave_workspace/SOLAR_TOWER/Libraries/CMSIS/Include\core_cm0.h **** #define SCB_CPUID_VARIANT_Pos              20U                                            /*!< SCB 
 359:C:/Users/Lenovo/workspace/dave_workspace/SOLAR_TOWER/Libraries/CMSIS/Include\core_cm0.h **** #define SCB_CPUID_VARIANT_Msk              (0xFUL << SCB_CPUID_VARIANT_Pos)               /*!< SCB 
 360:C:/Users/Lenovo/workspace/dave_workspace/SOLAR_TOWER/Libraries/CMSIS/Include\core_cm0.h **** 
 361:C:/Users/Lenovo/workspace/dave_workspace/SOLAR_TOWER/Libraries/CMSIS/Include\core_cm0.h **** #define SCB_CPUID_ARCHITECTURE_Pos         16U                                            /*!< SCB 
 362:C:/Users/Lenovo/workspace/dave_workspace/SOLAR_TOWER/Libraries/CMSIS/Include\core_cm0.h **** #define SCB_CPUID_ARCHITECTURE_Msk         (0xFUL << SCB_CPUID_ARCHITECTURE_Pos)          /*!< SCB 
 363:C:/Users/Lenovo/workspace/dave_workspace/SOLAR_TOWER/Libraries/CMSIS/Include\core_cm0.h **** 
 364:C:/Users/Lenovo/workspace/dave_workspace/SOLAR_TOWER/Libraries/CMSIS/Include\core_cm0.h **** #define SCB_CPUID_PARTNO_Pos                4U                                            /*!< SCB 
 365:C:/Users/Lenovo/workspace/dave_workspace/SOLAR_TOWER/Libraries/CMSIS/Include\core_cm0.h **** #define SCB_CPUID_PARTNO_Msk               (0xFFFUL << SCB_CPUID_PARTNO_Pos)              /*!< SCB 
 366:C:/Users/Lenovo/workspace/dave_workspace/SOLAR_TOWER/Libraries/CMSIS/Include\core_cm0.h **** 
 367:C:/Users/Lenovo/workspace/dave_workspace/SOLAR_TOWER/Libraries/CMSIS/Include\core_cm0.h **** #define SCB_CPUID_REVISION_Pos              0U                                            /*!< SCB 
 368:C:/Users/Lenovo/workspace/dave_workspace/SOLAR_TOWER/Libraries/CMSIS/Include\core_cm0.h **** #define SCB_CPUID_REVISION_Msk             (0xFUL /*<< SCB_CPUID_REVISION_Pos*/)          /*!< SCB 
 369:C:/Users/Lenovo/workspace/dave_workspace/SOLAR_TOWER/Libraries/CMSIS/Include\core_cm0.h **** 
 370:C:/Users/Lenovo/workspace/dave_workspace/SOLAR_TOWER/Libraries/CMSIS/Include\core_cm0.h **** /* SCB Interrupt Control State Register Definitions */
 371:C:/Users/Lenovo/workspace/dave_workspace/SOLAR_TOWER/Libraries/CMSIS/Include\core_cm0.h **** #define SCB_ICSR_NMIPENDSET_Pos            31U                                            /*!< SCB 
 372:C:/Users/Lenovo/workspace/dave_workspace/SOLAR_TOWER/Libraries/CMSIS/Include\core_cm0.h **** #define SCB_ICSR_NMIPENDSET_Msk            (1UL << SCB_ICSR_NMIPENDSET_Pos)               /*!< SCB 
 373:C:/Users/Lenovo/workspace/dave_workspace/SOLAR_TOWER/Libraries/CMSIS/Include\core_cm0.h **** 
 374:C:/Users/Lenovo/workspace/dave_workspace/SOLAR_TOWER/Libraries/CMSIS/Include\core_cm0.h **** #define SCB_ICSR_PENDSVSET_Pos             28U                                            /*!< SCB 
 375:C:/Users/Lenovo/workspace/dave_workspace/SOLAR_TOWER/Libraries/CMSIS/Include\core_cm0.h **** #define SCB_ICSR_PENDSVSET_Msk             (1UL << SCB_ICSR_PENDSVSET_Pos)                /*!< SCB 
 376:C:/Users/Lenovo/workspace/dave_workspace/SOLAR_TOWER/Libraries/CMSIS/Include\core_cm0.h **** 
 377:C:/Users/Lenovo/workspace/dave_workspace/SOLAR_TOWER/Libraries/CMSIS/Include\core_cm0.h **** #define SCB_ICSR_PENDSVCLR_Pos             27U                                            /*!< SCB 
 378:C:/Users/Lenovo/workspace/dave_workspace/SOLAR_TOWER/Libraries/CMSIS/Include\core_cm0.h **** #define SCB_ICSR_PENDSVCLR_Msk             (1UL << SCB_ICSR_PENDSVCLR_Pos)                /*!< SCB 
 379:C:/Users/Lenovo/workspace/dave_workspace/SOLAR_TOWER/Libraries/CMSIS/Include\core_cm0.h **** 
 380:C:/Users/Lenovo/workspace/dave_workspace/SOLAR_TOWER/Libraries/CMSIS/Include\core_cm0.h **** #define SCB_ICSR_PENDSTSET_Pos             26U                                            /*!< SCB 
 381:C:/Users/Lenovo/workspace/dave_workspace/SOLAR_TOWER/Libraries/CMSIS/Include\core_cm0.h **** #define SCB_ICSR_PENDSTSET_Msk             (1UL << SCB_ICSR_PENDSTSET_Pos)                /*!< SCB 
 382:C:/Users/Lenovo/workspace/dave_workspace/SOLAR_TOWER/Libraries/CMSIS/Include\core_cm0.h **** 
 383:C:/Users/Lenovo/workspace/dave_workspace/SOLAR_TOWER/Libraries/CMSIS/Include\core_cm0.h **** #define SCB_ICSR_PENDSTCLR_Pos             25U                                            /*!< SCB 
 384:C:/Users/Lenovo/workspace/dave_workspace/SOLAR_TOWER/Libraries/CMSIS/Include\core_cm0.h **** #define SCB_ICSR_PENDSTCLR_Msk             (1UL << SCB_ICSR_PENDSTCLR_Pos)                /*!< SCB 
 385:C:/Users/Lenovo/workspace/dave_workspace/SOLAR_TOWER/Libraries/CMSIS/Include\core_cm0.h **** 
 386:C:/Users/Lenovo/workspace/dave_workspace/SOLAR_TOWER/Libraries/CMSIS/Include\core_cm0.h **** #define SCB_ICSR_ISRPREEMPT_Pos            23U                                            /*!< SCB 
 387:C:/Users/Lenovo/workspace/dave_workspace/SOLAR_TOWER/Libraries/CMSIS/Include\core_cm0.h **** #define SCB_ICSR_ISRPREEMPT_Msk            (1UL << SCB_ICSR_ISRPREEMPT_Pos)               /*!< SCB 
 388:C:/Users/Lenovo/workspace/dave_workspace/SOLAR_TOWER/Libraries/CMSIS/Include\core_cm0.h **** 
 389:C:/Users/Lenovo/workspace/dave_workspace/SOLAR_TOWER/Libraries/CMSIS/Include\core_cm0.h **** #define SCB_ICSR_ISRPENDING_Pos            22U                                            /*!< SCB 
 390:C:/Users/Lenovo/workspace/dave_workspace/SOLAR_TOWER/Libraries/CMSIS/Include\core_cm0.h **** #define SCB_ICSR_ISRPENDING_Msk            (1UL << SCB_ICSR_ISRPENDING_Pos)               /*!< SCB 
 391:C:/Users/Lenovo/workspace/dave_workspace/SOLAR_TOWER/Libraries/CMSIS/Include\core_cm0.h **** 
 392:C:/Users/Lenovo/workspace/dave_workspace/SOLAR_TOWER/Libraries/CMSIS/Include\core_cm0.h **** #define SCB_ICSR_VECTPENDING_Pos           12U                                            /*!< SCB 
 393:C:/Users/Lenovo/workspace/dave_workspace/SOLAR_TOWER/Libraries/CMSIS/Include\core_cm0.h **** #define SCB_ICSR_VECTPENDING_Msk           (0x1FFUL << SCB_ICSR_VECTPENDING_Pos)          /*!< SCB 
 394:C:/Users/Lenovo/workspace/dave_workspace/SOLAR_TOWER/Libraries/CMSIS/Include\core_cm0.h **** 
 395:C:/Users/Lenovo/workspace/dave_workspace/SOLAR_TOWER/Libraries/CMSIS/Include\core_cm0.h **** #define SCB_ICSR_VECTACTIVE_Pos             0U                                            /*!< SCB 
 396:C:/Users/Lenovo/workspace/dave_workspace/SOLAR_TOWER/Libraries/CMSIS/Include\core_cm0.h **** #define SCB_ICSR_VECTACTIVE_Msk            (0x1FFUL /*<< SCB_ICSR_VECTACTIVE_Pos*/)       /*!< SCB 
 397:C:/Users/Lenovo/workspace/dave_workspace/SOLAR_TOWER/Libraries/CMSIS/Include\core_cm0.h **** 
 398:C:/Users/Lenovo/workspace/dave_workspace/SOLAR_TOWER/Libraries/CMSIS/Include\core_cm0.h **** /* SCB Application Interrupt and Reset Control Register Definitions */
 399:C:/Users/Lenovo/workspace/dave_workspace/SOLAR_TOWER/Libraries/CMSIS/Include\core_cm0.h **** #define SCB_AIRCR_VECTKEY_Pos              16U                                            /*!< SCB 
 400:C:/Users/Lenovo/workspace/dave_workspace/SOLAR_TOWER/Libraries/CMSIS/Include\core_cm0.h **** #define SCB_AIRCR_VECTKEY_Msk              (0xFFFFUL << SCB_AIRCR_VECTKEY_Pos)            /*!< SCB 
 401:C:/Users/Lenovo/workspace/dave_workspace/SOLAR_TOWER/Libraries/CMSIS/Include\core_cm0.h **** 
 402:C:/Users/Lenovo/workspace/dave_workspace/SOLAR_TOWER/Libraries/CMSIS/Include\core_cm0.h **** #define SCB_AIRCR_VECTKEYSTAT_Pos          16U                                            /*!< SCB 
 403:C:/Users/Lenovo/workspace/dave_workspace/SOLAR_TOWER/Libraries/CMSIS/Include\core_cm0.h **** #define SCB_AIRCR_VECTKEYSTAT_Msk          (0xFFFFUL << SCB_AIRCR_VECTKEYSTAT_Pos)        /*!< SCB 
 404:C:/Users/Lenovo/workspace/dave_workspace/SOLAR_TOWER/Libraries/CMSIS/Include\core_cm0.h **** 
 405:C:/Users/Lenovo/workspace/dave_workspace/SOLAR_TOWER/Libraries/CMSIS/Include\core_cm0.h **** #define SCB_AIRCR_ENDIANESS_Pos            15U                                            /*!< SCB 
 406:C:/Users/Lenovo/workspace/dave_workspace/SOLAR_TOWER/Libraries/CMSIS/Include\core_cm0.h **** #define SCB_AIRCR_ENDIANESS_Msk            (1UL << SCB_AIRCR_ENDIANESS_Pos)               /*!< SCB 
 407:C:/Users/Lenovo/workspace/dave_workspace/SOLAR_TOWER/Libraries/CMSIS/Include\core_cm0.h **** 
 408:C:/Users/Lenovo/workspace/dave_workspace/SOLAR_TOWER/Libraries/CMSIS/Include\core_cm0.h **** #define SCB_AIRCR_SYSRESETREQ_Pos           2U                                            /*!< SCB 
 409:C:/Users/Lenovo/workspace/dave_workspace/SOLAR_TOWER/Libraries/CMSIS/Include\core_cm0.h **** #define SCB_AIRCR_SYSRESETREQ_Msk          (1UL << SCB_AIRCR_SYSRESETREQ_Pos)             /*!< SCB 
 410:C:/Users/Lenovo/workspace/dave_workspace/SOLAR_TOWER/Libraries/CMSIS/Include\core_cm0.h **** 
 411:C:/Users/Lenovo/workspace/dave_workspace/SOLAR_TOWER/Libraries/CMSIS/Include\core_cm0.h **** #define SCB_AIRCR_VECTCLRACTIVE_Pos         1U                                            /*!< SCB 
 412:C:/Users/Lenovo/workspace/dave_workspace/SOLAR_TOWER/Libraries/CMSIS/Include\core_cm0.h **** #define SCB_AIRCR_VECTCLRACTIVE_Msk        (1UL << SCB_AIRCR_VECTCLRACTIVE_Pos)           /*!< SCB 
 413:C:/Users/Lenovo/workspace/dave_workspace/SOLAR_TOWER/Libraries/CMSIS/Include\core_cm0.h **** 
 414:C:/Users/Lenovo/workspace/dave_workspace/SOLAR_TOWER/Libraries/CMSIS/Include\core_cm0.h **** /* SCB System Control Register Definitions */
 415:C:/Users/Lenovo/workspace/dave_workspace/SOLAR_TOWER/Libraries/CMSIS/Include\core_cm0.h **** #define SCB_SCR_SEVONPEND_Pos               4U                                            /*!< SCB 
 416:C:/Users/Lenovo/workspace/dave_workspace/SOLAR_TOWER/Libraries/CMSIS/Include\core_cm0.h **** #define SCB_SCR_SEVONPEND_Msk              (1UL << SCB_SCR_SEVONPEND_Pos)                 /*!< SCB 
 417:C:/Users/Lenovo/workspace/dave_workspace/SOLAR_TOWER/Libraries/CMSIS/Include\core_cm0.h **** 
 418:C:/Users/Lenovo/workspace/dave_workspace/SOLAR_TOWER/Libraries/CMSIS/Include\core_cm0.h **** #define SCB_SCR_SLEEPDEEP_Pos               2U                                            /*!< SCB 
 419:C:/Users/Lenovo/workspace/dave_workspace/SOLAR_TOWER/Libraries/CMSIS/Include\core_cm0.h **** #define SCB_SCR_SLEEPDEEP_Msk              (1UL << SCB_SCR_SLEEPDEEP_Pos)                 /*!< SCB 
 420:C:/Users/Lenovo/workspace/dave_workspace/SOLAR_TOWER/Libraries/CMSIS/Include\core_cm0.h **** 
 421:C:/Users/Lenovo/workspace/dave_workspace/SOLAR_TOWER/Libraries/CMSIS/Include\core_cm0.h **** #define SCB_SCR_SLEEPONEXIT_Pos             1U                                            /*!< SCB 
 422:C:/Users/Lenovo/workspace/dave_workspace/SOLAR_TOWER/Libraries/CMSIS/Include\core_cm0.h **** #define SCB_SCR_SLEEPONEXIT_Msk            (1UL << SCB_SCR_SLEEPONEXIT_Pos)               /*!< SCB 
 423:C:/Users/Lenovo/workspace/dave_workspace/SOLAR_TOWER/Libraries/CMSIS/Include\core_cm0.h **** 
 424:C:/Users/Lenovo/workspace/dave_workspace/SOLAR_TOWER/Libraries/CMSIS/Include\core_cm0.h **** /* SCB Configuration Control Register Definitions */
 425:C:/Users/Lenovo/workspace/dave_workspace/SOLAR_TOWER/Libraries/CMSIS/Include\core_cm0.h **** #define SCB_CCR_STKALIGN_Pos                9U                                            /*!< SCB 
 426:C:/Users/Lenovo/workspace/dave_workspace/SOLAR_TOWER/Libraries/CMSIS/Include\core_cm0.h **** #define SCB_CCR_STKALIGN_Msk               (1UL << SCB_CCR_STKALIGN_Pos)                  /*!< SCB 
 427:C:/Users/Lenovo/workspace/dave_workspace/SOLAR_TOWER/Libraries/CMSIS/Include\core_cm0.h **** 
 428:C:/Users/Lenovo/workspace/dave_workspace/SOLAR_TOWER/Libraries/CMSIS/Include\core_cm0.h **** #define SCB_CCR_UNALIGN_TRP_Pos             3U                                            /*!< SCB 
 429:C:/Users/Lenovo/workspace/dave_workspace/SOLAR_TOWER/Libraries/CMSIS/Include\core_cm0.h **** #define SCB_CCR_UNALIGN_TRP_Msk            (1UL << SCB_CCR_UNALIGN_TRP_Pos)               /*!< SCB 
 430:C:/Users/Lenovo/workspace/dave_workspace/SOLAR_TOWER/Libraries/CMSIS/Include\core_cm0.h **** 
 431:C:/Users/Lenovo/workspace/dave_workspace/SOLAR_TOWER/Libraries/CMSIS/Include\core_cm0.h **** /* SCB System Handler Control and State Register Definitions */
 432:C:/Users/Lenovo/workspace/dave_workspace/SOLAR_TOWER/Libraries/CMSIS/Include\core_cm0.h **** #define SCB_SHCSR_SVCALLPENDED_Pos         15U                                            /*!< SCB 
 433:C:/Users/Lenovo/workspace/dave_workspace/SOLAR_TOWER/Libraries/CMSIS/Include\core_cm0.h **** #define SCB_SHCSR_SVCALLPENDED_Msk         (1UL << SCB_SHCSR_SVCALLPENDED_Pos)            /*!< SCB 
 434:C:/Users/Lenovo/workspace/dave_workspace/SOLAR_TOWER/Libraries/CMSIS/Include\core_cm0.h **** 
 435:C:/Users/Lenovo/workspace/dave_workspace/SOLAR_TOWER/Libraries/CMSIS/Include\core_cm0.h **** /*@} end of group CMSIS_SCB */
 436:C:/Users/Lenovo/workspace/dave_workspace/SOLAR_TOWER/Libraries/CMSIS/Include\core_cm0.h **** 
 437:C:/Users/Lenovo/workspace/dave_workspace/SOLAR_TOWER/Libraries/CMSIS/Include\core_cm0.h **** 
 438:C:/Users/Lenovo/workspace/dave_workspace/SOLAR_TOWER/Libraries/CMSIS/Include\core_cm0.h **** /**
 439:C:/Users/Lenovo/workspace/dave_workspace/SOLAR_TOWER/Libraries/CMSIS/Include\core_cm0.h ****   \ingroup  CMSIS_core_register
 440:C:/Users/Lenovo/workspace/dave_workspace/SOLAR_TOWER/Libraries/CMSIS/Include\core_cm0.h ****   \defgroup CMSIS_SysTick     System Tick Timer (SysTick)
 441:C:/Users/Lenovo/workspace/dave_workspace/SOLAR_TOWER/Libraries/CMSIS/Include\core_cm0.h ****   \brief    Type definitions for the System Timer Registers.
 442:C:/Users/Lenovo/workspace/dave_workspace/SOLAR_TOWER/Libraries/CMSIS/Include\core_cm0.h ****   @{
 443:C:/Users/Lenovo/workspace/dave_workspace/SOLAR_TOWER/Libraries/CMSIS/Include\core_cm0.h ****  */
 444:C:/Users/Lenovo/workspace/dave_workspace/SOLAR_TOWER/Libraries/CMSIS/Include\core_cm0.h **** 
 445:C:/Users/Lenovo/workspace/dave_workspace/SOLAR_TOWER/Libraries/CMSIS/Include\core_cm0.h **** /**
 446:C:/Users/Lenovo/workspace/dave_workspace/SOLAR_TOWER/Libraries/CMSIS/Include\core_cm0.h ****   \brief  Structure type to access the System Timer (SysTick).
 447:C:/Users/Lenovo/workspace/dave_workspace/SOLAR_TOWER/Libraries/CMSIS/Include\core_cm0.h ****  */
 448:C:/Users/Lenovo/workspace/dave_workspace/SOLAR_TOWER/Libraries/CMSIS/Include\core_cm0.h **** typedef struct
 449:C:/Users/Lenovo/workspace/dave_workspace/SOLAR_TOWER/Libraries/CMSIS/Include\core_cm0.h **** {
 450:C:/Users/Lenovo/workspace/dave_workspace/SOLAR_TOWER/Libraries/CMSIS/Include\core_cm0.h ****   __IOM uint32_t CTRL;                   /*!< Offset: 0x000 (R/W)  SysTick Control and Status Regis
 451:C:/Users/Lenovo/workspace/dave_workspace/SOLAR_TOWER/Libraries/CMSIS/Include\core_cm0.h ****   __IOM uint32_t LOAD;                   /*!< Offset: 0x004 (R/W)  SysTick Reload Value Register */
 452:C:/Users/Lenovo/workspace/dave_workspace/SOLAR_TOWER/Libraries/CMSIS/Include\core_cm0.h ****   __IOM uint32_t VAL;                    /*!< Offset: 0x008 (R/W)  SysTick Current Value Register *
 453:C:/Users/Lenovo/workspace/dave_workspace/SOLAR_TOWER/Libraries/CMSIS/Include\core_cm0.h ****   __IM  uint32_t CALIB;                  /*!< Offset: 0x00C (R/ )  SysTick Calibration Register */
 454:C:/Users/Lenovo/workspace/dave_workspace/SOLAR_TOWER/Libraries/CMSIS/Include\core_cm0.h **** } SysTick_Type;
 455:C:/Users/Lenovo/workspace/dave_workspace/SOLAR_TOWER/Libraries/CMSIS/Include\core_cm0.h **** 
 456:C:/Users/Lenovo/workspace/dave_workspace/SOLAR_TOWER/Libraries/CMSIS/Include\core_cm0.h **** /* SysTick Control / Status Register Definitions */
 457:C:/Users/Lenovo/workspace/dave_workspace/SOLAR_TOWER/Libraries/CMSIS/Include\core_cm0.h **** #define SysTick_CTRL_COUNTFLAG_Pos         16U                                            /*!< SysT
 458:C:/Users/Lenovo/workspace/dave_workspace/SOLAR_TOWER/Libraries/CMSIS/Include\core_cm0.h **** #define SysTick_CTRL_COUNTFLAG_Msk         (1UL << SysTick_CTRL_COUNTFLAG_Pos)            /*!< SysT
 459:C:/Users/Lenovo/workspace/dave_workspace/SOLAR_TOWER/Libraries/CMSIS/Include\core_cm0.h **** 
 460:C:/Users/Lenovo/workspace/dave_workspace/SOLAR_TOWER/Libraries/CMSIS/Include\core_cm0.h **** #define SysTick_CTRL_CLKSOURCE_Pos          2U                                            /*!< SysT
 461:C:/Users/Lenovo/workspace/dave_workspace/SOLAR_TOWER/Libraries/CMSIS/Include\core_cm0.h **** #define SysTick_CTRL_CLKSOURCE_Msk         (1UL << SysTick_CTRL_CLKSOURCE_Pos)            /*!< SysT
 462:C:/Users/Lenovo/workspace/dave_workspace/SOLAR_TOWER/Libraries/CMSIS/Include\core_cm0.h **** 
 463:C:/Users/Lenovo/workspace/dave_workspace/SOLAR_TOWER/Libraries/CMSIS/Include\core_cm0.h **** #define SysTick_CTRL_TICKINT_Pos            1U                                            /*!< SysT
 464:C:/Users/Lenovo/workspace/dave_workspace/SOLAR_TOWER/Libraries/CMSIS/Include\core_cm0.h **** #define SysTick_CTRL_TICKINT_Msk           (1UL << SysTick_CTRL_TICKINT_Pos)              /*!< SysT
 465:C:/Users/Lenovo/workspace/dave_workspace/SOLAR_TOWER/Libraries/CMSIS/Include\core_cm0.h **** 
 466:C:/Users/Lenovo/workspace/dave_workspace/SOLAR_TOWER/Libraries/CMSIS/Include\core_cm0.h **** #define SysTick_CTRL_ENABLE_Pos             0U                                            /*!< SysT
 467:C:/Users/Lenovo/workspace/dave_workspace/SOLAR_TOWER/Libraries/CMSIS/Include\core_cm0.h **** #define SysTick_CTRL_ENABLE_Msk            (1UL /*<< SysTick_CTRL_ENABLE_Pos*/)           /*!< SysT
 468:C:/Users/Lenovo/workspace/dave_workspace/SOLAR_TOWER/Libraries/CMSIS/Include\core_cm0.h **** 
 469:C:/Users/Lenovo/workspace/dave_workspace/SOLAR_TOWER/Libraries/CMSIS/Include\core_cm0.h **** /* SysTick Reload Register Definitions */
 470:C:/Users/Lenovo/workspace/dave_workspace/SOLAR_TOWER/Libraries/CMSIS/Include\core_cm0.h **** #define SysTick_LOAD_RELOAD_Pos             0U                                            /*!< SysT
 471:C:/Users/Lenovo/workspace/dave_workspace/SOLAR_TOWER/Libraries/CMSIS/Include\core_cm0.h **** #define SysTick_LOAD_RELOAD_Msk            (0xFFFFFFUL /*<< SysTick_LOAD_RELOAD_Pos*/)    /*!< SysT
 472:C:/Users/Lenovo/workspace/dave_workspace/SOLAR_TOWER/Libraries/CMSIS/Include\core_cm0.h **** 
 473:C:/Users/Lenovo/workspace/dave_workspace/SOLAR_TOWER/Libraries/CMSIS/Include\core_cm0.h **** /* SysTick Current Register Definitions */
 474:C:/Users/Lenovo/workspace/dave_workspace/SOLAR_TOWER/Libraries/CMSIS/Include\core_cm0.h **** #define SysTick_VAL_CURRENT_Pos             0U                                            /*!< SysT
 475:C:/Users/Lenovo/workspace/dave_workspace/SOLAR_TOWER/Libraries/CMSIS/Include\core_cm0.h **** #define SysTick_VAL_CURRENT_Msk            (0xFFFFFFUL /*<< SysTick_VAL_CURRENT_Pos*/)    /*!< SysT
 476:C:/Users/Lenovo/workspace/dave_workspace/SOLAR_TOWER/Libraries/CMSIS/Include\core_cm0.h **** 
 477:C:/Users/Lenovo/workspace/dave_workspace/SOLAR_TOWER/Libraries/CMSIS/Include\core_cm0.h **** /* SysTick Calibration Register Definitions */
 478:C:/Users/Lenovo/workspace/dave_workspace/SOLAR_TOWER/Libraries/CMSIS/Include\core_cm0.h **** #define SysTick_CALIB_NOREF_Pos            31U                                            /*!< SysT
 479:C:/Users/Lenovo/workspace/dave_workspace/SOLAR_TOWER/Libraries/CMSIS/Include\core_cm0.h **** #define SysTick_CALIB_NOREF_Msk            (1UL << SysTick_CALIB_NOREF_Pos)               /*!< SysT
 480:C:/Users/Lenovo/workspace/dave_workspace/SOLAR_TOWER/Libraries/CMSIS/Include\core_cm0.h **** 
 481:C:/Users/Lenovo/workspace/dave_workspace/SOLAR_TOWER/Libraries/CMSIS/Include\core_cm0.h **** #define SysTick_CALIB_SKEW_Pos             30U                                            /*!< SysT
 482:C:/Users/Lenovo/workspace/dave_workspace/SOLAR_TOWER/Libraries/CMSIS/Include\core_cm0.h **** #define SysTick_CALIB_SKEW_Msk             (1UL << SysTick_CALIB_SKEW_Pos)                /*!< SysT
 483:C:/Users/Lenovo/workspace/dave_workspace/SOLAR_TOWER/Libraries/CMSIS/Include\core_cm0.h **** 
 484:C:/Users/Lenovo/workspace/dave_workspace/SOLAR_TOWER/Libraries/CMSIS/Include\core_cm0.h **** #define SysTick_CALIB_TENMS_Pos             0U                                            /*!< SysT
 485:C:/Users/Lenovo/workspace/dave_workspace/SOLAR_TOWER/Libraries/CMSIS/Include\core_cm0.h **** #define SysTick_CALIB_TENMS_Msk            (0xFFFFFFUL /*<< SysTick_CALIB_TENMS_Pos*/)    /*!< SysT
 486:C:/Users/Lenovo/workspace/dave_workspace/SOLAR_TOWER/Libraries/CMSIS/Include\core_cm0.h **** 
 487:C:/Users/Lenovo/workspace/dave_workspace/SOLAR_TOWER/Libraries/CMSIS/Include\core_cm0.h **** /*@} end of group CMSIS_SysTick */
 488:C:/Users/Lenovo/workspace/dave_workspace/SOLAR_TOWER/Libraries/CMSIS/Include\core_cm0.h **** 
 489:C:/Users/Lenovo/workspace/dave_workspace/SOLAR_TOWER/Libraries/CMSIS/Include\core_cm0.h **** 
 490:C:/Users/Lenovo/workspace/dave_workspace/SOLAR_TOWER/Libraries/CMSIS/Include\core_cm0.h **** /**
 491:C:/Users/Lenovo/workspace/dave_workspace/SOLAR_TOWER/Libraries/CMSIS/Include\core_cm0.h ****   \ingroup  CMSIS_core_register
 492:C:/Users/Lenovo/workspace/dave_workspace/SOLAR_TOWER/Libraries/CMSIS/Include\core_cm0.h ****   \defgroup CMSIS_CoreDebug       Core Debug Registers (CoreDebug)
 493:C:/Users/Lenovo/workspace/dave_workspace/SOLAR_TOWER/Libraries/CMSIS/Include\core_cm0.h ****   \brief    Cortex-M0 Core Debug Registers (DCB registers, SHCSR, and DFSR) are only accessible ove
 494:C:/Users/Lenovo/workspace/dave_workspace/SOLAR_TOWER/Libraries/CMSIS/Include\core_cm0.h ****             Therefore they are not covered by the Cortex-M0 header file.
 495:C:/Users/Lenovo/workspace/dave_workspace/SOLAR_TOWER/Libraries/CMSIS/Include\core_cm0.h ****   @{
 496:C:/Users/Lenovo/workspace/dave_workspace/SOLAR_TOWER/Libraries/CMSIS/Include\core_cm0.h ****  */
 497:C:/Users/Lenovo/workspace/dave_workspace/SOLAR_TOWER/Libraries/CMSIS/Include\core_cm0.h **** /*@} end of group CMSIS_CoreDebug */
 498:C:/Users/Lenovo/workspace/dave_workspace/SOLAR_TOWER/Libraries/CMSIS/Include\core_cm0.h **** 
 499:C:/Users/Lenovo/workspace/dave_workspace/SOLAR_TOWER/Libraries/CMSIS/Include\core_cm0.h **** 
 500:C:/Users/Lenovo/workspace/dave_workspace/SOLAR_TOWER/Libraries/CMSIS/Include\core_cm0.h **** /**
 501:C:/Users/Lenovo/workspace/dave_workspace/SOLAR_TOWER/Libraries/CMSIS/Include\core_cm0.h ****   \ingroup    CMSIS_core_register
 502:C:/Users/Lenovo/workspace/dave_workspace/SOLAR_TOWER/Libraries/CMSIS/Include\core_cm0.h ****   \defgroup   CMSIS_core_bitfield     Core register bit field macros
 503:C:/Users/Lenovo/workspace/dave_workspace/SOLAR_TOWER/Libraries/CMSIS/Include\core_cm0.h ****   \brief      Macros for use with bit field definitions (xxx_Pos, xxx_Msk).
 504:C:/Users/Lenovo/workspace/dave_workspace/SOLAR_TOWER/Libraries/CMSIS/Include\core_cm0.h ****   @{
 505:C:/Users/Lenovo/workspace/dave_workspace/SOLAR_TOWER/Libraries/CMSIS/Include\core_cm0.h ****  */
 506:C:/Users/Lenovo/workspace/dave_workspace/SOLAR_TOWER/Libraries/CMSIS/Include\core_cm0.h **** 
 507:C:/Users/Lenovo/workspace/dave_workspace/SOLAR_TOWER/Libraries/CMSIS/Include\core_cm0.h **** /**
 508:C:/Users/Lenovo/workspace/dave_workspace/SOLAR_TOWER/Libraries/CMSIS/Include\core_cm0.h ****   \brief   Mask and shift a bit field value for use in a register bit range.
 509:C:/Users/Lenovo/workspace/dave_workspace/SOLAR_TOWER/Libraries/CMSIS/Include\core_cm0.h ****   \param[in] field  Name of the register bit field.
 510:C:/Users/Lenovo/workspace/dave_workspace/SOLAR_TOWER/Libraries/CMSIS/Include\core_cm0.h ****   \param[in] value  Value of the bit field. This parameter is interpreted as an uint32_t type.
 511:C:/Users/Lenovo/workspace/dave_workspace/SOLAR_TOWER/Libraries/CMSIS/Include\core_cm0.h ****   \return           Masked and shifted value.
 512:C:/Users/Lenovo/workspace/dave_workspace/SOLAR_TOWER/Libraries/CMSIS/Include\core_cm0.h **** */
 513:C:/Users/Lenovo/workspace/dave_workspace/SOLAR_TOWER/Libraries/CMSIS/Include\core_cm0.h **** #define _VAL2FLD(field, value)    (((uint32_t)(value) << field ## _Pos) & field ## _Msk)
 514:C:/Users/Lenovo/workspace/dave_workspace/SOLAR_TOWER/Libraries/CMSIS/Include\core_cm0.h **** 
 515:C:/Users/Lenovo/workspace/dave_workspace/SOLAR_TOWER/Libraries/CMSIS/Include\core_cm0.h **** /**
 516:C:/Users/Lenovo/workspace/dave_workspace/SOLAR_TOWER/Libraries/CMSIS/Include\core_cm0.h ****   \brief     Mask and shift a register value to extract a bit filed value.
 517:C:/Users/Lenovo/workspace/dave_workspace/SOLAR_TOWER/Libraries/CMSIS/Include\core_cm0.h ****   \param[in] field  Name of the register bit field.
 518:C:/Users/Lenovo/workspace/dave_workspace/SOLAR_TOWER/Libraries/CMSIS/Include\core_cm0.h ****   \param[in] value  Value of register. This parameter is interpreted as an uint32_t type.
 519:C:/Users/Lenovo/workspace/dave_workspace/SOLAR_TOWER/Libraries/CMSIS/Include\core_cm0.h ****   \return           Masked and shifted bit field value.
 520:C:/Users/Lenovo/workspace/dave_workspace/SOLAR_TOWER/Libraries/CMSIS/Include\core_cm0.h **** */
 521:C:/Users/Lenovo/workspace/dave_workspace/SOLAR_TOWER/Libraries/CMSIS/Include\core_cm0.h **** #define _FLD2VAL(field, value)    (((uint32_t)(value) & field ## _Msk) >> field ## _Pos)
 522:C:/Users/Lenovo/workspace/dave_workspace/SOLAR_TOWER/Libraries/CMSIS/Include\core_cm0.h **** 
 523:C:/Users/Lenovo/workspace/dave_workspace/SOLAR_TOWER/Libraries/CMSIS/Include\core_cm0.h **** /*@} end of group CMSIS_core_bitfield */
 524:C:/Users/Lenovo/workspace/dave_workspace/SOLAR_TOWER/Libraries/CMSIS/Include\core_cm0.h **** 
 525:C:/Users/Lenovo/workspace/dave_workspace/SOLAR_TOWER/Libraries/CMSIS/Include\core_cm0.h **** 
 526:C:/Users/Lenovo/workspace/dave_workspace/SOLAR_TOWER/Libraries/CMSIS/Include\core_cm0.h **** /**
 527:C:/Users/Lenovo/workspace/dave_workspace/SOLAR_TOWER/Libraries/CMSIS/Include\core_cm0.h ****   \ingroup    CMSIS_core_register
 528:C:/Users/Lenovo/workspace/dave_workspace/SOLAR_TOWER/Libraries/CMSIS/Include\core_cm0.h ****   \defgroup   CMSIS_core_base     Core Definitions
 529:C:/Users/Lenovo/workspace/dave_workspace/SOLAR_TOWER/Libraries/CMSIS/Include\core_cm0.h ****   \brief      Definitions for base addresses, unions, and structures.
 530:C:/Users/Lenovo/workspace/dave_workspace/SOLAR_TOWER/Libraries/CMSIS/Include\core_cm0.h ****   @{
 531:C:/Users/Lenovo/workspace/dave_workspace/SOLAR_TOWER/Libraries/CMSIS/Include\core_cm0.h ****  */
 532:C:/Users/Lenovo/workspace/dave_workspace/SOLAR_TOWER/Libraries/CMSIS/Include\core_cm0.h **** 
 533:C:/Users/Lenovo/workspace/dave_workspace/SOLAR_TOWER/Libraries/CMSIS/Include\core_cm0.h **** /* Memory mapping of Core Hardware */
 534:C:/Users/Lenovo/workspace/dave_workspace/SOLAR_TOWER/Libraries/CMSIS/Include\core_cm0.h **** #define SCS_BASE            (0xE000E000UL)                            /*!< System Control Space Bas
 535:C:/Users/Lenovo/workspace/dave_workspace/SOLAR_TOWER/Libraries/CMSIS/Include\core_cm0.h **** #define SysTick_BASE        (SCS_BASE +  0x0010UL)                    /*!< SysTick Base Address */
 536:C:/Users/Lenovo/workspace/dave_workspace/SOLAR_TOWER/Libraries/CMSIS/Include\core_cm0.h **** #define NVIC_BASE           (SCS_BASE +  0x0100UL)                    /*!< NVIC Base Address */
 537:C:/Users/Lenovo/workspace/dave_workspace/SOLAR_TOWER/Libraries/CMSIS/Include\core_cm0.h **** #define SCB_BASE            (SCS_BASE +  0x0D00UL)                    /*!< System Control Block Bas
 538:C:/Users/Lenovo/workspace/dave_workspace/SOLAR_TOWER/Libraries/CMSIS/Include\core_cm0.h **** 
 539:C:/Users/Lenovo/workspace/dave_workspace/SOLAR_TOWER/Libraries/CMSIS/Include\core_cm0.h **** #define SCB                 ((SCB_Type       *)     SCB_BASE      )   /*!< SCB configuration struct
 540:C:/Users/Lenovo/workspace/dave_workspace/SOLAR_TOWER/Libraries/CMSIS/Include\core_cm0.h **** #define SysTick             ((SysTick_Type   *)     SysTick_BASE  )   /*!< SysTick configuration st
 541:C:/Users/Lenovo/workspace/dave_workspace/SOLAR_TOWER/Libraries/CMSIS/Include\core_cm0.h **** #define NVIC                ((NVIC_Type      *)     NVIC_BASE     )   /*!< NVIC configuration struc
 542:C:/Users/Lenovo/workspace/dave_workspace/SOLAR_TOWER/Libraries/CMSIS/Include\core_cm0.h **** 
 543:C:/Users/Lenovo/workspace/dave_workspace/SOLAR_TOWER/Libraries/CMSIS/Include\core_cm0.h **** 
 544:C:/Users/Lenovo/workspace/dave_workspace/SOLAR_TOWER/Libraries/CMSIS/Include\core_cm0.h **** /*@} */
 545:C:/Users/Lenovo/workspace/dave_workspace/SOLAR_TOWER/Libraries/CMSIS/Include\core_cm0.h **** 
 546:C:/Users/Lenovo/workspace/dave_workspace/SOLAR_TOWER/Libraries/CMSIS/Include\core_cm0.h **** 
 547:C:/Users/Lenovo/workspace/dave_workspace/SOLAR_TOWER/Libraries/CMSIS/Include\core_cm0.h **** 
 548:C:/Users/Lenovo/workspace/dave_workspace/SOLAR_TOWER/Libraries/CMSIS/Include\core_cm0.h **** /*******************************************************************************
 549:C:/Users/Lenovo/workspace/dave_workspace/SOLAR_TOWER/Libraries/CMSIS/Include\core_cm0.h ****  *                Hardware Abstraction Layer
 550:C:/Users/Lenovo/workspace/dave_workspace/SOLAR_TOWER/Libraries/CMSIS/Include\core_cm0.h ****   Core Function Interface contains:
 551:C:/Users/Lenovo/workspace/dave_workspace/SOLAR_TOWER/Libraries/CMSIS/Include\core_cm0.h ****   - Core NVIC Functions
 552:C:/Users/Lenovo/workspace/dave_workspace/SOLAR_TOWER/Libraries/CMSIS/Include\core_cm0.h ****   - Core SysTick Functions
 553:C:/Users/Lenovo/workspace/dave_workspace/SOLAR_TOWER/Libraries/CMSIS/Include\core_cm0.h ****   - Core Register Access Functions
 554:C:/Users/Lenovo/workspace/dave_workspace/SOLAR_TOWER/Libraries/CMSIS/Include\core_cm0.h ****  ******************************************************************************/
 555:C:/Users/Lenovo/workspace/dave_workspace/SOLAR_TOWER/Libraries/CMSIS/Include\core_cm0.h **** /**
 556:C:/Users/Lenovo/workspace/dave_workspace/SOLAR_TOWER/Libraries/CMSIS/Include\core_cm0.h ****   \defgroup CMSIS_Core_FunctionInterface Functions and Instructions Reference
 557:C:/Users/Lenovo/workspace/dave_workspace/SOLAR_TOWER/Libraries/CMSIS/Include\core_cm0.h **** */
 558:C:/Users/Lenovo/workspace/dave_workspace/SOLAR_TOWER/Libraries/CMSIS/Include\core_cm0.h **** 
 559:C:/Users/Lenovo/workspace/dave_workspace/SOLAR_TOWER/Libraries/CMSIS/Include\core_cm0.h **** 
 560:C:/Users/Lenovo/workspace/dave_workspace/SOLAR_TOWER/Libraries/CMSIS/Include\core_cm0.h **** 
 561:C:/Users/Lenovo/workspace/dave_workspace/SOLAR_TOWER/Libraries/CMSIS/Include\core_cm0.h **** /* ##########################   NVIC functions  #################################### */
 562:C:/Users/Lenovo/workspace/dave_workspace/SOLAR_TOWER/Libraries/CMSIS/Include\core_cm0.h **** /**
 563:C:/Users/Lenovo/workspace/dave_workspace/SOLAR_TOWER/Libraries/CMSIS/Include\core_cm0.h ****   \ingroup  CMSIS_Core_FunctionInterface
 564:C:/Users/Lenovo/workspace/dave_workspace/SOLAR_TOWER/Libraries/CMSIS/Include\core_cm0.h ****   \defgroup CMSIS_Core_NVICFunctions NVIC Functions
 565:C:/Users/Lenovo/workspace/dave_workspace/SOLAR_TOWER/Libraries/CMSIS/Include\core_cm0.h ****   \brief    Functions that manage interrupts and exceptions via the NVIC.
 566:C:/Users/Lenovo/workspace/dave_workspace/SOLAR_TOWER/Libraries/CMSIS/Include\core_cm0.h ****   @{
 567:C:/Users/Lenovo/workspace/dave_workspace/SOLAR_TOWER/Libraries/CMSIS/Include\core_cm0.h ****  */
 568:C:/Users/Lenovo/workspace/dave_workspace/SOLAR_TOWER/Libraries/CMSIS/Include\core_cm0.h **** 
 569:C:/Users/Lenovo/workspace/dave_workspace/SOLAR_TOWER/Libraries/CMSIS/Include\core_cm0.h **** #ifdef CMSIS_NVIC_VIRTUAL
 570:C:/Users/Lenovo/workspace/dave_workspace/SOLAR_TOWER/Libraries/CMSIS/Include\core_cm0.h ****   #ifndef CMSIS_NVIC_VIRTUAL_HEADER_FILE
 571:C:/Users/Lenovo/workspace/dave_workspace/SOLAR_TOWER/Libraries/CMSIS/Include\core_cm0.h ****     #define CMSIS_NVIC_VIRTUAL_HEADER_FILE "cmsis_nvic_virtual.h"
 572:C:/Users/Lenovo/workspace/dave_workspace/SOLAR_TOWER/Libraries/CMSIS/Include\core_cm0.h ****   #endif
 573:C:/Users/Lenovo/workspace/dave_workspace/SOLAR_TOWER/Libraries/CMSIS/Include\core_cm0.h ****   #include CMSIS_NVIC_VIRTUAL_HEADER_FILE
 574:C:/Users/Lenovo/workspace/dave_workspace/SOLAR_TOWER/Libraries/CMSIS/Include\core_cm0.h **** #else
 575:C:/Users/Lenovo/workspace/dave_workspace/SOLAR_TOWER/Libraries/CMSIS/Include\core_cm0.h **** /*#define NVIC_SetPriorityGrouping    __NVIC_SetPriorityGrouping   not available for Cortex-M0 */
 576:C:/Users/Lenovo/workspace/dave_workspace/SOLAR_TOWER/Libraries/CMSIS/Include\core_cm0.h **** /*#define NVIC_GetPriorityGrouping    __NVIC_GetPriorityGrouping   not available for Cortex-M0 */
 577:C:/Users/Lenovo/workspace/dave_workspace/SOLAR_TOWER/Libraries/CMSIS/Include\core_cm0.h ****   #define NVIC_EnableIRQ              __NVIC_EnableIRQ
 578:C:/Users/Lenovo/workspace/dave_workspace/SOLAR_TOWER/Libraries/CMSIS/Include\core_cm0.h ****   #define NVIC_GetEnableIRQ           __NVIC_GetEnableIRQ
 579:C:/Users/Lenovo/workspace/dave_workspace/SOLAR_TOWER/Libraries/CMSIS/Include\core_cm0.h ****   #define NVIC_DisableIRQ             __NVIC_DisableIRQ
 580:C:/Users/Lenovo/workspace/dave_workspace/SOLAR_TOWER/Libraries/CMSIS/Include\core_cm0.h ****   #define NVIC_GetPendingIRQ          __NVIC_GetPendingIRQ
 581:C:/Users/Lenovo/workspace/dave_workspace/SOLAR_TOWER/Libraries/CMSIS/Include\core_cm0.h ****   #define NVIC_SetPendingIRQ          __NVIC_SetPendingIRQ
 582:C:/Users/Lenovo/workspace/dave_workspace/SOLAR_TOWER/Libraries/CMSIS/Include\core_cm0.h ****   #define NVIC_ClearPendingIRQ        __NVIC_ClearPendingIRQ
 583:C:/Users/Lenovo/workspace/dave_workspace/SOLAR_TOWER/Libraries/CMSIS/Include\core_cm0.h **** /*#define NVIC_GetActive              __NVIC_GetActive             not available for Cortex-M0 */
 584:C:/Users/Lenovo/workspace/dave_workspace/SOLAR_TOWER/Libraries/CMSIS/Include\core_cm0.h ****   #define NVIC_SetPriority            __NVIC_SetPriority
 585:C:/Users/Lenovo/workspace/dave_workspace/SOLAR_TOWER/Libraries/CMSIS/Include\core_cm0.h ****   #define NVIC_GetPriority            __NVIC_GetPriority
 586:C:/Users/Lenovo/workspace/dave_workspace/SOLAR_TOWER/Libraries/CMSIS/Include\core_cm0.h ****   #define NVIC_SystemReset            __NVIC_SystemReset
 587:C:/Users/Lenovo/workspace/dave_workspace/SOLAR_TOWER/Libraries/CMSIS/Include\core_cm0.h **** #endif /* CMSIS_NVIC_VIRTUAL */
 588:C:/Users/Lenovo/workspace/dave_workspace/SOLAR_TOWER/Libraries/CMSIS/Include\core_cm0.h **** 
 589:C:/Users/Lenovo/workspace/dave_workspace/SOLAR_TOWER/Libraries/CMSIS/Include\core_cm0.h **** #ifdef CMSIS_VECTAB_VIRTUAL
 590:C:/Users/Lenovo/workspace/dave_workspace/SOLAR_TOWER/Libraries/CMSIS/Include\core_cm0.h ****   #ifndef CMSIS_VECTAB_VIRTUAL_HEADER_FILE
 591:C:/Users/Lenovo/workspace/dave_workspace/SOLAR_TOWER/Libraries/CMSIS/Include\core_cm0.h ****     #define CMSIS_VECTAB_VIRTUAL_HEADER_FILE "cmsis_vectab_virtual.h"
 592:C:/Users/Lenovo/workspace/dave_workspace/SOLAR_TOWER/Libraries/CMSIS/Include\core_cm0.h ****   #endif
 593:C:/Users/Lenovo/workspace/dave_workspace/SOLAR_TOWER/Libraries/CMSIS/Include\core_cm0.h ****   #include CMSIS_VECTAB_VIRTUAL_HEADER_FILE
 594:C:/Users/Lenovo/workspace/dave_workspace/SOLAR_TOWER/Libraries/CMSIS/Include\core_cm0.h **** #else
 595:C:/Users/Lenovo/workspace/dave_workspace/SOLAR_TOWER/Libraries/CMSIS/Include\core_cm0.h ****   #define NVIC_SetVector              __NVIC_SetVector
 596:C:/Users/Lenovo/workspace/dave_workspace/SOLAR_TOWER/Libraries/CMSIS/Include\core_cm0.h ****   #define NVIC_GetVector              __NVIC_GetVector
 597:C:/Users/Lenovo/workspace/dave_workspace/SOLAR_TOWER/Libraries/CMSIS/Include\core_cm0.h **** #endif  /* (CMSIS_VECTAB_VIRTUAL) */
 598:C:/Users/Lenovo/workspace/dave_workspace/SOLAR_TOWER/Libraries/CMSIS/Include\core_cm0.h **** 
 599:C:/Users/Lenovo/workspace/dave_workspace/SOLAR_TOWER/Libraries/CMSIS/Include\core_cm0.h **** #define NVIC_USER_IRQ_OFFSET          16
 600:C:/Users/Lenovo/workspace/dave_workspace/SOLAR_TOWER/Libraries/CMSIS/Include\core_cm0.h **** 
 601:C:/Users/Lenovo/workspace/dave_workspace/SOLAR_TOWER/Libraries/CMSIS/Include\core_cm0.h **** 
 602:C:/Users/Lenovo/workspace/dave_workspace/SOLAR_TOWER/Libraries/CMSIS/Include\core_cm0.h **** /* Interrupt Priorities are WORD accessible only under ARMv6M                   */
 603:C:/Users/Lenovo/workspace/dave_workspace/SOLAR_TOWER/Libraries/CMSIS/Include\core_cm0.h **** /* The following MACROS handle generation of the register offset and byte masks */
 604:C:/Users/Lenovo/workspace/dave_workspace/SOLAR_TOWER/Libraries/CMSIS/Include\core_cm0.h **** #define _BIT_SHIFT(IRQn)         (  ((((uint32_t)(int32_t)(IRQn))         )      &  0x03UL) * 8UL)
 605:C:/Users/Lenovo/workspace/dave_workspace/SOLAR_TOWER/Libraries/CMSIS/Include\core_cm0.h **** #define _SHP_IDX(IRQn)           ( (((((uint32_t)(int32_t)(IRQn)) & 0x0FUL)-8UL) >>    2UL)      )
 606:C:/Users/Lenovo/workspace/dave_workspace/SOLAR_TOWER/Libraries/CMSIS/Include\core_cm0.h **** #define _IP_IDX(IRQn)            (   (((uint32_t)(int32_t)(IRQn))                >>    2UL)      )
 607:C:/Users/Lenovo/workspace/dave_workspace/SOLAR_TOWER/Libraries/CMSIS/Include\core_cm0.h **** 
 608:C:/Users/Lenovo/workspace/dave_workspace/SOLAR_TOWER/Libraries/CMSIS/Include\core_cm0.h **** 
 609:C:/Users/Lenovo/workspace/dave_workspace/SOLAR_TOWER/Libraries/CMSIS/Include\core_cm0.h **** /**
 610:C:/Users/Lenovo/workspace/dave_workspace/SOLAR_TOWER/Libraries/CMSIS/Include\core_cm0.h ****   \brief   Enable Interrupt
 611:C:/Users/Lenovo/workspace/dave_workspace/SOLAR_TOWER/Libraries/CMSIS/Include\core_cm0.h ****   \details Enables a device specific interrupt in the NVIC interrupt controller.
 612:C:/Users/Lenovo/workspace/dave_workspace/SOLAR_TOWER/Libraries/CMSIS/Include\core_cm0.h ****   \param [in]      IRQn  Device specific interrupt number.
 613:C:/Users/Lenovo/workspace/dave_workspace/SOLAR_TOWER/Libraries/CMSIS/Include\core_cm0.h ****   \note    IRQn must not be negative.
 614:C:/Users/Lenovo/workspace/dave_workspace/SOLAR_TOWER/Libraries/CMSIS/Include\core_cm0.h ****  */
 615:C:/Users/Lenovo/workspace/dave_workspace/SOLAR_TOWER/Libraries/CMSIS/Include\core_cm0.h **** __STATIC_INLINE void __NVIC_EnableIRQ(IRQn_Type IRQn)
 616:C:/Users/Lenovo/workspace/dave_workspace/SOLAR_TOWER/Libraries/CMSIS/Include\core_cm0.h **** {
  25              	 .loc 1 616 0
  26              	 .cfi_startproc
  27 0000 80B5     	 push {r7,lr}
  28              	.LCFI0:
  29              	 .cfi_def_cfa_offset 8
  30              	 .cfi_offset 7,-8
  31              	 .cfi_offset 14,-4
  32 0002 82B0     	 sub sp,sp,#8
  33              	.LCFI1:
  34              	 .cfi_def_cfa_offset 16
  35 0004 00AF     	 add r7,sp,#0
  36              	.LCFI2:
  37              	 .cfi_def_cfa_register 7
  38 0006 021C     	 mov r2,r0
  39 0008 FB1D     	 add r3,r7,#7
  40 000a 1A70     	 strb r2,[r3]
 617:C:/Users/Lenovo/workspace/dave_workspace/SOLAR_TOWER/Libraries/CMSIS/Include\core_cm0.h ****   if ((int32_t)(IRQn) >= 0)
  41              	 .loc 1 617 0
  42 000c FB1D     	 add r3,r7,#7
  43 000e 1B78     	 ldrb r3,[r3]
  44 0010 7F2B     	 cmp r3,#127
  45 0012 09D8     	 bhi .L1
 618:C:/Users/Lenovo/workspace/dave_workspace/SOLAR_TOWER/Libraries/CMSIS/Include\core_cm0.h ****   {
 619:C:/Users/Lenovo/workspace/dave_workspace/SOLAR_TOWER/Libraries/CMSIS/Include\core_cm0.h ****     NVIC->ISER[0U] = (uint32_t)(1UL << (((uint32_t)(int32_t)IRQn) & 0x1FUL));
  46              	 .loc 1 619 0
  47 0014 064B     	 ldr r3,.L3
  48 0016 FA1D     	 add r2,r7,#7
  49 0018 1278     	 ldrb r2,[r2]
  50 001a 111C     	 mov r1,r2
  51 001c 1F22     	 mov r2,#31
  52 001e 0A40     	 and r2,r1
  53 0020 0121     	 mov r1,#1
  54 0022 9140     	 lsl r1,r1,r2
  55 0024 0A1C     	 mov r2,r1
  56 0026 1A60     	 str r2,[r3]
  57              	.L1:
 620:C:/Users/Lenovo/workspace/dave_workspace/SOLAR_TOWER/Libraries/CMSIS/Include\core_cm0.h ****   }
 621:C:/Users/Lenovo/workspace/dave_workspace/SOLAR_TOWER/Libraries/CMSIS/Include\core_cm0.h **** }
  58              	 .loc 1 621 0
  59 0028 BD46     	 mov sp,r7
  60 002a 02B0     	 add sp,sp,#8
  61              	 
  62 002c 80BD     	 pop {r7,pc}
  63              	.L4:
  64 002e C046     	 .align 2
  65              	.L3:
  66 0030 00E100E0 	 .word -536813312
  67              	 .cfi_endproc
  68              	.LFE23:
  70              	 .section .text.__NVIC_SetPriority,"ax",%progbits
  71              	 .align 2
  72              	 .code 16
  73              	 .thumb_func
  75              	__NVIC_SetPriority:
  76              	.LFB29:
 622:C:/Users/Lenovo/workspace/dave_workspace/SOLAR_TOWER/Libraries/CMSIS/Include\core_cm0.h **** 
 623:C:/Users/Lenovo/workspace/dave_workspace/SOLAR_TOWER/Libraries/CMSIS/Include\core_cm0.h **** 
 624:C:/Users/Lenovo/workspace/dave_workspace/SOLAR_TOWER/Libraries/CMSIS/Include\core_cm0.h **** /**
 625:C:/Users/Lenovo/workspace/dave_workspace/SOLAR_TOWER/Libraries/CMSIS/Include\core_cm0.h ****   \brief   Get Interrupt Enable status
 626:C:/Users/Lenovo/workspace/dave_workspace/SOLAR_TOWER/Libraries/CMSIS/Include\core_cm0.h ****   \details Returns a device specific interrupt enable status from the NVIC interrupt controller.
 627:C:/Users/Lenovo/workspace/dave_workspace/SOLAR_TOWER/Libraries/CMSIS/Include\core_cm0.h ****   \param [in]      IRQn  Device specific interrupt number.
 628:C:/Users/Lenovo/workspace/dave_workspace/SOLAR_TOWER/Libraries/CMSIS/Include\core_cm0.h ****   \return             0  Interrupt is not enabled.
 629:C:/Users/Lenovo/workspace/dave_workspace/SOLAR_TOWER/Libraries/CMSIS/Include\core_cm0.h ****   \return             1  Interrupt is enabled.
 630:C:/Users/Lenovo/workspace/dave_workspace/SOLAR_TOWER/Libraries/CMSIS/Include\core_cm0.h ****   \note    IRQn must not be negative.
 631:C:/Users/Lenovo/workspace/dave_workspace/SOLAR_TOWER/Libraries/CMSIS/Include\core_cm0.h ****  */
 632:C:/Users/Lenovo/workspace/dave_workspace/SOLAR_TOWER/Libraries/CMSIS/Include\core_cm0.h **** __STATIC_INLINE uint32_t __NVIC_GetEnableIRQ(IRQn_Type IRQn)
 633:C:/Users/Lenovo/workspace/dave_workspace/SOLAR_TOWER/Libraries/CMSIS/Include\core_cm0.h **** {
 634:C:/Users/Lenovo/workspace/dave_workspace/SOLAR_TOWER/Libraries/CMSIS/Include\core_cm0.h ****   if ((int32_t)(IRQn) >= 0)
 635:C:/Users/Lenovo/workspace/dave_workspace/SOLAR_TOWER/Libraries/CMSIS/Include\core_cm0.h ****   {
 636:C:/Users/Lenovo/workspace/dave_workspace/SOLAR_TOWER/Libraries/CMSIS/Include\core_cm0.h ****     return((uint32_t)(((NVIC->ISER[0U] & (1UL << (((uint32_t)(int32_t)IRQn) & 0x1FUL))) != 0UL) ? 1
 637:C:/Users/Lenovo/workspace/dave_workspace/SOLAR_TOWER/Libraries/CMSIS/Include\core_cm0.h ****   }
 638:C:/Users/Lenovo/workspace/dave_workspace/SOLAR_TOWER/Libraries/CMSIS/Include\core_cm0.h ****   else
 639:C:/Users/Lenovo/workspace/dave_workspace/SOLAR_TOWER/Libraries/CMSIS/Include\core_cm0.h ****   {
 640:C:/Users/Lenovo/workspace/dave_workspace/SOLAR_TOWER/Libraries/CMSIS/Include\core_cm0.h ****     return(0U);
 641:C:/Users/Lenovo/workspace/dave_workspace/SOLAR_TOWER/Libraries/CMSIS/Include\core_cm0.h ****   }
 642:C:/Users/Lenovo/workspace/dave_workspace/SOLAR_TOWER/Libraries/CMSIS/Include\core_cm0.h **** }
 643:C:/Users/Lenovo/workspace/dave_workspace/SOLAR_TOWER/Libraries/CMSIS/Include\core_cm0.h **** 
 644:C:/Users/Lenovo/workspace/dave_workspace/SOLAR_TOWER/Libraries/CMSIS/Include\core_cm0.h **** 
 645:C:/Users/Lenovo/workspace/dave_workspace/SOLAR_TOWER/Libraries/CMSIS/Include\core_cm0.h **** /**
 646:C:/Users/Lenovo/workspace/dave_workspace/SOLAR_TOWER/Libraries/CMSIS/Include\core_cm0.h ****   \brief   Disable Interrupt
 647:C:/Users/Lenovo/workspace/dave_workspace/SOLAR_TOWER/Libraries/CMSIS/Include\core_cm0.h ****   \details Disables a device specific interrupt in the NVIC interrupt controller.
 648:C:/Users/Lenovo/workspace/dave_workspace/SOLAR_TOWER/Libraries/CMSIS/Include\core_cm0.h ****   \param [in]      IRQn  Device specific interrupt number.
 649:C:/Users/Lenovo/workspace/dave_workspace/SOLAR_TOWER/Libraries/CMSIS/Include\core_cm0.h ****   \note    IRQn must not be negative.
 650:C:/Users/Lenovo/workspace/dave_workspace/SOLAR_TOWER/Libraries/CMSIS/Include\core_cm0.h ****  */
 651:C:/Users/Lenovo/workspace/dave_workspace/SOLAR_TOWER/Libraries/CMSIS/Include\core_cm0.h **** __STATIC_INLINE void __NVIC_DisableIRQ(IRQn_Type IRQn)
 652:C:/Users/Lenovo/workspace/dave_workspace/SOLAR_TOWER/Libraries/CMSIS/Include\core_cm0.h **** {
 653:C:/Users/Lenovo/workspace/dave_workspace/SOLAR_TOWER/Libraries/CMSIS/Include\core_cm0.h ****   if ((int32_t)(IRQn) >= 0)
 654:C:/Users/Lenovo/workspace/dave_workspace/SOLAR_TOWER/Libraries/CMSIS/Include\core_cm0.h ****   {
 655:C:/Users/Lenovo/workspace/dave_workspace/SOLAR_TOWER/Libraries/CMSIS/Include\core_cm0.h ****     NVIC->ICER[0U] = (uint32_t)(1UL << (((uint32_t)(int32_t)IRQn) & 0x1FUL));
 656:C:/Users/Lenovo/workspace/dave_workspace/SOLAR_TOWER/Libraries/CMSIS/Include\core_cm0.h ****     __DSB();
 657:C:/Users/Lenovo/workspace/dave_workspace/SOLAR_TOWER/Libraries/CMSIS/Include\core_cm0.h ****     __ISB();
 658:C:/Users/Lenovo/workspace/dave_workspace/SOLAR_TOWER/Libraries/CMSIS/Include\core_cm0.h ****   }
 659:C:/Users/Lenovo/workspace/dave_workspace/SOLAR_TOWER/Libraries/CMSIS/Include\core_cm0.h **** }
 660:C:/Users/Lenovo/workspace/dave_workspace/SOLAR_TOWER/Libraries/CMSIS/Include\core_cm0.h **** 
 661:C:/Users/Lenovo/workspace/dave_workspace/SOLAR_TOWER/Libraries/CMSIS/Include\core_cm0.h **** 
 662:C:/Users/Lenovo/workspace/dave_workspace/SOLAR_TOWER/Libraries/CMSIS/Include\core_cm0.h **** /**
 663:C:/Users/Lenovo/workspace/dave_workspace/SOLAR_TOWER/Libraries/CMSIS/Include\core_cm0.h ****   \brief   Get Pending Interrupt
 664:C:/Users/Lenovo/workspace/dave_workspace/SOLAR_TOWER/Libraries/CMSIS/Include\core_cm0.h ****   \details Reads the NVIC pending register and returns the pending bit for the specified device spe
 665:C:/Users/Lenovo/workspace/dave_workspace/SOLAR_TOWER/Libraries/CMSIS/Include\core_cm0.h ****   \param [in]      IRQn  Device specific interrupt number.
 666:C:/Users/Lenovo/workspace/dave_workspace/SOLAR_TOWER/Libraries/CMSIS/Include\core_cm0.h ****   \return             0  Interrupt status is not pending.
 667:C:/Users/Lenovo/workspace/dave_workspace/SOLAR_TOWER/Libraries/CMSIS/Include\core_cm0.h ****   \return             1  Interrupt status is pending.
 668:C:/Users/Lenovo/workspace/dave_workspace/SOLAR_TOWER/Libraries/CMSIS/Include\core_cm0.h ****   \note    IRQn must not be negative.
 669:C:/Users/Lenovo/workspace/dave_workspace/SOLAR_TOWER/Libraries/CMSIS/Include\core_cm0.h ****  */
 670:C:/Users/Lenovo/workspace/dave_workspace/SOLAR_TOWER/Libraries/CMSIS/Include\core_cm0.h **** __STATIC_INLINE uint32_t __NVIC_GetPendingIRQ(IRQn_Type IRQn)
 671:C:/Users/Lenovo/workspace/dave_workspace/SOLAR_TOWER/Libraries/CMSIS/Include\core_cm0.h **** {
 672:C:/Users/Lenovo/workspace/dave_workspace/SOLAR_TOWER/Libraries/CMSIS/Include\core_cm0.h ****   if ((int32_t)(IRQn) >= 0)
 673:C:/Users/Lenovo/workspace/dave_workspace/SOLAR_TOWER/Libraries/CMSIS/Include\core_cm0.h ****   {
 674:C:/Users/Lenovo/workspace/dave_workspace/SOLAR_TOWER/Libraries/CMSIS/Include\core_cm0.h ****     return((uint32_t)(((NVIC->ISPR[0U] & (1UL << (((uint32_t)(int32_t)IRQn) & 0x1FUL))) != 0UL) ? 1
 675:C:/Users/Lenovo/workspace/dave_workspace/SOLAR_TOWER/Libraries/CMSIS/Include\core_cm0.h ****   }
 676:C:/Users/Lenovo/workspace/dave_workspace/SOLAR_TOWER/Libraries/CMSIS/Include\core_cm0.h ****   else
 677:C:/Users/Lenovo/workspace/dave_workspace/SOLAR_TOWER/Libraries/CMSIS/Include\core_cm0.h ****   {
 678:C:/Users/Lenovo/workspace/dave_workspace/SOLAR_TOWER/Libraries/CMSIS/Include\core_cm0.h ****     return(0U);
 679:C:/Users/Lenovo/workspace/dave_workspace/SOLAR_TOWER/Libraries/CMSIS/Include\core_cm0.h ****   }
 680:C:/Users/Lenovo/workspace/dave_workspace/SOLAR_TOWER/Libraries/CMSIS/Include\core_cm0.h **** }
 681:C:/Users/Lenovo/workspace/dave_workspace/SOLAR_TOWER/Libraries/CMSIS/Include\core_cm0.h **** 
 682:C:/Users/Lenovo/workspace/dave_workspace/SOLAR_TOWER/Libraries/CMSIS/Include\core_cm0.h **** 
 683:C:/Users/Lenovo/workspace/dave_workspace/SOLAR_TOWER/Libraries/CMSIS/Include\core_cm0.h **** /**
 684:C:/Users/Lenovo/workspace/dave_workspace/SOLAR_TOWER/Libraries/CMSIS/Include\core_cm0.h ****   \brief   Set Pending Interrupt
 685:C:/Users/Lenovo/workspace/dave_workspace/SOLAR_TOWER/Libraries/CMSIS/Include\core_cm0.h ****   \details Sets the pending bit of a device specific interrupt in the NVIC pending register.
 686:C:/Users/Lenovo/workspace/dave_workspace/SOLAR_TOWER/Libraries/CMSIS/Include\core_cm0.h ****   \param [in]      IRQn  Device specific interrupt number.
 687:C:/Users/Lenovo/workspace/dave_workspace/SOLAR_TOWER/Libraries/CMSIS/Include\core_cm0.h ****   \note    IRQn must not be negative.
 688:C:/Users/Lenovo/workspace/dave_workspace/SOLAR_TOWER/Libraries/CMSIS/Include\core_cm0.h ****  */
 689:C:/Users/Lenovo/workspace/dave_workspace/SOLAR_TOWER/Libraries/CMSIS/Include\core_cm0.h **** __STATIC_INLINE void __NVIC_SetPendingIRQ(IRQn_Type IRQn)
 690:C:/Users/Lenovo/workspace/dave_workspace/SOLAR_TOWER/Libraries/CMSIS/Include\core_cm0.h **** {
 691:C:/Users/Lenovo/workspace/dave_workspace/SOLAR_TOWER/Libraries/CMSIS/Include\core_cm0.h ****   if ((int32_t)(IRQn) >= 0)
 692:C:/Users/Lenovo/workspace/dave_workspace/SOLAR_TOWER/Libraries/CMSIS/Include\core_cm0.h ****   {
 693:C:/Users/Lenovo/workspace/dave_workspace/SOLAR_TOWER/Libraries/CMSIS/Include\core_cm0.h ****     NVIC->ISPR[0U] = (uint32_t)(1UL << (((uint32_t)(int32_t)IRQn) & 0x1FUL));
 694:C:/Users/Lenovo/workspace/dave_workspace/SOLAR_TOWER/Libraries/CMSIS/Include\core_cm0.h ****   }
 695:C:/Users/Lenovo/workspace/dave_workspace/SOLAR_TOWER/Libraries/CMSIS/Include\core_cm0.h **** }
 696:C:/Users/Lenovo/workspace/dave_workspace/SOLAR_TOWER/Libraries/CMSIS/Include\core_cm0.h **** 
 697:C:/Users/Lenovo/workspace/dave_workspace/SOLAR_TOWER/Libraries/CMSIS/Include\core_cm0.h **** 
 698:C:/Users/Lenovo/workspace/dave_workspace/SOLAR_TOWER/Libraries/CMSIS/Include\core_cm0.h **** /**
 699:C:/Users/Lenovo/workspace/dave_workspace/SOLAR_TOWER/Libraries/CMSIS/Include\core_cm0.h ****   \brief   Clear Pending Interrupt
 700:C:/Users/Lenovo/workspace/dave_workspace/SOLAR_TOWER/Libraries/CMSIS/Include\core_cm0.h ****   \details Clears the pending bit of a device specific interrupt in the NVIC pending register.
 701:C:/Users/Lenovo/workspace/dave_workspace/SOLAR_TOWER/Libraries/CMSIS/Include\core_cm0.h ****   \param [in]      IRQn  Device specific interrupt number.
 702:C:/Users/Lenovo/workspace/dave_workspace/SOLAR_TOWER/Libraries/CMSIS/Include\core_cm0.h ****   \note    IRQn must not be negative.
 703:C:/Users/Lenovo/workspace/dave_workspace/SOLAR_TOWER/Libraries/CMSIS/Include\core_cm0.h ****  */
 704:C:/Users/Lenovo/workspace/dave_workspace/SOLAR_TOWER/Libraries/CMSIS/Include\core_cm0.h **** __STATIC_INLINE void __NVIC_ClearPendingIRQ(IRQn_Type IRQn)
 705:C:/Users/Lenovo/workspace/dave_workspace/SOLAR_TOWER/Libraries/CMSIS/Include\core_cm0.h **** {
 706:C:/Users/Lenovo/workspace/dave_workspace/SOLAR_TOWER/Libraries/CMSIS/Include\core_cm0.h ****   if ((int32_t)(IRQn) >= 0)
 707:C:/Users/Lenovo/workspace/dave_workspace/SOLAR_TOWER/Libraries/CMSIS/Include\core_cm0.h ****   {
 708:C:/Users/Lenovo/workspace/dave_workspace/SOLAR_TOWER/Libraries/CMSIS/Include\core_cm0.h ****     NVIC->ICPR[0U] = (uint32_t)(1UL << (((uint32_t)(int32_t)IRQn) & 0x1FUL));
 709:C:/Users/Lenovo/workspace/dave_workspace/SOLAR_TOWER/Libraries/CMSIS/Include\core_cm0.h ****   }
 710:C:/Users/Lenovo/workspace/dave_workspace/SOLAR_TOWER/Libraries/CMSIS/Include\core_cm0.h **** }
 711:C:/Users/Lenovo/workspace/dave_workspace/SOLAR_TOWER/Libraries/CMSIS/Include\core_cm0.h **** 
 712:C:/Users/Lenovo/workspace/dave_workspace/SOLAR_TOWER/Libraries/CMSIS/Include\core_cm0.h **** 
 713:C:/Users/Lenovo/workspace/dave_workspace/SOLAR_TOWER/Libraries/CMSIS/Include\core_cm0.h **** /**
 714:C:/Users/Lenovo/workspace/dave_workspace/SOLAR_TOWER/Libraries/CMSIS/Include\core_cm0.h ****   \brief   Set Interrupt Priority
 715:C:/Users/Lenovo/workspace/dave_workspace/SOLAR_TOWER/Libraries/CMSIS/Include\core_cm0.h ****   \details Sets the priority of a device specific interrupt or a processor exception.
 716:C:/Users/Lenovo/workspace/dave_workspace/SOLAR_TOWER/Libraries/CMSIS/Include\core_cm0.h ****            The interrupt number can be positive to specify a device specific interrupt,
 717:C:/Users/Lenovo/workspace/dave_workspace/SOLAR_TOWER/Libraries/CMSIS/Include\core_cm0.h ****            or negative to specify a processor exception.
 718:C:/Users/Lenovo/workspace/dave_workspace/SOLAR_TOWER/Libraries/CMSIS/Include\core_cm0.h ****   \param [in]      IRQn  Interrupt number.
 719:C:/Users/Lenovo/workspace/dave_workspace/SOLAR_TOWER/Libraries/CMSIS/Include\core_cm0.h ****   \param [in]  priority  Priority to set.
 720:C:/Users/Lenovo/workspace/dave_workspace/SOLAR_TOWER/Libraries/CMSIS/Include\core_cm0.h ****   \note    The priority cannot be set for every processor exception.
 721:C:/Users/Lenovo/workspace/dave_workspace/SOLAR_TOWER/Libraries/CMSIS/Include\core_cm0.h ****  */
 722:C:/Users/Lenovo/workspace/dave_workspace/SOLAR_TOWER/Libraries/CMSIS/Include\core_cm0.h **** __STATIC_INLINE void __NVIC_SetPriority(IRQn_Type IRQn, uint32_t priority)
 723:C:/Users/Lenovo/workspace/dave_workspace/SOLAR_TOWER/Libraries/CMSIS/Include\core_cm0.h **** {
  77              	 .loc 1 723 0
  78              	 .cfi_startproc
  79 0000 B0B5     	 push {r4,r5,r7,lr}
  80              	.LCFI3:
  81              	 .cfi_def_cfa_offset 16
  82              	 .cfi_offset 4,-16
  83              	 .cfi_offset 5,-12
  84              	 .cfi_offset 7,-8
  85              	 .cfi_offset 14,-4
  86 0002 82B0     	 sub sp,sp,#8
  87              	.LCFI4:
  88              	 .cfi_def_cfa_offset 24
  89 0004 00AF     	 add r7,sp,#0
  90              	.LCFI5:
  91              	 .cfi_def_cfa_register 7
  92 0006 021C     	 mov r2,r0
  93 0008 3960     	 str r1,[r7]
  94 000a FB1D     	 add r3,r7,#7
  95 000c 1A70     	 strb r2,[r3]
 724:C:/Users/Lenovo/workspace/dave_workspace/SOLAR_TOWER/Libraries/CMSIS/Include\core_cm0.h ****   if ((int32_t)(IRQn) >= 0)
  96              	 .loc 1 724 0
  97 000e FB1D     	 add r3,r7,#7
  98 0010 1B78     	 ldrb r3,[r3]
  99 0012 7F2B     	 cmp r3,#127
 100 0014 27D8     	 bhi .L6
 725:C:/Users/Lenovo/workspace/dave_workspace/SOLAR_TOWER/Libraries/CMSIS/Include\core_cm0.h ****   {
 726:C:/Users/Lenovo/workspace/dave_workspace/SOLAR_TOWER/Libraries/CMSIS/Include\core_cm0.h ****     NVIC->IP[_IP_IDX(IRQn)]  = ((uint32_t)(NVIC->IP[_IP_IDX(IRQn)]  & ~(0xFFUL << _BIT_SHIFT(IRQn))
 101              	 .loc 1 726 0
 102 0016 2D4C     	 ldr r4,.L8
 103 0018 FB1D     	 add r3,r7,#7
 104 001a 1B78     	 ldrb r3,[r3]
 105 001c 5BB2     	 sxtb r3,r3
 106 001e 9B08     	 lsr r3,r3,#2
 107 0020 2A49     	 ldr r1,.L8
 108 0022 FA1D     	 add r2,r7,#7
 109 0024 1278     	 ldrb r2,[r2]
 110 0026 52B2     	 sxtb r2,r2
 111 0028 9208     	 lsr r2,r2,#2
 112 002a C032     	 add r2,r2,#192
 113 002c 9200     	 lsl r2,r2,#2
 114 002e 5258     	 ldr r2,[r2,r1]
 115 0030 F91D     	 add r1,r7,#7
 116 0032 0978     	 ldrb r1,[r1]
 117 0034 081C     	 mov r0,r1
 118 0036 0321     	 mov r1,#3
 119 0038 0140     	 and r1,r0
 120 003a C900     	 lsl r1,r1,#3
 121 003c 081C     	 mov r0,r1
 122 003e FF21     	 mov r1,#255
 123 0040 8140     	 lsl r1,r1,r0
 124 0042 C943     	 mvn r1,r1
 125 0044 1140     	 and r1,r2
 727:C:/Users/Lenovo/workspace/dave_workspace/SOLAR_TOWER/Libraries/CMSIS/Include\core_cm0.h ****        (((priority << (8U - __NVIC_PRIO_BITS)) & (uint32_t)0xFFUL) << _BIT_SHIFT(IRQn)));
 126              	 .loc 1 727 0
 127 0046 3A68     	 ldr r2,[r7]
 128 0048 9201     	 lsl r2,r2,#6
 129 004a FF20     	 mov r0,#255
 130 004c 0240     	 and r2,r0
 131 004e F81D     	 add r0,r7,#7
 132 0050 0078     	 ldrb r0,[r0]
 133 0052 051C     	 mov r5,r0
 134 0054 0320     	 mov r0,#3
 135 0056 2840     	 and r0,r5
 136 0058 C000     	 lsl r0,r0,#3
 137 005a 8240     	 lsl r2,r2,r0
 726:C:/Users/Lenovo/workspace/dave_workspace/SOLAR_TOWER/Libraries/CMSIS/Include\core_cm0.h ****        (((priority << (8U - __NVIC_PRIO_BITS)) & (uint32_t)0xFFUL) << _BIT_SHIFT(IRQn)));
 138              	 .loc 1 726 0
 139 005c 0A43     	 orr r2,r1
 140 005e C033     	 add r3,r3,#192
 141 0060 9B00     	 lsl r3,r3,#2
 142 0062 1A51     	 str r2,[r3,r4]
 143 0064 2EE0     	 b .L5
 144              	.L6:
 728:C:/Users/Lenovo/workspace/dave_workspace/SOLAR_TOWER/Libraries/CMSIS/Include\core_cm0.h ****   }
 729:C:/Users/Lenovo/workspace/dave_workspace/SOLAR_TOWER/Libraries/CMSIS/Include\core_cm0.h ****   else
 730:C:/Users/Lenovo/workspace/dave_workspace/SOLAR_TOWER/Libraries/CMSIS/Include\core_cm0.h ****   {
 731:C:/Users/Lenovo/workspace/dave_workspace/SOLAR_TOWER/Libraries/CMSIS/Include\core_cm0.h ****     SCB->SHP[_SHP_IDX(IRQn)] = ((uint32_t)(SCB->SHP[_SHP_IDX(IRQn)] & ~(0xFFUL << _BIT_SHIFT(IRQn))
 145              	 .loc 1 731 0
 146 0066 1A4C     	 ldr r4,.L8+4
 147 0068 FB1D     	 add r3,r7,#7
 148 006a 1B78     	 ldrb r3,[r3]
 149 006c 1A1C     	 mov r2,r3
 150 006e 0F23     	 mov r3,#15
 151 0070 1340     	 and r3,r2
 152 0072 083B     	 sub r3,r3,#8
 153 0074 9908     	 lsr r1,r3,#2
 154 0076 164A     	 ldr r2,.L8+4
 155 0078 FB1D     	 add r3,r7,#7
 156 007a 1B78     	 ldrb r3,[r3]
 157 007c 181C     	 mov r0,r3
 158 007e 0F23     	 mov r3,#15
 159 0080 0340     	 and r3,r0
 160 0082 083B     	 sub r3,r3,#8
 161 0084 9B08     	 lsr r3,r3,#2
 162 0086 0633     	 add r3,r3,#6
 163 0088 9B00     	 lsl r3,r3,#2
 164 008a D318     	 add r3,r2,r3
 165 008c 5B68     	 ldr r3,[r3,#4]
 166 008e FA1D     	 add r2,r7,#7
 167 0090 1278     	 ldrb r2,[r2]
 168 0092 101C     	 mov r0,r2
 169 0094 0322     	 mov r2,#3
 170 0096 0240     	 and r2,r0
 171 0098 D200     	 lsl r2,r2,#3
 172 009a 101C     	 mov r0,r2
 173 009c FF22     	 mov r2,#255
 174 009e 8240     	 lsl r2,r2,r0
 175 00a0 D243     	 mvn r2,r2
 176 00a2 1A40     	 and r2,r3
 732:C:/Users/Lenovo/workspace/dave_workspace/SOLAR_TOWER/Libraries/CMSIS/Include\core_cm0.h ****        (((priority << (8U - __NVIC_PRIO_BITS)) & (uint32_t)0xFFUL) << _BIT_SHIFT(IRQn)));
 177              	 .loc 1 732 0
 178 00a4 3B68     	 ldr r3,[r7]
 179 00a6 9B01     	 lsl r3,r3,#6
 180 00a8 FF20     	 mov r0,#255
 181 00aa 0340     	 and r3,r0
 182 00ac F81D     	 add r0,r7,#7
 183 00ae 0078     	 ldrb r0,[r0]
 184 00b0 051C     	 mov r5,r0
 185 00b2 0320     	 mov r0,#3
 186 00b4 2840     	 and r0,r5
 187 00b6 C000     	 lsl r0,r0,#3
 188 00b8 8340     	 lsl r3,r3,r0
 731:C:/Users/Lenovo/workspace/dave_workspace/SOLAR_TOWER/Libraries/CMSIS/Include\core_cm0.h ****        (((priority << (8U - __NVIC_PRIO_BITS)) & (uint32_t)0xFFUL) << _BIT_SHIFT(IRQn)));
 189              	 .loc 1 731 0
 190 00ba 1A43     	 orr r2,r3
 191 00bc 8B1D     	 add r3,r1,#6
 192 00be 9B00     	 lsl r3,r3,#2
 193 00c0 E318     	 add r3,r4,r3
 194 00c2 5A60     	 str r2,[r3,#4]
 195              	.L5:
 733:C:/Users/Lenovo/workspace/dave_workspace/SOLAR_TOWER/Libraries/CMSIS/Include\core_cm0.h ****   }
 734:C:/Users/Lenovo/workspace/dave_workspace/SOLAR_TOWER/Libraries/CMSIS/Include\core_cm0.h **** }
 196              	 .loc 1 734 0
 197 00c4 BD46     	 mov sp,r7
 198 00c6 02B0     	 add sp,sp,#8
 199              	 
 200 00c8 B0BD     	 pop {r4,r5,r7,pc}
 201              	.L9:
 202 00ca C046     	 .align 2
 203              	.L8:
 204 00cc 00E100E0 	 .word -536813312
 205 00d0 00ED00E0 	 .word -536810240
 206              	 .cfi_endproc
 207              	.LFE29:
 209              	 .section .text.XMC_CCU4_StartPrescaler,"ax",%progbits
 210              	 .align 2
 211              	 .code 16
 212              	 .thumb_func
 214              	XMC_CCU4_StartPrescaler:
 215              	.LFB43:
 216              	 .file 2 "C:/Users/Lenovo/workspace/dave_workspace/SOLAR_TOWER/Libraries/XMCLib/inc/xmc_ccu4.h"
   1:C:/Users/Lenovo/workspace/dave_workspace/SOLAR_TOWER/Libraries/XMCLib/inc\xmc_ccu4.h **** /**
   2:C:/Users/Lenovo/workspace/dave_workspace/SOLAR_TOWER/Libraries/XMCLib/inc\xmc_ccu4.h ****  * @file xmc_ccu4.h
   3:C:/Users/Lenovo/workspace/dave_workspace/SOLAR_TOWER/Libraries/XMCLib/inc\xmc_ccu4.h ****  * @date 2017-09-15
   4:C:/Users/Lenovo/workspace/dave_workspace/SOLAR_TOWER/Libraries/XMCLib/inc\xmc_ccu4.h ****  *
   5:C:/Users/Lenovo/workspace/dave_workspace/SOLAR_TOWER/Libraries/XMCLib/inc\xmc_ccu4.h ****  * @cond
   6:C:/Users/Lenovo/workspace/dave_workspace/SOLAR_TOWER/Libraries/XMCLib/inc\xmc_ccu4.h ****  **************************************************************************************************
   7:C:/Users/Lenovo/workspace/dave_workspace/SOLAR_TOWER/Libraries/XMCLib/inc\xmc_ccu4.h ****  * XMClib v2.1.18 - XMC Peripheral Driver Library 
   8:C:/Users/Lenovo/workspace/dave_workspace/SOLAR_TOWER/Libraries/XMCLib/inc\xmc_ccu4.h ****  *
   9:C:/Users/Lenovo/workspace/dave_workspace/SOLAR_TOWER/Libraries/XMCLib/inc\xmc_ccu4.h ****  * Copyright (c) 2015-2018, Infineon Technologies AG
  10:C:/Users/Lenovo/workspace/dave_workspace/SOLAR_TOWER/Libraries/XMCLib/inc\xmc_ccu4.h ****  * All rights reserved.                        
  11:C:/Users/Lenovo/workspace/dave_workspace/SOLAR_TOWER/Libraries/XMCLib/inc\xmc_ccu4.h ****  *                                             
  12:C:/Users/Lenovo/workspace/dave_workspace/SOLAR_TOWER/Libraries/XMCLib/inc\xmc_ccu4.h ****  * Redistribution and use in source and binary forms, with or without modification,are permitted pr
  13:C:/Users/Lenovo/workspace/dave_workspace/SOLAR_TOWER/Libraries/XMCLib/inc\xmc_ccu4.h ****  * following conditions are met:   
  14:C:/Users/Lenovo/workspace/dave_workspace/SOLAR_TOWER/Libraries/XMCLib/inc\xmc_ccu4.h ****  *                                                                              
  15:C:/Users/Lenovo/workspace/dave_workspace/SOLAR_TOWER/Libraries/XMCLib/inc\xmc_ccu4.h ****  * Redistributions of source code must retain the above copyright notice, this list of conditions a
  16:C:/Users/Lenovo/workspace/dave_workspace/SOLAR_TOWER/Libraries/XMCLib/inc\xmc_ccu4.h ****  * disclaimer.                        
  17:C:/Users/Lenovo/workspace/dave_workspace/SOLAR_TOWER/Libraries/XMCLib/inc\xmc_ccu4.h ****  * 
  18:C:/Users/Lenovo/workspace/dave_workspace/SOLAR_TOWER/Libraries/XMCLib/inc\xmc_ccu4.h ****  * Redistributions in binary form must reproduce the above copyright notice, this list of condition
  19:C:/Users/Lenovo/workspace/dave_workspace/SOLAR_TOWER/Libraries/XMCLib/inc\xmc_ccu4.h ****  * disclaimer in the documentation and/or other materials provided with the distribution.          
  20:C:/Users/Lenovo/workspace/dave_workspace/SOLAR_TOWER/Libraries/XMCLib/inc\xmc_ccu4.h ****  * 
  21:C:/Users/Lenovo/workspace/dave_workspace/SOLAR_TOWER/Libraries/XMCLib/inc\xmc_ccu4.h ****  * Neither the name of the copyright holders nor the names of its contributors may be used to endor
  22:C:/Users/Lenovo/workspace/dave_workspace/SOLAR_TOWER/Libraries/XMCLib/inc\xmc_ccu4.h ****  * products derived from this software without specific prior written permission.                  
  23:C:/Users/Lenovo/workspace/dave_workspace/SOLAR_TOWER/Libraries/XMCLib/inc\xmc_ccu4.h ****  *                                                                              
  24:C:/Users/Lenovo/workspace/dave_workspace/SOLAR_TOWER/Libraries/XMCLib/inc\xmc_ccu4.h ****  * THIS SOFTWARE IS PROVIDED BY THE COPYRIGHT HOLDERS AND CONTRIBUTORS "AS IS" AND ANY EXPRESS OR I
  25:C:/Users/Lenovo/workspace/dave_workspace/SOLAR_TOWER/Libraries/XMCLib/inc\xmc_ccu4.h ****  * INCLUDING, BUT NOT LIMITED TO, THE IMPLIED WARRANTIES OF MERCHANTABILITY AND FITNESS FOR A PARTI
  26:C:/Users/Lenovo/workspace/dave_workspace/SOLAR_TOWER/Libraries/XMCLib/inc\xmc_ccu4.h ****  * DISCLAIMED. IN NO EVENT SHALL THE COPYRIGHT HOLDER OR CONTRIBUTORS BE LIABLE  FOR ANY DIRECT, IN
  27:C:/Users/Lenovo/workspace/dave_workspace/SOLAR_TOWER/Libraries/XMCLib/inc\xmc_ccu4.h ****  * SPECIAL, EXEMPLARY, OR CONSEQUENTIAL DAMAGES (INCLUDING, BUT NOT LIMITED TO, PROCUREMENT OF SUBS
  28:C:/Users/Lenovo/workspace/dave_workspace/SOLAR_TOWER/Libraries/XMCLib/inc\xmc_ccu4.h ****  * SERVICES; LOSS OF USE, DATA, OR PROFITS; OR BUSINESS INTERRUPTION) HOWEVER CAUSED AND ON ANY THE
  29:C:/Users/Lenovo/workspace/dave_workspace/SOLAR_TOWER/Libraries/XMCLib/inc\xmc_ccu4.h ****  * WHETHER IN CONTRACT, STRICT LIABILITY,OR TORT (INCLUDING NEGLIGENCE OR OTHERWISE) ARISING IN ANY
  30:C:/Users/Lenovo/workspace/dave_workspace/SOLAR_TOWER/Libraries/XMCLib/inc\xmc_ccu4.h ****  * OF THIS SOFTWARE, EVEN IF ADVISED OF THE POSSIBILITY OF SUCH DAMAGE.                            
  31:C:/Users/Lenovo/workspace/dave_workspace/SOLAR_TOWER/Libraries/XMCLib/inc\xmc_ccu4.h ****  *                                                                              
  32:C:/Users/Lenovo/workspace/dave_workspace/SOLAR_TOWER/Libraries/XMCLib/inc\xmc_ccu4.h ****  * To improve the quality of the software, users are encouraged to share modifications, enhancement
  33:C:/Users/Lenovo/workspace/dave_workspace/SOLAR_TOWER/Libraries/XMCLib/inc\xmc_ccu4.h ****  * Infineon Technologies AG dave@infineon.com).                                                    
  34:C:/Users/Lenovo/workspace/dave_workspace/SOLAR_TOWER/Libraries/XMCLib/inc\xmc_ccu4.h ****  **************************************************************************************************
  35:C:/Users/Lenovo/workspace/dave_workspace/SOLAR_TOWER/Libraries/XMCLib/inc\xmc_ccu4.h ****  *
  36:C:/Users/Lenovo/workspace/dave_workspace/SOLAR_TOWER/Libraries/XMCLib/inc\xmc_ccu4.h ****  * Change History
  37:C:/Users/Lenovo/workspace/dave_workspace/SOLAR_TOWER/Libraries/XMCLib/inc\xmc_ccu4.h ****  * --------------
  38:C:/Users/Lenovo/workspace/dave_workspace/SOLAR_TOWER/Libraries/XMCLib/inc\xmc_ccu4.h ****  *
  39:C:/Users/Lenovo/workspace/dave_workspace/SOLAR_TOWER/Libraries/XMCLib/inc\xmc_ccu4.h ****  * 2015-02-20:
  40:C:/Users/Lenovo/workspace/dave_workspace/SOLAR_TOWER/Libraries/XMCLib/inc\xmc_ccu4.h ****  *     - Initial <br>
  41:C:/Users/Lenovo/workspace/dave_workspace/SOLAR_TOWER/Libraries/XMCLib/inc\xmc_ccu4.h ****  *     - Documentation updates <br>
  42:C:/Users/Lenovo/workspace/dave_workspace/SOLAR_TOWER/Libraries/XMCLib/inc\xmc_ccu4.h ****  *
  43:C:/Users/Lenovo/workspace/dave_workspace/SOLAR_TOWER/Libraries/XMCLib/inc\xmc_ccu4.h ****  * 2015-06-20:
  44:C:/Users/Lenovo/workspace/dave_workspace/SOLAR_TOWER/Libraries/XMCLib/inc\xmc_ccu4.h ****  *     - Removed version macros and declaration of GetDriverVersion API <br>
  45:C:/Users/Lenovo/workspace/dave_workspace/SOLAR_TOWER/Libraries/XMCLib/inc\xmc_ccu4.h ****  *
  46:C:/Users/Lenovo/workspace/dave_workspace/SOLAR_TOWER/Libraries/XMCLib/inc\xmc_ccu4.h ****  * 2015-07-22:
  47:C:/Users/Lenovo/workspace/dave_workspace/SOLAR_TOWER/Libraries/XMCLib/inc\xmc_ccu4.h ****  *     - XMC_CCU4_SLICE_ConfigureStatusBitOverrideEvent() is updated to support XMC14 device. <br>
  48:C:/Users/Lenovo/workspace/dave_workspace/SOLAR_TOWER/Libraries/XMCLib/inc\xmc_ccu4.h ****  *
  49:C:/Users/Lenovo/workspace/dave_workspace/SOLAR_TOWER/Libraries/XMCLib/inc\xmc_ccu4.h ****  * 2015-08-17:
  50:C:/Users/Lenovo/workspace/dave_workspace/SOLAR_TOWER/Libraries/XMCLib/inc\xmc_ccu4.h ****  *     - XMC_CCU4_SLICE_PRESCALER_t enum is added to set the prescaler divider. <br>
  51:C:/Users/Lenovo/workspace/dave_workspace/SOLAR_TOWER/Libraries/XMCLib/inc\xmc_ccu4.h ****  *     - XMC_CCU4_SLICE_SHADOW_TRANSFER_MODE_t enum item names are updated according to the guideli
  52:C:/Users/Lenovo/workspace/dave_workspace/SOLAR_TOWER/Libraries/XMCLib/inc\xmc_ccu4.h ****  *     - XMC_CCU4_EnableShadowTransfer() API is made as inline, to improve the speed. <br>
  53:C:/Users/Lenovo/workspace/dave_workspace/SOLAR_TOWER/Libraries/XMCLib/inc\xmc_ccu4.h ****  *
  54:C:/Users/Lenovo/workspace/dave_workspace/SOLAR_TOWER/Libraries/XMCLib/inc\xmc_ccu4.h ****  * 2015-09-29:
  55:C:/Users/Lenovo/workspace/dave_workspace/SOLAR_TOWER/Libraries/XMCLib/inc\xmc_ccu4.h ****  *     - In XMC_CCU4_SLICE_EVENT_LEVEL_SENSITIVITY_t, two more enum items are added to support exte
  56:C:/Users/Lenovo/workspace/dave_workspace/SOLAR_TOWER/Libraries/XMCLib/inc\xmc_ccu4.h ****  *       settings.
  57:C:/Users/Lenovo/workspace/dave_workspace/SOLAR_TOWER/Libraries/XMCLib/inc\xmc_ccu4.h ****  *
  58:C:/Users/Lenovo/workspace/dave_workspace/SOLAR_TOWER/Libraries/XMCLib/inc\xmc_ccu4.h ****  * 2015-10-07:
  59:C:/Users/Lenovo/workspace/dave_workspace/SOLAR_TOWER/Libraries/XMCLib/inc\xmc_ccu4.h ****  *     - XMC_CCU4_SLICE_GetEvent() is made as inline.
  60:C:/Users/Lenovo/workspace/dave_workspace/SOLAR_TOWER/Libraries/XMCLib/inc\xmc_ccu4.h ****  *     - XMC_CCU4_SLICE_MULTI_IRQ_ID_t is added to support the XMC_CCU4_SLICE_EnableMultipleEvents(
  61:C:/Users/Lenovo/workspace/dave_workspace/SOLAR_TOWER/Libraries/XMCLib/inc\xmc_ccu4.h ****  *       XMC_CCU4_SLICE_DisableMultipleEvents() APIs.
  62:C:/Users/Lenovo/workspace/dave_workspace/SOLAR_TOWER/Libraries/XMCLib/inc\xmc_ccu4.h ****  *     - DOC updates for the newly added APIs.
  63:C:/Users/Lenovo/workspace/dave_workspace/SOLAR_TOWER/Libraries/XMCLib/inc\xmc_ccu4.h ****  *
  64:C:/Users/Lenovo/workspace/dave_workspace/SOLAR_TOWER/Libraries/XMCLib/inc\xmc_ccu4.h ****  * 2016-03-09:
  65:C:/Users/Lenovo/workspace/dave_workspace/SOLAR_TOWER/Libraries/XMCLib/inc\xmc_ccu4.h ****  *     - Optimization of write only registers 
  66:C:/Users/Lenovo/workspace/dave_workspace/SOLAR_TOWER/Libraries/XMCLib/inc\xmc_ccu4.h ****  *
  67:C:/Users/Lenovo/workspace/dave_workspace/SOLAR_TOWER/Libraries/XMCLib/inc\xmc_ccu4.h ****  * 2016-05-20:
  68:C:/Users/Lenovo/workspace/dave_workspace/SOLAR_TOWER/Libraries/XMCLib/inc\xmc_ccu4.h ****  *     - Added XMC_CCU4_SLICE_StopClearTimer()
  69:C:/Users/Lenovo/workspace/dave_workspace/SOLAR_TOWER/Libraries/XMCLib/inc\xmc_ccu4.h ****  *     - Changed implementation of XMC_CCU4_SLICE_StopTimer() and XMC_CCU4_SLICE_ClearTimer() to av
  70:C:/Users/Lenovo/workspace/dave_workspace/SOLAR_TOWER/Libraries/XMCLib/inc\xmc_ccu4.h ****  *
  71:C:/Users/Lenovo/workspace/dave_workspace/SOLAR_TOWER/Libraries/XMCLib/inc\xmc_ccu4.h ****  * 2017-04-27:
  72:C:/Users/Lenovo/workspace/dave_workspace/SOLAR_TOWER/Libraries/XMCLib/inc\xmc_ccu4.h ****  *     - XMC_CCU4_SLICE_SetPrescaler() changed div_val parameter to type XMC_CCU4_SLICE_PRESCALER_t
  73:C:/Users/Lenovo/workspace/dave_workspace/SOLAR_TOWER/Libraries/XMCLib/inc\xmc_ccu4.h ****  * 
  74:C:/Users/Lenovo/workspace/dave_workspace/SOLAR_TOWER/Libraries/XMCLib/inc\xmc_ccu4.h ****  * 2017-09-15:
  75:C:/Users/Lenovo/workspace/dave_workspace/SOLAR_TOWER/Libraries/XMCLib/inc\xmc_ccu4.h ****  *     - Fix XMC_CCU4_SLICE_SetShadowTransferMode()
  76:C:/Users/Lenovo/workspace/dave_workspace/SOLAR_TOWER/Libraries/XMCLib/inc\xmc_ccu4.h ****  *
  77:C:/Users/Lenovo/workspace/dave_workspace/SOLAR_TOWER/Libraries/XMCLib/inc\xmc_ccu4.h ****  * @endcond
  78:C:/Users/Lenovo/workspace/dave_workspace/SOLAR_TOWER/Libraries/XMCLib/inc\xmc_ccu4.h ****  */
  79:C:/Users/Lenovo/workspace/dave_workspace/SOLAR_TOWER/Libraries/XMCLib/inc\xmc_ccu4.h **** 
  80:C:/Users/Lenovo/workspace/dave_workspace/SOLAR_TOWER/Libraries/XMCLib/inc\xmc_ccu4.h **** #ifndef XMC_CCU4_H
  81:C:/Users/Lenovo/workspace/dave_workspace/SOLAR_TOWER/Libraries/XMCLib/inc\xmc_ccu4.h **** #define XMC_CCU4_H
  82:C:/Users/Lenovo/workspace/dave_workspace/SOLAR_TOWER/Libraries/XMCLib/inc\xmc_ccu4.h ****  
  83:C:/Users/Lenovo/workspace/dave_workspace/SOLAR_TOWER/Libraries/XMCLib/inc\xmc_ccu4.h **** /**************************************************************************************************
  84:C:/Users/Lenovo/workspace/dave_workspace/SOLAR_TOWER/Libraries/XMCLib/inc\xmc_ccu4.h ****  * HEADER FILES
  85:C:/Users/Lenovo/workspace/dave_workspace/SOLAR_TOWER/Libraries/XMCLib/inc\xmc_ccu4.h ****  **************************************************************************************************
  86:C:/Users/Lenovo/workspace/dave_workspace/SOLAR_TOWER/Libraries/XMCLib/inc\xmc_ccu4.h **** #include "xmc_common.h"
  87:C:/Users/Lenovo/workspace/dave_workspace/SOLAR_TOWER/Libraries/XMCLib/inc\xmc_ccu4.h **** #if defined(CCU40)
  88:C:/Users/Lenovo/workspace/dave_workspace/SOLAR_TOWER/Libraries/XMCLib/inc\xmc_ccu4.h **** 
  89:C:/Users/Lenovo/workspace/dave_workspace/SOLAR_TOWER/Libraries/XMCLib/inc\xmc_ccu4.h **** #if UC_FAMILY == XMC1
  90:C:/Users/Lenovo/workspace/dave_workspace/SOLAR_TOWER/Libraries/XMCLib/inc\xmc_ccu4.h ****  #include "xmc1_ccu4_map.h"
  91:C:/Users/Lenovo/workspace/dave_workspace/SOLAR_TOWER/Libraries/XMCLib/inc\xmc_ccu4.h **** #endif
  92:C:/Users/Lenovo/workspace/dave_workspace/SOLAR_TOWER/Libraries/XMCLib/inc\xmc_ccu4.h **** 
  93:C:/Users/Lenovo/workspace/dave_workspace/SOLAR_TOWER/Libraries/XMCLib/inc\xmc_ccu4.h **** #if UC_FAMILY == XMC4
  94:C:/Users/Lenovo/workspace/dave_workspace/SOLAR_TOWER/Libraries/XMCLib/inc\xmc_ccu4.h ****  #include "xmc4_ccu4_map.h"
  95:C:/Users/Lenovo/workspace/dave_workspace/SOLAR_TOWER/Libraries/XMCLib/inc\xmc_ccu4.h **** #endif
  96:C:/Users/Lenovo/workspace/dave_workspace/SOLAR_TOWER/Libraries/XMCLib/inc\xmc_ccu4.h **** 
  97:C:/Users/Lenovo/workspace/dave_workspace/SOLAR_TOWER/Libraries/XMCLib/inc\xmc_ccu4.h **** /**
  98:C:/Users/Lenovo/workspace/dave_workspace/SOLAR_TOWER/Libraries/XMCLib/inc\xmc_ccu4.h ****  * @addtogroup XMClib XMC Peripheral Library
  99:C:/Users/Lenovo/workspace/dave_workspace/SOLAR_TOWER/Libraries/XMCLib/inc\xmc_ccu4.h ****  * @{
 100:C:/Users/Lenovo/workspace/dave_workspace/SOLAR_TOWER/Libraries/XMCLib/inc\xmc_ccu4.h ****  */
 101:C:/Users/Lenovo/workspace/dave_workspace/SOLAR_TOWER/Libraries/XMCLib/inc\xmc_ccu4.h ****  
 102:C:/Users/Lenovo/workspace/dave_workspace/SOLAR_TOWER/Libraries/XMCLib/inc\xmc_ccu4.h **** /**
 103:C:/Users/Lenovo/workspace/dave_workspace/SOLAR_TOWER/Libraries/XMCLib/inc\xmc_ccu4.h ****  * @addtogroup CCU4
 104:C:/Users/Lenovo/workspace/dave_workspace/SOLAR_TOWER/Libraries/XMCLib/inc\xmc_ccu4.h ****  * @brief Capture Compare Unit 4 (CCU4) low level driver for XMC family of microcontrollers<br>
 105:C:/Users/Lenovo/workspace/dave_workspace/SOLAR_TOWER/Libraries/XMCLib/inc\xmc_ccu4.h ****  *
 106:C:/Users/Lenovo/workspace/dave_workspace/SOLAR_TOWER/Libraries/XMCLib/inc\xmc_ccu4.h ****  * The CCU4 peripheral is a major component for systems that need general purpose timers for signal
 107:C:/Users/Lenovo/workspace/dave_workspace/SOLAR_TOWER/Libraries/XMCLib/inc\xmc_ccu4.h ****  * monitoring/conditioning and Pulse Width Modulation (PWM) signal generation. Power electronic con
 108:C:/Users/Lenovo/workspace/dave_workspace/SOLAR_TOWER/Libraries/XMCLib/inc\xmc_ccu4.h ****  * switched mode power supplies or interruptible power supplies, can easily be implemented with the
 109:C:/Users/Lenovo/workspace/dave_workspace/SOLAR_TOWER/Libraries/XMCLib/inc\xmc_ccu4.h ****  * CCU4 peripheral.\n
 110:C:/Users/Lenovo/workspace/dave_workspace/SOLAR_TOWER/Libraries/XMCLib/inc\xmc_ccu4.h ****  * Each CCU4 module is comprised of four identical 16 bit Capture/Compare Timer slices, CC4y (where
 111:C:/Users/Lenovo/workspace/dave_workspace/SOLAR_TOWER/Libraries/XMCLib/inc\xmc_ccu4.h ****  * timer slice can work in compare mode or in capture mode.
 112:C:/Users/Lenovo/workspace/dave_workspace/SOLAR_TOWER/Libraries/XMCLib/inc\xmc_ccu4.h ****  *
 113:C:/Users/Lenovo/workspace/dave_workspace/SOLAR_TOWER/Libraries/XMCLib/inc\xmc_ccu4.h ****  * APIs provided in this file cover the following functional blocks of CCU4:\n
 114:C:/Users/Lenovo/workspace/dave_workspace/SOLAR_TOWER/Libraries/XMCLib/inc\xmc_ccu4.h ****  * -- Timer configuration, Capture configuration, Function/Event configuration, Interrupt configura
 115:C:/Users/Lenovo/workspace/dave_workspace/SOLAR_TOWER/Libraries/XMCLib/inc\xmc_ccu4.h ****  * \par Note:
 116:C:/Users/Lenovo/workspace/dave_workspace/SOLAR_TOWER/Libraries/XMCLib/inc\xmc_ccu4.h ****  * 1. SLICE (APIs prefixed with e.g. XMC_CCU4_SLICE_)
 117:C:/Users/Lenovo/workspace/dave_workspace/SOLAR_TOWER/Libraries/XMCLib/inc\xmc_ccu4.h ****  * 2. Module (APIs are not having any prefix e.g. XMC_CCU4_)
 118:C:/Users/Lenovo/workspace/dave_workspace/SOLAR_TOWER/Libraries/XMCLib/inc\xmc_ccu4.h ****  *
 119:C:/Users/Lenovo/workspace/dave_workspace/SOLAR_TOWER/Libraries/XMCLib/inc\xmc_ccu4.h ****  * \par Timer(Compare mode) configuration:
 120:C:/Users/Lenovo/workspace/dave_workspace/SOLAR_TOWER/Libraries/XMCLib/inc\xmc_ccu4.h ****  * This section of the LLD provides the configuration structure XMC_CCU4_SLICE_COMPARE_CONFIG_t and
 121:C:/Users/Lenovo/workspace/dave_workspace/SOLAR_TOWER/Libraries/XMCLib/inc\xmc_ccu4.h ****  * function XMC_CCU4_SLICE_CompareInit().
 122:C:/Users/Lenovo/workspace/dave_workspace/SOLAR_TOWER/Libraries/XMCLib/inc\xmc_ccu4.h ****  *
 123:C:/Users/Lenovo/workspace/dave_workspace/SOLAR_TOWER/Libraries/XMCLib/inc\xmc_ccu4.h ****  * It can be used to:
 124:C:/Users/Lenovo/workspace/dave_workspace/SOLAR_TOWER/Libraries/XMCLib/inc\xmc_ccu4.h ****  * -# Start and Stop the timer. (XMC_CCU4_SLICE_StartTimer(), XMC_CCU4_SLICE_StopTimer())
 125:C:/Users/Lenovo/workspace/dave_workspace/SOLAR_TOWER/Libraries/XMCLib/inc\xmc_ccu4.h ****  * -# Update the period, compare, Dither, Prescaler  and Passive values. (XMC_CCU4_SLICE_SetTimerPe
 126:C:/Users/Lenovo/workspace/dave_workspace/SOLAR_TOWER/Libraries/XMCLib/inc\xmc_ccu4.h ****  *    XMC_CCU4_SLICE_SetTimerCompareMatch(), XMC_CCU4_SLICE_SetPrescaler(), XMC_CCU4_SLICE_SetDithe
 127:C:/Users/Lenovo/workspace/dave_workspace/SOLAR_TOWER/Libraries/XMCLib/inc\xmc_ccu4.h ****  *    XMC_CCU4_SLICE_SetPassiveLevel())
 128:C:/Users/Lenovo/workspace/dave_workspace/SOLAR_TOWER/Libraries/XMCLib/inc\xmc_ccu4.h ****  * -# Enable the slices to support multichannel mode. (XMC_CCU4_SLICE_EnableMultiChannelMode())
 129:C:/Users/Lenovo/workspace/dave_workspace/SOLAR_TOWER/Libraries/XMCLib/inc\xmc_ccu4.h ****  * 
 130:C:/Users/Lenovo/workspace/dave_workspace/SOLAR_TOWER/Libraries/XMCLib/inc\xmc_ccu4.h ****  * \par Capture configuration:
 131:C:/Users/Lenovo/workspace/dave_workspace/SOLAR_TOWER/Libraries/XMCLib/inc\xmc_ccu4.h ****  * This section of the LLD provides the configuration structure XMC_CCU4_SLICE_CAPTURE_CONFIG_t and
 132:C:/Users/Lenovo/workspace/dave_workspace/SOLAR_TOWER/Libraries/XMCLib/inc\xmc_ccu4.h ****  * function XMC_CCU4_SLICE_CaptureInit().
 133:C:/Users/Lenovo/workspace/dave_workspace/SOLAR_TOWER/Libraries/XMCLib/inc\xmc_ccu4.h ****  *
 134:C:/Users/Lenovo/workspace/dave_workspace/SOLAR_TOWER/Libraries/XMCLib/inc\xmc_ccu4.h ****  * It can be used to:
 135:C:/Users/Lenovo/workspace/dave_workspace/SOLAR_TOWER/Libraries/XMCLib/inc\xmc_ccu4.h ****  * -# Configure the capture functionality. (XMC_CCU4_SLICE_Capture0Config(), XMC_CCU4_SLICE_Capture
 136:C:/Users/Lenovo/workspace/dave_workspace/SOLAR_TOWER/Libraries/XMCLib/inc\xmc_ccu4.h ****  * -# Read the captured values along with the status, which indicate the value is latest or not.
 137:C:/Users/Lenovo/workspace/dave_workspace/SOLAR_TOWER/Libraries/XMCLib/inc\xmc_ccu4.h ****  *    (XMC_CCU4_SLICE_GetCaptureRegisterValue())
 138:C:/Users/Lenovo/workspace/dave_workspace/SOLAR_TOWER/Libraries/XMCLib/inc\xmc_ccu4.h ****  * 
 139:C:/Users/Lenovo/workspace/dave_workspace/SOLAR_TOWER/Libraries/XMCLib/inc\xmc_ccu4.h ****  * \par Function/Event configuration:
 140:C:/Users/Lenovo/workspace/dave_workspace/SOLAR_TOWER/Libraries/XMCLib/inc\xmc_ccu4.h ****  * This section of the LLD provides the configuration structure XMC_CCU4_SLICE_EVENT_CONFIG_t.\n
 141:C:/Users/Lenovo/workspace/dave_workspace/SOLAR_TOWER/Libraries/XMCLib/inc\xmc_ccu4.h ****  * 
 142:C:/Users/Lenovo/workspace/dave_workspace/SOLAR_TOWER/Libraries/XMCLib/inc\xmc_ccu4.h ****  * It can be used to:
 143:C:/Users/Lenovo/workspace/dave_workspace/SOLAR_TOWER/Libraries/XMCLib/inc\xmc_ccu4.h ****  * -# Enable and Disable the events. (XMC_CCU4_SLICE_EnableEvent(), XMC_CCU4_SLICE_DisableEvent())
 144:C:/Users/Lenovo/workspace/dave_workspace/SOLAR_TOWER/Libraries/XMCLib/inc\xmc_ccu4.h ****  * -# Configure to start and stop the timer on external events.(XMC_CCU4_SLICE_StartConfig(), XMC_C
 145:C:/Users/Lenovo/workspace/dave_workspace/SOLAR_TOWER/Libraries/XMCLib/inc\xmc_ccu4.h ****  * -# Modulation, external load and Gating of the timer output.(XMC_CCU4_SLICE_ModulationConfig(), 
 146:C:/Users/Lenovo/workspace/dave_workspace/SOLAR_TOWER/Libraries/XMCLib/inc\xmc_ccu4.h ****  *    XMC_CCU4_SLICE_LoadConfig(), XMC_CCU4_SLICE_GateConfig())
 147:C:/Users/Lenovo/workspace/dave_workspace/SOLAR_TOWER/Libraries/XMCLib/inc\xmc_ccu4.h ****  * -# Control the count direction of the timer based on the external event. (XMC_CCU4_SLICE_Directi
 148:C:/Users/Lenovo/workspace/dave_workspace/SOLAR_TOWER/Libraries/XMCLib/inc\xmc_ccu4.h ****  * -# Count the external events.(XMC_CCU4_SLICE_CountConfig())
 149:C:/Users/Lenovo/workspace/dave_workspace/SOLAR_TOWER/Libraries/XMCLib/inc\xmc_ccu4.h ****  * -# External Trap. Which can be used as protective feature.(XMC_CCU4_SLICE_EnableTrap(), XMC_CCU4
 150:C:/Users/Lenovo/workspace/dave_workspace/SOLAR_TOWER/Libraries/XMCLib/inc\xmc_ccu4.h ****  *    XMC_CCU4_SLICE_TrapConfig())
 151:C:/Users/Lenovo/workspace/dave_workspace/SOLAR_TOWER/Libraries/XMCLib/inc\xmc_ccu4.h ****  *
 152:C:/Users/Lenovo/workspace/dave_workspace/SOLAR_TOWER/Libraries/XMCLib/inc\xmc_ccu4.h ****  * \par Interrupt configuration:
 153:C:/Users/Lenovo/workspace/dave_workspace/SOLAR_TOWER/Libraries/XMCLib/inc\xmc_ccu4.h ****  * This section of the LLD provides the function to configure the interrupt node to each event (XMC
 154:C:/Users/Lenovo/workspace/dave_workspace/SOLAR_TOWER/Libraries/XMCLib/inc\xmc_ccu4.h ****  * @{
 155:C:/Users/Lenovo/workspace/dave_workspace/SOLAR_TOWER/Libraries/XMCLib/inc\xmc_ccu4.h ****  */
 156:C:/Users/Lenovo/workspace/dave_workspace/SOLAR_TOWER/Libraries/XMCLib/inc\xmc_ccu4.h ****  
 157:C:/Users/Lenovo/workspace/dave_workspace/SOLAR_TOWER/Libraries/XMCLib/inc\xmc_ccu4.h **** /**************************************************************************************************
 158:C:/Users/Lenovo/workspace/dave_workspace/SOLAR_TOWER/Libraries/XMCLib/inc\xmc_ccu4.h ****  * MACROS
 159:C:/Users/Lenovo/workspace/dave_workspace/SOLAR_TOWER/Libraries/XMCLib/inc\xmc_ccu4.h ****  **************************************************************************************************
 160:C:/Users/Lenovo/workspace/dave_workspace/SOLAR_TOWER/Libraries/XMCLib/inc\xmc_ccu4.h **** /* Macro to check if the interrupt enum passed is valid */
 161:C:/Users/Lenovo/workspace/dave_workspace/SOLAR_TOWER/Libraries/XMCLib/inc\xmc_ccu4.h **** #define XMC_CCU4_SLICE_CHECK_INTERRUPT(interrupt) \
 162:C:/Users/Lenovo/workspace/dave_workspace/SOLAR_TOWER/Libraries/XMCLib/inc\xmc_ccu4.h ****     ((interrupt == XMC_CCU4_SLICE_IRQ_ID_PERIOD_MATCH)           || \
 163:C:/Users/Lenovo/workspace/dave_workspace/SOLAR_TOWER/Libraries/XMCLib/inc\xmc_ccu4.h ****      (interrupt == XMC_CCU4_SLICE_IRQ_ID_ONE_MATCH)              || \
 164:C:/Users/Lenovo/workspace/dave_workspace/SOLAR_TOWER/Libraries/XMCLib/inc\xmc_ccu4.h ****      (interrupt == XMC_CCU4_SLICE_IRQ_ID_COMPARE_MATCH_UP)  || \
 165:C:/Users/Lenovo/workspace/dave_workspace/SOLAR_TOWER/Libraries/XMCLib/inc\xmc_ccu4.h ****      (interrupt == XMC_CCU4_SLICE_IRQ_ID_COMPARE_MATCH_DOWN)|| \
 166:C:/Users/Lenovo/workspace/dave_workspace/SOLAR_TOWER/Libraries/XMCLib/inc\xmc_ccu4.h ****      (interrupt == XMC_CCU4_SLICE_IRQ_ID_EVENT0)                 || \
 167:C:/Users/Lenovo/workspace/dave_workspace/SOLAR_TOWER/Libraries/XMCLib/inc\xmc_ccu4.h ****      (interrupt == XMC_CCU4_SLICE_IRQ_ID_EVENT1)                 || \
 168:C:/Users/Lenovo/workspace/dave_workspace/SOLAR_TOWER/Libraries/XMCLib/inc\xmc_ccu4.h ****      (interrupt == XMC_CCU4_SLICE_IRQ_ID_EVENT2)                 || \
 169:C:/Users/Lenovo/workspace/dave_workspace/SOLAR_TOWER/Libraries/XMCLib/inc\xmc_ccu4.h ****      (interrupt == XMC_CCU4_SLICE_IRQ_ID_TRAP))
 170:C:/Users/Lenovo/workspace/dave_workspace/SOLAR_TOWER/Libraries/XMCLib/inc\xmc_ccu4.h **** 
 171:C:/Users/Lenovo/workspace/dave_workspace/SOLAR_TOWER/Libraries/XMCLib/inc\xmc_ccu4.h **** /**************************************************************************************************
 172:C:/Users/Lenovo/workspace/dave_workspace/SOLAR_TOWER/Libraries/XMCLib/inc\xmc_ccu4.h ****  * ENUMS
 173:C:/Users/Lenovo/workspace/dave_workspace/SOLAR_TOWER/Libraries/XMCLib/inc\xmc_ccu4.h ****  **************************************************************************************************
 174:C:/Users/Lenovo/workspace/dave_workspace/SOLAR_TOWER/Libraries/XMCLib/inc\xmc_ccu4.h **** 
 175:C:/Users/Lenovo/workspace/dave_workspace/SOLAR_TOWER/Libraries/XMCLib/inc\xmc_ccu4.h **** /**
 176:C:/Users/Lenovo/workspace/dave_workspace/SOLAR_TOWER/Libraries/XMCLib/inc\xmc_ccu4.h ****  * Typedef for CCU4 Global data structure
 177:C:/Users/Lenovo/workspace/dave_workspace/SOLAR_TOWER/Libraries/XMCLib/inc\xmc_ccu4.h ****  */
 178:C:/Users/Lenovo/workspace/dave_workspace/SOLAR_TOWER/Libraries/XMCLib/inc\xmc_ccu4.h **** typedef CCU4_GLOBAL_TypeDef XMC_CCU4_MODULE_t;
 179:C:/Users/Lenovo/workspace/dave_workspace/SOLAR_TOWER/Libraries/XMCLib/inc\xmc_ccu4.h **** 
 180:C:/Users/Lenovo/workspace/dave_workspace/SOLAR_TOWER/Libraries/XMCLib/inc\xmc_ccu4.h **** /**
 181:C:/Users/Lenovo/workspace/dave_workspace/SOLAR_TOWER/Libraries/XMCLib/inc\xmc_ccu4.h ****  * Typedef for CCU4 Slice data structure
 182:C:/Users/Lenovo/workspace/dave_workspace/SOLAR_TOWER/Libraries/XMCLib/inc\xmc_ccu4.h ****  */
 183:C:/Users/Lenovo/workspace/dave_workspace/SOLAR_TOWER/Libraries/XMCLib/inc\xmc_ccu4.h **** typedef CCU4_CC4_TypeDef XMC_CCU4_SLICE_t;
 184:C:/Users/Lenovo/workspace/dave_workspace/SOLAR_TOWER/Libraries/XMCLib/inc\xmc_ccu4.h **** 
 185:C:/Users/Lenovo/workspace/dave_workspace/SOLAR_TOWER/Libraries/XMCLib/inc\xmc_ccu4.h **** /**
 186:C:/Users/Lenovo/workspace/dave_workspace/SOLAR_TOWER/Libraries/XMCLib/inc\xmc_ccu4.h ****  *  Return Value of an API
 187:C:/Users/Lenovo/workspace/dave_workspace/SOLAR_TOWER/Libraries/XMCLib/inc\xmc_ccu4.h ****  */ 
 188:C:/Users/Lenovo/workspace/dave_workspace/SOLAR_TOWER/Libraries/XMCLib/inc\xmc_ccu4.h **** typedef enum XMC_CCU4_STATUS
 189:C:/Users/Lenovo/workspace/dave_workspace/SOLAR_TOWER/Libraries/XMCLib/inc\xmc_ccu4.h **** {
 190:C:/Users/Lenovo/workspace/dave_workspace/SOLAR_TOWER/Libraries/XMCLib/inc\xmc_ccu4.h ****   XMC_CCU4_STATUS_OK      = 0U, /**< API fulfils request */
 191:C:/Users/Lenovo/workspace/dave_workspace/SOLAR_TOWER/Libraries/XMCLib/inc\xmc_ccu4.h ****   XMC_CCU4_STATUS_ERROR       , /**< API cannot fulfil the request */
 192:C:/Users/Lenovo/workspace/dave_workspace/SOLAR_TOWER/Libraries/XMCLib/inc\xmc_ccu4.h ****   XMC_CCU4_STATUS_RUNNING     , /**< The timer slice is currently running */
 193:C:/Users/Lenovo/workspace/dave_workspace/SOLAR_TOWER/Libraries/XMCLib/inc\xmc_ccu4.h ****   XMC_CCU4_STATUS_IDLE          /**< The timer slice is currently idle */
 194:C:/Users/Lenovo/workspace/dave_workspace/SOLAR_TOWER/Libraries/XMCLib/inc\xmc_ccu4.h **** } XMC_CCU4_STATUS_t;
 195:C:/Users/Lenovo/workspace/dave_workspace/SOLAR_TOWER/Libraries/XMCLib/inc\xmc_ccu4.h **** 
 196:C:/Users/Lenovo/workspace/dave_workspace/SOLAR_TOWER/Libraries/XMCLib/inc\xmc_ccu4.h **** /**
 197:C:/Users/Lenovo/workspace/dave_workspace/SOLAR_TOWER/Libraries/XMCLib/inc\xmc_ccu4.h ****  *  CCU4 module clock
 198:C:/Users/Lenovo/workspace/dave_workspace/SOLAR_TOWER/Libraries/XMCLib/inc\xmc_ccu4.h ****  */ 
 199:C:/Users/Lenovo/workspace/dave_workspace/SOLAR_TOWER/Libraries/XMCLib/inc\xmc_ccu4.h **** typedef enum XMC_CCU4_CLOCK
 200:C:/Users/Lenovo/workspace/dave_workspace/SOLAR_TOWER/Libraries/XMCLib/inc\xmc_ccu4.h **** {
 201:C:/Users/Lenovo/workspace/dave_workspace/SOLAR_TOWER/Libraries/XMCLib/inc\xmc_ccu4.h ****   XMC_CCU4_CLOCK_SCU        = 0U, /**< Select the fCCU as the clock */
 202:C:/Users/Lenovo/workspace/dave_workspace/SOLAR_TOWER/Libraries/XMCLib/inc\xmc_ccu4.h ****   XMC_CCU4_CLOCK_EXTERNAL_A     , /**< External clock-A */
 203:C:/Users/Lenovo/workspace/dave_workspace/SOLAR_TOWER/Libraries/XMCLib/inc\xmc_ccu4.h ****   XMC_CCU4_CLOCK_EXTERNAL_B     , /**< External clock-B */
 204:C:/Users/Lenovo/workspace/dave_workspace/SOLAR_TOWER/Libraries/XMCLib/inc\xmc_ccu4.h ****   XMC_CCU4_CLOCK_EXTERNAL_C       /**< External clock-C */
 205:C:/Users/Lenovo/workspace/dave_workspace/SOLAR_TOWER/Libraries/XMCLib/inc\xmc_ccu4.h **** } XMC_CCU4_CLOCK_t;
 206:C:/Users/Lenovo/workspace/dave_workspace/SOLAR_TOWER/Libraries/XMCLib/inc\xmc_ccu4.h **** 
 207:C:/Users/Lenovo/workspace/dave_workspace/SOLAR_TOWER/Libraries/XMCLib/inc\xmc_ccu4.h **** /**
 208:C:/Users/Lenovo/workspace/dave_workspace/SOLAR_TOWER/Libraries/XMCLib/inc\xmc_ccu4.h ****  * CCU4 set the shadow transfer type for multichannel mode
 209:C:/Users/Lenovo/workspace/dave_workspace/SOLAR_TOWER/Libraries/XMCLib/inc\xmc_ccu4.h ****  */
 210:C:/Users/Lenovo/workspace/dave_workspace/SOLAR_TOWER/Libraries/XMCLib/inc\xmc_ccu4.h **** typedef enum XMC_CCU4_MULTI_CHANNEL_SHADOW_TRANSFER
 211:C:/Users/Lenovo/workspace/dave_workspace/SOLAR_TOWER/Libraries/XMCLib/inc\xmc_ccu4.h **** {
 212:C:/Users/Lenovo/workspace/dave_workspace/SOLAR_TOWER/Libraries/XMCLib/inc\xmc_ccu4.h ****   XMC_CCU4_MULTI_CHANNEL_SHADOW_TRANSFER_SW_SLICE0       = (uint32_t)0x4000000, /**< Shadow transfe
 213:C:/Users/Lenovo/workspace/dave_workspace/SOLAR_TOWER/Libraries/XMCLib/inc\xmc_ccu4.h ****                                                                                      only for slice
 214:C:/Users/Lenovo/workspace/dave_workspace/SOLAR_TOWER/Libraries/XMCLib/inc\xmc_ccu4.h ****   XMC_CCU4_MULTI_CHANNEL_SHADOW_TRANSFER_SW_MCSS_SLICE0  = (uint32_t)0x4000400, /**< Shadow transfe
 215:C:/Users/Lenovo/workspace/dave_workspace/SOLAR_TOWER/Libraries/XMCLib/inc\xmc_ccu4.h ****                                                                                      and hardware f
 216:C:/Users/Lenovo/workspace/dave_workspace/SOLAR_TOWER/Libraries/XMCLib/inc\xmc_ccu4.h ****   XMC_CCU4_MULTI_CHANNEL_SHADOW_TRANSFER_SW_SLICE1       = (uint32_t)0x8000000, /**< Shadow transfe
 217:C:/Users/Lenovo/workspace/dave_workspace/SOLAR_TOWER/Libraries/XMCLib/inc\xmc_ccu4.h ****                                                                                      only for slice
 218:C:/Users/Lenovo/workspace/dave_workspace/SOLAR_TOWER/Libraries/XMCLib/inc\xmc_ccu4.h ****   XMC_CCU4_MULTI_CHANNEL_SHADOW_TRANSFER_SW_MCSS_SLICE1  = (uint32_t)0x8000800, /**< Shadow transfe
 219:C:/Users/Lenovo/workspace/dave_workspace/SOLAR_TOWER/Libraries/XMCLib/inc\xmc_ccu4.h ****                                                                                      and hardware f
 220:C:/Users/Lenovo/workspace/dave_workspace/SOLAR_TOWER/Libraries/XMCLib/inc\xmc_ccu4.h ****   XMC_CCU4_MULTI_CHANNEL_SHADOW_TRANSFER_SW_SLICE2       = (uint32_t)0x10000000, /**< Shadow transf
 221:C:/Users/Lenovo/workspace/dave_workspace/SOLAR_TOWER/Libraries/XMCLib/inc\xmc_ccu4.h ****                                                                                       only for slic
 222:C:/Users/Lenovo/workspace/dave_workspace/SOLAR_TOWER/Libraries/XMCLib/inc\xmc_ccu4.h ****   XMC_CCU4_MULTI_CHANNEL_SHADOW_TRANSFER_SW_MCSS_SLICE2  = (uint32_t)0x10001000, /**< Shadow transf
 223:C:/Users/Lenovo/workspace/dave_workspace/SOLAR_TOWER/Libraries/XMCLib/inc\xmc_ccu4.h ****                                                                                       and hardware 
 224:C:/Users/Lenovo/workspace/dave_workspace/SOLAR_TOWER/Libraries/XMCLib/inc\xmc_ccu4.h ****   XMC_CCU4_MULTI_CHANNEL_SHADOW_TRANSFER_SW_SLICE3       = (uint32_t)0x20000000, /**< Shadow transf
 225:C:/Users/Lenovo/workspace/dave_workspace/SOLAR_TOWER/Libraries/XMCLib/inc\xmc_ccu4.h ****                                                                                       only for slic
 226:C:/Users/Lenovo/workspace/dave_workspace/SOLAR_TOWER/Libraries/XMCLib/inc\xmc_ccu4.h ****   XMC_CCU4_MULTI_CHANNEL_SHADOW_TRANSFER_SW_MCSS_SLICE3  = (uint32_t)0x20002000  /**< Shadow transf
 227:C:/Users/Lenovo/workspace/dave_workspace/SOLAR_TOWER/Libraries/XMCLib/inc\xmc_ccu4.h ****                                                                                       and hardware 
 228:C:/Users/Lenovo/workspace/dave_workspace/SOLAR_TOWER/Libraries/XMCLib/inc\xmc_ccu4.h **** } XMC_CCU4_MULTI_CHANNEL_SHADOW_TRANSFER_t;
 229:C:/Users/Lenovo/workspace/dave_workspace/SOLAR_TOWER/Libraries/XMCLib/inc\xmc_ccu4.h **** 
 230:C:/Users/Lenovo/workspace/dave_workspace/SOLAR_TOWER/Libraries/XMCLib/inc\xmc_ccu4.h **** /**
 231:C:/Users/Lenovo/workspace/dave_workspace/SOLAR_TOWER/Libraries/XMCLib/inc\xmc_ccu4.h ****  *  Operational modes of CCU4 slice
 232:C:/Users/Lenovo/workspace/dave_workspace/SOLAR_TOWER/Libraries/XMCLib/inc\xmc_ccu4.h ****  */ 
 233:C:/Users/Lenovo/workspace/dave_workspace/SOLAR_TOWER/Libraries/XMCLib/inc\xmc_ccu4.h **** typedef enum XMC_CCU4_SLICE_MODE
 234:C:/Users/Lenovo/workspace/dave_workspace/SOLAR_TOWER/Libraries/XMCLib/inc\xmc_ccu4.h **** {
 235:C:/Users/Lenovo/workspace/dave_workspace/SOLAR_TOWER/Libraries/XMCLib/inc\xmc_ccu4.h ****   XMC_CCU4_SLICE_MODE_COMPARE  = 0U, /**< slice(CC4y) operates in Compare Mode */
 236:C:/Users/Lenovo/workspace/dave_workspace/SOLAR_TOWER/Libraries/XMCLib/inc\xmc_ccu4.h ****   XMC_CCU4_SLICE_MODE_CAPTURE        /**< slice(CC4y) operates in Capture Mode */
 237:C:/Users/Lenovo/workspace/dave_workspace/SOLAR_TOWER/Libraries/XMCLib/inc\xmc_ccu4.h **** } XMC_CCU4_SLICE_MODE_t;
 238:C:/Users/Lenovo/workspace/dave_workspace/SOLAR_TOWER/Libraries/XMCLib/inc\xmc_ccu4.h **** 
 239:C:/Users/Lenovo/workspace/dave_workspace/SOLAR_TOWER/Libraries/XMCLib/inc\xmc_ccu4.h **** /**
 240:C:/Users/Lenovo/workspace/dave_workspace/SOLAR_TOWER/Libraries/XMCLib/inc\xmc_ccu4.h ****  *  Timer counting modes for the slice
 241:C:/Users/Lenovo/workspace/dave_workspace/SOLAR_TOWER/Libraries/XMCLib/inc\xmc_ccu4.h ****  */ 
 242:C:/Users/Lenovo/workspace/dave_workspace/SOLAR_TOWER/Libraries/XMCLib/inc\xmc_ccu4.h **** typedef enum XMC_CCU4_SLICE_TIMER_COUNT_MODE
 243:C:/Users/Lenovo/workspace/dave_workspace/SOLAR_TOWER/Libraries/XMCLib/inc\xmc_ccu4.h **** {
 244:C:/Users/Lenovo/workspace/dave_workspace/SOLAR_TOWER/Libraries/XMCLib/inc\xmc_ccu4.h ****   XMC_CCU4_SLICE_TIMER_COUNT_MODE_EA  = 0U, /**< Edge Aligned Mode */
 245:C:/Users/Lenovo/workspace/dave_workspace/SOLAR_TOWER/Libraries/XMCLib/inc\xmc_ccu4.h ****   XMC_CCU4_SLICE_TIMER_COUNT_MODE_CA        /**< Center Aligned Mode */
 246:C:/Users/Lenovo/workspace/dave_workspace/SOLAR_TOWER/Libraries/XMCLib/inc\xmc_ccu4.h **** } XMC_CCU4_SLICE_TIMER_COUNT_MODE_t;
 247:C:/Users/Lenovo/workspace/dave_workspace/SOLAR_TOWER/Libraries/XMCLib/inc\xmc_ccu4.h **** 
 248:C:/Users/Lenovo/workspace/dave_workspace/SOLAR_TOWER/Libraries/XMCLib/inc\xmc_ccu4.h **** /**
 249:C:/Users/Lenovo/workspace/dave_workspace/SOLAR_TOWER/Libraries/XMCLib/inc\xmc_ccu4.h ****  *  Timer repetition mode for the slice
 250:C:/Users/Lenovo/workspace/dave_workspace/SOLAR_TOWER/Libraries/XMCLib/inc\xmc_ccu4.h ****  */ 
 251:C:/Users/Lenovo/workspace/dave_workspace/SOLAR_TOWER/Libraries/XMCLib/inc\xmc_ccu4.h **** typedef enum XMC_CCU4_SLICE_TIMER_REPEAT_MODE
 252:C:/Users/Lenovo/workspace/dave_workspace/SOLAR_TOWER/Libraries/XMCLib/inc\xmc_ccu4.h **** {
 253:C:/Users/Lenovo/workspace/dave_workspace/SOLAR_TOWER/Libraries/XMCLib/inc\xmc_ccu4.h ****   XMC_CCU4_SLICE_TIMER_REPEAT_MODE_REPEAT = 0U,  /**< Repetitive mode: continuous mode of operation
 254:C:/Users/Lenovo/workspace/dave_workspace/SOLAR_TOWER/Libraries/XMCLib/inc\xmc_ccu4.h ****   XMC_CCU4_SLICE_TIMER_REPEAT_MODE_SINGLE        /**< Single shot mode: Once a Period match/One mat
 255:C:/Users/Lenovo/workspace/dave_workspace/SOLAR_TOWER/Libraries/XMCLib/inc\xmc_ccu4.h ****                                                       occurs timer goes to idle state */
 256:C:/Users/Lenovo/workspace/dave_workspace/SOLAR_TOWER/Libraries/XMCLib/inc\xmc_ccu4.h **** } XMC_CCU4_SLICE_TIMER_REPEAT_MODE_t;
 257:C:/Users/Lenovo/workspace/dave_workspace/SOLAR_TOWER/Libraries/XMCLib/inc\xmc_ccu4.h **** 
 258:C:/Users/Lenovo/workspace/dave_workspace/SOLAR_TOWER/Libraries/XMCLib/inc\xmc_ccu4.h **** /**
 259:C:/Users/Lenovo/workspace/dave_workspace/SOLAR_TOWER/Libraries/XMCLib/inc\xmc_ccu4.h ****  * Timer counting direction for the CCU4 slice
 260:C:/Users/Lenovo/workspace/dave_workspace/SOLAR_TOWER/Libraries/XMCLib/inc\xmc_ccu4.h ****  */ 
 261:C:/Users/Lenovo/workspace/dave_workspace/SOLAR_TOWER/Libraries/XMCLib/inc\xmc_ccu4.h **** typedef enum XMC_CCU4_SLICE_TIMER_COUNT_DIR
 262:C:/Users/Lenovo/workspace/dave_workspace/SOLAR_TOWER/Libraries/XMCLib/inc\xmc_ccu4.h **** {
 263:C:/Users/Lenovo/workspace/dave_workspace/SOLAR_TOWER/Libraries/XMCLib/inc\xmc_ccu4.h ****   XMC_CCU4_SLICE_TIMER_COUNT_DIR_UP   = 0U, /**< Counting up */
 264:C:/Users/Lenovo/workspace/dave_workspace/SOLAR_TOWER/Libraries/XMCLib/inc\xmc_ccu4.h ****   XMC_CCU4_SLICE_TIMER_COUNT_DIR_DOWN       /**< Counting down */
 265:C:/Users/Lenovo/workspace/dave_workspace/SOLAR_TOWER/Libraries/XMCLib/inc\xmc_ccu4.h **** } XMC_CCU4_SLICE_TIMER_COUNT_DIR_t;
 266:C:/Users/Lenovo/workspace/dave_workspace/SOLAR_TOWER/Libraries/XMCLib/inc\xmc_ccu4.h **** 
 267:C:/Users/Lenovo/workspace/dave_workspace/SOLAR_TOWER/Libraries/XMCLib/inc\xmc_ccu4.h **** /**
 268:C:/Users/Lenovo/workspace/dave_workspace/SOLAR_TOWER/Libraries/XMCLib/inc\xmc_ccu4.h ****  *  Capture mode register sets
 269:C:/Users/Lenovo/workspace/dave_workspace/SOLAR_TOWER/Libraries/XMCLib/inc\xmc_ccu4.h ****  */ 
 270:C:/Users/Lenovo/workspace/dave_workspace/SOLAR_TOWER/Libraries/XMCLib/inc\xmc_ccu4.h **** typedef enum XMC_CCU4_SLICE_CAP_REG_SET
 271:C:/Users/Lenovo/workspace/dave_workspace/SOLAR_TOWER/Libraries/XMCLib/inc\xmc_ccu4.h **** {
 272:C:/Users/Lenovo/workspace/dave_workspace/SOLAR_TOWER/Libraries/XMCLib/inc\xmc_ccu4.h ****   XMC_CCU4_SLICE_CAP_REG_SET_LOW  = 0U, /**< Capture register-0, Capture register-1 used */
 273:C:/Users/Lenovo/workspace/dave_workspace/SOLAR_TOWER/Libraries/XMCLib/inc\xmc_ccu4.h ****   XMC_CCU4_SLICE_CAP_REG_SET_HIGH       /**< Capture register-2, Capture register-3 used */
 274:C:/Users/Lenovo/workspace/dave_workspace/SOLAR_TOWER/Libraries/XMCLib/inc\xmc_ccu4.h **** } XMC_CCU4_SLICE_CAP_REG_SET_t;
 275:C:/Users/Lenovo/workspace/dave_workspace/SOLAR_TOWER/Libraries/XMCLib/inc\xmc_ccu4.h **** 
 276:C:/Users/Lenovo/workspace/dave_workspace/SOLAR_TOWER/Libraries/XMCLib/inc\xmc_ccu4.h **** /**
 277:C:/Users/Lenovo/workspace/dave_workspace/SOLAR_TOWER/Libraries/XMCLib/inc\xmc_ccu4.h ****  *  Prescaler mode
 278:C:/Users/Lenovo/workspace/dave_workspace/SOLAR_TOWER/Libraries/XMCLib/inc\xmc_ccu4.h ****  */ 
 279:C:/Users/Lenovo/workspace/dave_workspace/SOLAR_TOWER/Libraries/XMCLib/inc\xmc_ccu4.h **** typedef enum XMC_CCU4_SLICE_PRESCALER_MODE
 280:C:/Users/Lenovo/workspace/dave_workspace/SOLAR_TOWER/Libraries/XMCLib/inc\xmc_ccu4.h **** {
 281:C:/Users/Lenovo/workspace/dave_workspace/SOLAR_TOWER/Libraries/XMCLib/inc\xmc_ccu4.h ****   XMC_CCU4_SLICE_PRESCALER_MODE_NORMAL = 0U, /**< Fixed division of module clock */
 282:C:/Users/Lenovo/workspace/dave_workspace/SOLAR_TOWER/Libraries/XMCLib/inc\xmc_ccu4.h ****   XMC_CCU4_SLICE_PRESCALER_MODE_FLOAT        /**< Floating divider. */
 283:C:/Users/Lenovo/workspace/dave_workspace/SOLAR_TOWER/Libraries/XMCLib/inc\xmc_ccu4.h **** } XMC_CCU4_SLICE_PRESCALER_MODE_t;
 284:C:/Users/Lenovo/workspace/dave_workspace/SOLAR_TOWER/Libraries/XMCLib/inc\xmc_ccu4.h **** 
 285:C:/Users/Lenovo/workspace/dave_workspace/SOLAR_TOWER/Libraries/XMCLib/inc\xmc_ccu4.h **** /**
 286:C:/Users/Lenovo/workspace/dave_workspace/SOLAR_TOWER/Libraries/XMCLib/inc\xmc_ccu4.h ****  *  Timer output passive level
 287:C:/Users/Lenovo/workspace/dave_workspace/SOLAR_TOWER/Libraries/XMCLib/inc\xmc_ccu4.h ****  */ 
 288:C:/Users/Lenovo/workspace/dave_workspace/SOLAR_TOWER/Libraries/XMCLib/inc\xmc_ccu4.h **** typedef enum XMC_CCU4_SLICE_OUTPUT_PASSIVE_LEVEL
 289:C:/Users/Lenovo/workspace/dave_workspace/SOLAR_TOWER/Libraries/XMCLib/inc\xmc_ccu4.h **** {
 290:C:/Users/Lenovo/workspace/dave_workspace/SOLAR_TOWER/Libraries/XMCLib/inc\xmc_ccu4.h ****   XMC_CCU4_SLICE_OUTPUT_PASSIVE_LEVEL_LOW  = 0U, /**< Passive level = Low */
 291:C:/Users/Lenovo/workspace/dave_workspace/SOLAR_TOWER/Libraries/XMCLib/inc\xmc_ccu4.h ****   XMC_CCU4_SLICE_OUTPUT_PASSIVE_LEVEL_HIGH       /**< Passive level = High */
 292:C:/Users/Lenovo/workspace/dave_workspace/SOLAR_TOWER/Libraries/XMCLib/inc\xmc_ccu4.h **** } XMC_CCU4_SLICE_OUTPUT_PASSIVE_LEVEL_t;
 293:C:/Users/Lenovo/workspace/dave_workspace/SOLAR_TOWER/Libraries/XMCLib/inc\xmc_ccu4.h **** 
 294:C:/Users/Lenovo/workspace/dave_workspace/SOLAR_TOWER/Libraries/XMCLib/inc\xmc_ccu4.h **** /**
 295:C:/Users/Lenovo/workspace/dave_workspace/SOLAR_TOWER/Libraries/XMCLib/inc\xmc_ccu4.h ****  * Timer clock Divider
 296:C:/Users/Lenovo/workspace/dave_workspace/SOLAR_TOWER/Libraries/XMCLib/inc\xmc_ccu4.h ****  */
 297:C:/Users/Lenovo/workspace/dave_workspace/SOLAR_TOWER/Libraries/XMCLib/inc\xmc_ccu4.h **** typedef enum XMC_CCU4_SLICE_PRESCALER
 298:C:/Users/Lenovo/workspace/dave_workspace/SOLAR_TOWER/Libraries/XMCLib/inc\xmc_ccu4.h **** {
 299:C:/Users/Lenovo/workspace/dave_workspace/SOLAR_TOWER/Libraries/XMCLib/inc\xmc_ccu4.h ****   XMC_CCU4_SLICE_PRESCALER_1  = 0U, /**< Slice Clock = fccu4 */
 300:C:/Users/Lenovo/workspace/dave_workspace/SOLAR_TOWER/Libraries/XMCLib/inc\xmc_ccu4.h ****   XMC_CCU4_SLICE_PRESCALER_2      , /**< Slice Clock = fccu4/2 */
 301:C:/Users/Lenovo/workspace/dave_workspace/SOLAR_TOWER/Libraries/XMCLib/inc\xmc_ccu4.h ****   XMC_CCU4_SLICE_PRESCALER_4      , /**< Slice Clock = fccu4/4 */
 302:C:/Users/Lenovo/workspace/dave_workspace/SOLAR_TOWER/Libraries/XMCLib/inc\xmc_ccu4.h ****   XMC_CCU4_SLICE_PRESCALER_8      , /**< Slice Clock = fccu4/8 */
 303:C:/Users/Lenovo/workspace/dave_workspace/SOLAR_TOWER/Libraries/XMCLib/inc\xmc_ccu4.h ****   XMC_CCU4_SLICE_PRESCALER_16     , /**< Slice Clock = fccu4/16 */
 304:C:/Users/Lenovo/workspace/dave_workspace/SOLAR_TOWER/Libraries/XMCLib/inc\xmc_ccu4.h ****   XMC_CCU4_SLICE_PRESCALER_32     , /**< Slice Clock = fccu4/32 */
 305:C:/Users/Lenovo/workspace/dave_workspace/SOLAR_TOWER/Libraries/XMCLib/inc\xmc_ccu4.h ****   XMC_CCU4_SLICE_PRESCALER_64     , /**< Slice Clock = fccu4/64 */
 306:C:/Users/Lenovo/workspace/dave_workspace/SOLAR_TOWER/Libraries/XMCLib/inc\xmc_ccu4.h ****   XMC_CCU4_SLICE_PRESCALER_128    , /**< Slice Clock = fccu4/128 */
 307:C:/Users/Lenovo/workspace/dave_workspace/SOLAR_TOWER/Libraries/XMCLib/inc\xmc_ccu4.h ****   XMC_CCU4_SLICE_PRESCALER_256    , /**< Slice Clock = fccu4/256 */
 308:C:/Users/Lenovo/workspace/dave_workspace/SOLAR_TOWER/Libraries/XMCLib/inc\xmc_ccu4.h ****   XMC_CCU4_SLICE_PRESCALER_512    , /**< Slice Clock = fccu4/512 */
 309:C:/Users/Lenovo/workspace/dave_workspace/SOLAR_TOWER/Libraries/XMCLib/inc\xmc_ccu4.h ****   XMC_CCU4_SLICE_PRESCALER_1024   , /**< Slice Clock = fccu4/1024 */
 310:C:/Users/Lenovo/workspace/dave_workspace/SOLAR_TOWER/Libraries/XMCLib/inc\xmc_ccu4.h ****   XMC_CCU4_SLICE_PRESCALER_2048   , /**< Slice Clock = fccu4/2048 */
 311:C:/Users/Lenovo/workspace/dave_workspace/SOLAR_TOWER/Libraries/XMCLib/inc\xmc_ccu4.h ****   XMC_CCU4_SLICE_PRESCALER_4096   , /**< Slice Clock = fccu4/4096 */
 312:C:/Users/Lenovo/workspace/dave_workspace/SOLAR_TOWER/Libraries/XMCLib/inc\xmc_ccu4.h ****   XMC_CCU4_SLICE_PRESCALER_8192   , /**< Slice Clock = fccu4/8192 */
 313:C:/Users/Lenovo/workspace/dave_workspace/SOLAR_TOWER/Libraries/XMCLib/inc\xmc_ccu4.h ****   XMC_CCU4_SLICE_PRESCALER_16384  , /**< Slice Clock = fccu4/16384 */
 314:C:/Users/Lenovo/workspace/dave_workspace/SOLAR_TOWER/Libraries/XMCLib/inc\xmc_ccu4.h ****   XMC_CCU4_SLICE_PRESCALER_32768    /**< Slice Clock = fccu4/32768 */
 315:C:/Users/Lenovo/workspace/dave_workspace/SOLAR_TOWER/Libraries/XMCLib/inc\xmc_ccu4.h **** } XMC_CCU4_SLICE_PRESCALER_t;
 316:C:/Users/Lenovo/workspace/dave_workspace/SOLAR_TOWER/Libraries/XMCLib/inc\xmc_ccu4.h **** 
 317:C:/Users/Lenovo/workspace/dave_workspace/SOLAR_TOWER/Libraries/XMCLib/inc\xmc_ccu4.h **** /**
 318:C:/Users/Lenovo/workspace/dave_workspace/SOLAR_TOWER/Libraries/XMCLib/inc\xmc_ccu4.h ****  *  External Function list
 319:C:/Users/Lenovo/workspace/dave_workspace/SOLAR_TOWER/Libraries/XMCLib/inc\xmc_ccu4.h ****  */ 
 320:C:/Users/Lenovo/workspace/dave_workspace/SOLAR_TOWER/Libraries/XMCLib/inc\xmc_ccu4.h **** typedef enum XMC_CCU4_SLICE_FUNCTION
 321:C:/Users/Lenovo/workspace/dave_workspace/SOLAR_TOWER/Libraries/XMCLib/inc\xmc_ccu4.h **** {
 322:C:/Users/Lenovo/workspace/dave_workspace/SOLAR_TOWER/Libraries/XMCLib/inc\xmc_ccu4.h ****   XMC_CCU4_SLICE_FUNCTION_START           = 0U, /**< Start function */
 323:C:/Users/Lenovo/workspace/dave_workspace/SOLAR_TOWER/Libraries/XMCLib/inc\xmc_ccu4.h ****   XMC_CCU4_SLICE_FUNCTION_STOP                , /**< Stop function */
 324:C:/Users/Lenovo/workspace/dave_workspace/SOLAR_TOWER/Libraries/XMCLib/inc\xmc_ccu4.h ****   XMC_CCU4_SLICE_FUNCTION_CAPTURE_EVENT0      , /**< Capture Event-0 function, CCycapt0 signal is u
 325:C:/Users/Lenovo/workspace/dave_workspace/SOLAR_TOWER/Libraries/XMCLib/inc\xmc_ccu4.h ****                                                      generation */
 326:C:/Users/Lenovo/workspace/dave_workspace/SOLAR_TOWER/Libraries/XMCLib/inc\xmc_ccu4.h ****   XMC_CCU4_SLICE_FUNCTION_CAPTURE_EVENT1      , /**< Capture Event-1 function, CCycapt1 signal is u
 327:C:/Users/Lenovo/workspace/dave_workspace/SOLAR_TOWER/Libraries/XMCLib/inc\xmc_ccu4.h ****                                                      generation */
 328:C:/Users/Lenovo/workspace/dave_workspace/SOLAR_TOWER/Libraries/XMCLib/inc\xmc_ccu4.h ****   XMC_CCU4_SLICE_FUNCTION_GATING              , /**< Gating function */
 329:C:/Users/Lenovo/workspace/dave_workspace/SOLAR_TOWER/Libraries/XMCLib/inc\xmc_ccu4.h ****   XMC_CCU4_SLICE_FUNCTION_DIRECTION           , /**< Direction function */
 330:C:/Users/Lenovo/workspace/dave_workspace/SOLAR_TOWER/Libraries/XMCLib/inc\xmc_ccu4.h ****   XMC_CCU4_SLICE_FUNCTION_LOAD                , /**< Load function */
 331:C:/Users/Lenovo/workspace/dave_workspace/SOLAR_TOWER/Libraries/XMCLib/inc\xmc_ccu4.h ****   XMC_CCU4_SLICE_FUNCTION_COUNT               , /**< Counting function */
 332:C:/Users/Lenovo/workspace/dave_workspace/SOLAR_TOWER/Libraries/XMCLib/inc\xmc_ccu4.h ****   XMC_CCU4_SLICE_FUNCTION_OVERRIDE            , /**< Override function */
 333:C:/Users/Lenovo/workspace/dave_workspace/SOLAR_TOWER/Libraries/XMCLib/inc\xmc_ccu4.h ****   XMC_CCU4_SLICE_FUNCTION_MODULATION          , /**< Modulation function */
 334:C:/Users/Lenovo/workspace/dave_workspace/SOLAR_TOWER/Libraries/XMCLib/inc\xmc_ccu4.h ****   XMC_CCU4_SLICE_FUNCTION_TRAP                  /**< Trap function */
 335:C:/Users/Lenovo/workspace/dave_workspace/SOLAR_TOWER/Libraries/XMCLib/inc\xmc_ccu4.h **** } XMC_CCU4_SLICE_FUNCTION_t;
 336:C:/Users/Lenovo/workspace/dave_workspace/SOLAR_TOWER/Libraries/XMCLib/inc\xmc_ccu4.h **** 
 337:C:/Users/Lenovo/workspace/dave_workspace/SOLAR_TOWER/Libraries/XMCLib/inc\xmc_ccu4.h **** /**
 338:C:/Users/Lenovo/workspace/dave_workspace/SOLAR_TOWER/Libraries/XMCLib/inc\xmc_ccu4.h ****  *  External Event list
 339:C:/Users/Lenovo/workspace/dave_workspace/SOLAR_TOWER/Libraries/XMCLib/inc\xmc_ccu4.h ****  */ 
 340:C:/Users/Lenovo/workspace/dave_workspace/SOLAR_TOWER/Libraries/XMCLib/inc\xmc_ccu4.h **** typedef enum XMC_CCU4_SLICE_EVENT
 341:C:/Users/Lenovo/workspace/dave_workspace/SOLAR_TOWER/Libraries/XMCLib/inc\xmc_ccu4.h **** {
 342:C:/Users/Lenovo/workspace/dave_workspace/SOLAR_TOWER/Libraries/XMCLib/inc\xmc_ccu4.h ****   XMC_CCU4_SLICE_EVENT_NONE  = 0U, /**< None */
 343:C:/Users/Lenovo/workspace/dave_workspace/SOLAR_TOWER/Libraries/XMCLib/inc\xmc_ccu4.h ****   XMC_CCU4_SLICE_EVENT_0         , /**< Event-0 */
 344:C:/Users/Lenovo/workspace/dave_workspace/SOLAR_TOWER/Libraries/XMCLib/inc\xmc_ccu4.h ****   XMC_CCU4_SLICE_EVENT_1         , /**< Event-1 */
 345:C:/Users/Lenovo/workspace/dave_workspace/SOLAR_TOWER/Libraries/XMCLib/inc\xmc_ccu4.h ****   XMC_CCU4_SLICE_EVENT_2           /**< Event-2 */
 346:C:/Users/Lenovo/workspace/dave_workspace/SOLAR_TOWER/Libraries/XMCLib/inc\xmc_ccu4.h **** } XMC_CCU4_SLICE_EVENT_t;
 347:C:/Users/Lenovo/workspace/dave_workspace/SOLAR_TOWER/Libraries/XMCLib/inc\xmc_ccu4.h **** 
 348:C:/Users/Lenovo/workspace/dave_workspace/SOLAR_TOWER/Libraries/XMCLib/inc\xmc_ccu4.h **** /**
 349:C:/Users/Lenovo/workspace/dave_workspace/SOLAR_TOWER/Libraries/XMCLib/inc\xmc_ccu4.h ****  *  External Event trigger criteria  - Edge sensitivity
 350:C:/Users/Lenovo/workspace/dave_workspace/SOLAR_TOWER/Libraries/XMCLib/inc\xmc_ccu4.h ****  */ 
 351:C:/Users/Lenovo/workspace/dave_workspace/SOLAR_TOWER/Libraries/XMCLib/inc\xmc_ccu4.h **** typedef enum XMC_CCU4_SLICE_EVENT_EDGE_SENSITIVITY
 352:C:/Users/Lenovo/workspace/dave_workspace/SOLAR_TOWER/Libraries/XMCLib/inc\xmc_ccu4.h **** {
 353:C:/Users/Lenovo/workspace/dave_workspace/SOLAR_TOWER/Libraries/XMCLib/inc\xmc_ccu4.h ****   XMC_CCU4_SLICE_EVENT_EDGE_SENSITIVITY_NONE         = 0U, /**< None */
 354:C:/Users/Lenovo/workspace/dave_workspace/SOLAR_TOWER/Libraries/XMCLib/inc\xmc_ccu4.h ****   XMC_CCU4_SLICE_EVENT_EDGE_SENSITIVITY_RISING_EDGE      , /**< Rising Edge of the input signal gen
 355:C:/Users/Lenovo/workspace/dave_workspace/SOLAR_TOWER/Libraries/XMCLib/inc\xmc_ccu4.h ****   XMC_CCU4_SLICE_EVENT_EDGE_SENSITIVITY_FALLING_EDGE     , /**< Falling Edge of the input signal ge
 356:C:/Users/Lenovo/workspace/dave_workspace/SOLAR_TOWER/Libraries/XMCLib/inc\xmc_ccu4.h ****                                                                 trigger */
 357:C:/Users/Lenovo/workspace/dave_workspace/SOLAR_TOWER/Libraries/XMCLib/inc\xmc_ccu4.h ****   XMC_CCU4_SLICE_EVENT_EDGE_SENSITIVITY_DUAL_EDGE          /**< Both Rising and Falling edges cause
 358:C:/Users/Lenovo/workspace/dave_workspace/SOLAR_TOWER/Libraries/XMCLib/inc\xmc_ccu4.h **** } XMC_CCU4_SLICE_EVENT_EDGE_SENSITIVITY_t;
 359:C:/Users/Lenovo/workspace/dave_workspace/SOLAR_TOWER/Libraries/XMCLib/inc\xmc_ccu4.h **** 
 360:C:/Users/Lenovo/workspace/dave_workspace/SOLAR_TOWER/Libraries/XMCLib/inc\xmc_ccu4.h **** /**
 361:C:/Users/Lenovo/workspace/dave_workspace/SOLAR_TOWER/Libraries/XMCLib/inc\xmc_ccu4.h ****  *  External Event trigger criteria  - Level sensitivity
 362:C:/Users/Lenovo/workspace/dave_workspace/SOLAR_TOWER/Libraries/XMCLib/inc\xmc_ccu4.h ****  */ 
 363:C:/Users/Lenovo/workspace/dave_workspace/SOLAR_TOWER/Libraries/XMCLib/inc\xmc_ccu4.h **** typedef enum XMC_CCU4_SLICE_EVENT_LEVEL_SENSITIVITY
 364:C:/Users/Lenovo/workspace/dave_workspace/SOLAR_TOWER/Libraries/XMCLib/inc\xmc_ccu4.h **** {
 365:C:/Users/Lenovo/workspace/dave_workspace/SOLAR_TOWER/Libraries/XMCLib/inc\xmc_ccu4.h ****   XMC_CCU4_SLICE_EVENT_LEVEL_SENSITIVITY_ACTIVE_HIGH = 0U, /**< Level sensitive functions react to 
 366:C:/Users/Lenovo/workspace/dave_workspace/SOLAR_TOWER/Libraries/XMCLib/inc\xmc_ccu4.h ****   XMC_CCU4_SLICE_EVENT_LEVEL_SENSITIVITY_ACTIVE_LOW  = 1U, /**< Level sensitive functions react to 
 367:C:/Users/Lenovo/workspace/dave_workspace/SOLAR_TOWER/Libraries/XMCLib/inc\xmc_ccu4.h ****   /* Below enum items can be utilised specific to the functionality */
 368:C:/Users/Lenovo/workspace/dave_workspace/SOLAR_TOWER/Libraries/XMCLib/inc\xmc_ccu4.h ****   XMC_CCU4_SLICE_EVENT_LEVEL_SENSITIVITY_COUNT_UP_ON_LOW = 0U, /**< Timer counts up, during Low sta
 369:C:/Users/Lenovo/workspace/dave_workspace/SOLAR_TOWER/Libraries/XMCLib/inc\xmc_ccu4.h ****   XMC_CCU4_SLICE_EVENT_LEVEL_SENSITIVITY_COUNT_UP_ON_HIGH = 1U /**< Timer counts up, during High st
 370:C:/Users/Lenovo/workspace/dave_workspace/SOLAR_TOWER/Libraries/XMCLib/inc\xmc_ccu4.h **** } XMC_CCU4_SLICE_EVENT_LEVEL_SENSITIVITY_t;
 371:C:/Users/Lenovo/workspace/dave_workspace/SOLAR_TOWER/Libraries/XMCLib/inc\xmc_ccu4.h **** 
 372:C:/Users/Lenovo/workspace/dave_workspace/SOLAR_TOWER/Libraries/XMCLib/inc\xmc_ccu4.h **** /**
 373:C:/Users/Lenovo/workspace/dave_workspace/SOLAR_TOWER/Libraries/XMCLib/inc\xmc_ccu4.h ****  *  Low pass filter Configuration. The External Event input should be stable for a selected number 
 374:C:/Users/Lenovo/workspace/dave_workspace/SOLAR_TOWER/Libraries/XMCLib/inc\xmc_ccu4.h ****  */ 
 375:C:/Users/Lenovo/workspace/dave_workspace/SOLAR_TOWER/Libraries/XMCLib/inc\xmc_ccu4.h **** typedef enum XMC_CCU4_SLICE_EVENT_FILTER
 376:C:/Users/Lenovo/workspace/dave_workspace/SOLAR_TOWER/Libraries/XMCLib/inc\xmc_ccu4.h **** {
 377:C:/Users/Lenovo/workspace/dave_workspace/SOLAR_TOWER/Libraries/XMCLib/inc\xmc_ccu4.h ****   XMC_CCU4_SLICE_EVENT_FILTER_DISABLED  = 0U, /**< No Low Pass Filter */
 378:C:/Users/Lenovo/workspace/dave_workspace/SOLAR_TOWER/Libraries/XMCLib/inc\xmc_ccu4.h ****   XMC_CCU4_SLICE_EVENT_FILTER_3_CYCLES      , /**< 3 clock cycles */
 379:C:/Users/Lenovo/workspace/dave_workspace/SOLAR_TOWER/Libraries/XMCLib/inc\xmc_ccu4.h ****   XMC_CCU4_SLICE_EVENT_FILTER_5_CYCLES      , /**< 5 clock cycles */
 380:C:/Users/Lenovo/workspace/dave_workspace/SOLAR_TOWER/Libraries/XMCLib/inc\xmc_ccu4.h ****   XMC_CCU4_SLICE_EVENT_FILTER_7_CYCLES        /**< 7 clock cycles */
 381:C:/Users/Lenovo/workspace/dave_workspace/SOLAR_TOWER/Libraries/XMCLib/inc\xmc_ccu4.h **** } XMC_CCU4_SLICE_EVENT_FILTER_t;
 382:C:/Users/Lenovo/workspace/dave_workspace/SOLAR_TOWER/Libraries/XMCLib/inc\xmc_ccu4.h **** 
 383:C:/Users/Lenovo/workspace/dave_workspace/SOLAR_TOWER/Libraries/XMCLib/inc\xmc_ccu4.h **** /**
 384:C:/Users/Lenovo/workspace/dave_workspace/SOLAR_TOWER/Libraries/XMCLib/inc\xmc_ccu4.h ****  *  External Event Input list. This list depicts the possible input connections to the CCU4 slice.
 385:C:/Users/Lenovo/workspace/dave_workspace/SOLAR_TOWER/Libraries/XMCLib/inc\xmc_ccu4.h ****  *  Interconnects are specific to each device.
 386:C:/Users/Lenovo/workspace/dave_workspace/SOLAR_TOWER/Libraries/XMCLib/inc\xmc_ccu4.h ****  */ 
 387:C:/Users/Lenovo/workspace/dave_workspace/SOLAR_TOWER/Libraries/XMCLib/inc\xmc_ccu4.h **** typedef uint8_t XMC_CCU4_SLICE_INPUT_t;
 388:C:/Users/Lenovo/workspace/dave_workspace/SOLAR_TOWER/Libraries/XMCLib/inc\xmc_ccu4.h **** 
 389:C:/Users/Lenovo/workspace/dave_workspace/SOLAR_TOWER/Libraries/XMCLib/inc\xmc_ccu4.h **** /**
 390:C:/Users/Lenovo/workspace/dave_workspace/SOLAR_TOWER/Libraries/XMCLib/inc\xmc_ccu4.h ****  * Actions that can be performed upon detection of an external Timer STOP event
 391:C:/Users/Lenovo/workspace/dave_workspace/SOLAR_TOWER/Libraries/XMCLib/inc\xmc_ccu4.h ****  */ 
 392:C:/Users/Lenovo/workspace/dave_workspace/SOLAR_TOWER/Libraries/XMCLib/inc\xmc_ccu4.h **** typedef enum XMC_CCU4_SLICE_END_MODE
 393:C:/Users/Lenovo/workspace/dave_workspace/SOLAR_TOWER/Libraries/XMCLib/inc\xmc_ccu4.h **** {
 394:C:/Users/Lenovo/workspace/dave_workspace/SOLAR_TOWER/Libraries/XMCLib/inc\xmc_ccu4.h ****   XMC_CCU4_SLICE_END_MODE_TIMER_STOP       = 0U, /**< Stops the timer, without clearing TIMER regis
 395:C:/Users/Lenovo/workspace/dave_workspace/SOLAR_TOWER/Libraries/XMCLib/inc\xmc_ccu4.h ****   XMC_CCU4_SLICE_END_MODE_TIMER_CLEAR          , /**< Without stopping timer, clears the TIMER regi
 396:C:/Users/Lenovo/workspace/dave_workspace/SOLAR_TOWER/Libraries/XMCLib/inc\xmc_ccu4.h ****   XMC_CCU4_SLICE_END_MODE_TIMER_STOP_CLEAR       /**< Stops the timer and clears the TIMER register
 397:C:/Users/Lenovo/workspace/dave_workspace/SOLAR_TOWER/Libraries/XMCLib/inc\xmc_ccu4.h **** } XMC_CCU4_SLICE_END_MODE_t;
 398:C:/Users/Lenovo/workspace/dave_workspace/SOLAR_TOWER/Libraries/XMCLib/inc\xmc_ccu4.h **** 
 399:C:/Users/Lenovo/workspace/dave_workspace/SOLAR_TOWER/Libraries/XMCLib/inc\xmc_ccu4.h **** /**
 400:C:/Users/Lenovo/workspace/dave_workspace/SOLAR_TOWER/Libraries/XMCLib/inc\xmc_ccu4.h ****  *  Actions that can be performed upon detection of an external Timer START event
 401:C:/Users/Lenovo/workspace/dave_workspace/SOLAR_TOWER/Libraries/XMCLib/inc\xmc_ccu4.h ****  */ 
 402:C:/Users/Lenovo/workspace/dave_workspace/SOLAR_TOWER/Libraries/XMCLib/inc\xmc_ccu4.h **** typedef enum XMC_CCU4_SLICE_START_MODE
 403:C:/Users/Lenovo/workspace/dave_workspace/SOLAR_TOWER/Libraries/XMCLib/inc\xmc_ccu4.h **** {
 404:C:/Users/Lenovo/workspace/dave_workspace/SOLAR_TOWER/Libraries/XMCLib/inc\xmc_ccu4.h ****   XMC_CCU4_SLICE_START_MODE_TIMER_START       = 0U, /**< Start the timer from the current count of 
 405:C:/Users/Lenovo/workspace/dave_workspace/SOLAR_TOWER/Libraries/XMCLib/inc\xmc_ccu4.h ****   XMC_CCU4_SLICE_START_MODE_TIMER_START_CLEAR       /**< Clears the TIMER register and start the ti
 406:C:/Users/Lenovo/workspace/dave_workspace/SOLAR_TOWER/Libraries/XMCLib/inc\xmc_ccu4.h **** } XMC_CCU4_SLICE_START_MODE_t;
 407:C:/Users/Lenovo/workspace/dave_workspace/SOLAR_TOWER/Libraries/XMCLib/inc\xmc_ccu4.h **** 
 408:C:/Users/Lenovo/workspace/dave_workspace/SOLAR_TOWER/Libraries/XMCLib/inc\xmc_ccu4.h **** /**
 409:C:/Users/Lenovo/workspace/dave_workspace/SOLAR_TOWER/Libraries/XMCLib/inc\xmc_ccu4.h ****  *  Modulation of timer output signals
 410:C:/Users/Lenovo/workspace/dave_workspace/SOLAR_TOWER/Libraries/XMCLib/inc\xmc_ccu4.h ****  */ 
 411:C:/Users/Lenovo/workspace/dave_workspace/SOLAR_TOWER/Libraries/XMCLib/inc\xmc_ccu4.h **** typedef enum XMC_CCU4_SLICE_MODULATION_MODE
 412:C:/Users/Lenovo/workspace/dave_workspace/SOLAR_TOWER/Libraries/XMCLib/inc\xmc_ccu4.h **** {
 413:C:/Users/Lenovo/workspace/dave_workspace/SOLAR_TOWER/Libraries/XMCLib/inc\xmc_ccu4.h ****   XMC_CCU4_SLICE_MODULATION_MODE_CLEAR_ST_OUT  = 0U, /**< Clear ST and OUT signals */
 414:C:/Users/Lenovo/workspace/dave_workspace/SOLAR_TOWER/Libraries/XMCLib/inc\xmc_ccu4.h ****   XMC_CCU4_SLICE_MODULATION_MODE_CLEAR_OUT           /**< Clear only the OUT signal */
 415:C:/Users/Lenovo/workspace/dave_workspace/SOLAR_TOWER/Libraries/XMCLib/inc\xmc_ccu4.h **** } XMC_CCU4_SLICE_MODULATION_MODE_t;
 416:C:/Users/Lenovo/workspace/dave_workspace/SOLAR_TOWER/Libraries/XMCLib/inc\xmc_ccu4.h **** 
 417:C:/Users/Lenovo/workspace/dave_workspace/SOLAR_TOWER/Libraries/XMCLib/inc\xmc_ccu4.h **** /**
 418:C:/Users/Lenovo/workspace/dave_workspace/SOLAR_TOWER/Libraries/XMCLib/inc\xmc_ccu4.h ****  *  Trap exit mode
 419:C:/Users/Lenovo/workspace/dave_workspace/SOLAR_TOWER/Libraries/XMCLib/inc\xmc_ccu4.h ****  */ 
 420:C:/Users/Lenovo/workspace/dave_workspace/SOLAR_TOWER/Libraries/XMCLib/inc\xmc_ccu4.h **** typedef enum XMC_CCU4_SLICE_TRAP_EXIT_MODE
 421:C:/Users/Lenovo/workspace/dave_workspace/SOLAR_TOWER/Libraries/XMCLib/inc\xmc_ccu4.h **** {
 422:C:/Users/Lenovo/workspace/dave_workspace/SOLAR_TOWER/Libraries/XMCLib/inc\xmc_ccu4.h ****   XMC_CCU4_SLICE_TRAP_EXIT_MODE_AUTOMATIC = 0U, /**< Clear trap state as soon as the trap signal is
 423:C:/Users/Lenovo/workspace/dave_workspace/SOLAR_TOWER/Libraries/XMCLib/inc\xmc_ccu4.h ****   XMC_CCU4_SLICE_TRAP_EXIT_MODE_SW              /**< Clear only when acknowledged by software */
 424:C:/Users/Lenovo/workspace/dave_workspace/SOLAR_TOWER/Libraries/XMCLib/inc\xmc_ccu4.h **** } XMC_CCU4_SLICE_TRAP_EXIT_MODE_t;
 425:C:/Users/Lenovo/workspace/dave_workspace/SOLAR_TOWER/Libraries/XMCLib/inc\xmc_ccu4.h **** 
 426:C:/Users/Lenovo/workspace/dave_workspace/SOLAR_TOWER/Libraries/XMCLib/inc\xmc_ccu4.h **** /**
 427:C:/Users/Lenovo/workspace/dave_workspace/SOLAR_TOWER/Libraries/XMCLib/inc\xmc_ccu4.h ****  *  Timer clear on capture
 428:C:/Users/Lenovo/workspace/dave_workspace/SOLAR_TOWER/Libraries/XMCLib/inc\xmc_ccu4.h ****  */ 
 429:C:/Users/Lenovo/workspace/dave_workspace/SOLAR_TOWER/Libraries/XMCLib/inc\xmc_ccu4.h **** typedef enum XMC_CCU4_SLICE_TIMER_CLEAR_MODE
 430:C:/Users/Lenovo/workspace/dave_workspace/SOLAR_TOWER/Libraries/XMCLib/inc\xmc_ccu4.h **** {
 431:C:/Users/Lenovo/workspace/dave_workspace/SOLAR_TOWER/Libraries/XMCLib/inc\xmc_ccu4.h ****   XMC_CCU4_SLICE_TIMER_CLEAR_MODE_NEVER    = 0U, /**< Never clear the timer on any capture event */
 432:C:/Users/Lenovo/workspace/dave_workspace/SOLAR_TOWER/Libraries/XMCLib/inc\xmc_ccu4.h ****   XMC_CCU4_SLICE_TIMER_CLEAR_MODE_CAP_HIGH     , /**< Clear only when timer value has been captured
 433:C:/Users/Lenovo/workspace/dave_workspace/SOLAR_TOWER/Libraries/XMCLib/inc\xmc_ccu4.h ****   XMC_CCU4_SLICE_TIMER_CLEAR_MODE_CAP_LOW      , /**< Clear only when timer value has been captured
 434:C:/Users/Lenovo/workspace/dave_workspace/SOLAR_TOWER/Libraries/XMCLib/inc\xmc_ccu4.h ****   XMC_CCU4_SLICE_TIMER_CLEAR_MODE_ALWAYS         /**< Always clear the timer upon detection of any 
 435:C:/Users/Lenovo/workspace/dave_workspace/SOLAR_TOWER/Libraries/XMCLib/inc\xmc_ccu4.h **** } XMC_CCU4_SLICE_TIMER_CLEAR_MODE_t;
 436:C:/Users/Lenovo/workspace/dave_workspace/SOLAR_TOWER/Libraries/XMCLib/inc\xmc_ccu4.h **** 
 437:C:/Users/Lenovo/workspace/dave_workspace/SOLAR_TOWER/Libraries/XMCLib/inc\xmc_ccu4.h **** /**
 438:C:/Users/Lenovo/workspace/dave_workspace/SOLAR_TOWER/Libraries/XMCLib/inc\xmc_ccu4.h ****  *  Multi Channel Shadow transfer request configuration options
 439:C:/Users/Lenovo/workspace/dave_workspace/SOLAR_TOWER/Libraries/XMCLib/inc\xmc_ccu4.h ****  */ 
 440:C:/Users/Lenovo/workspace/dave_workspace/SOLAR_TOWER/Libraries/XMCLib/inc\xmc_ccu4.h **** typedef enum XMC_CCU4_SLICE_MCMS_ACTION
 441:C:/Users/Lenovo/workspace/dave_workspace/SOLAR_TOWER/Libraries/XMCLib/inc\xmc_ccu4.h **** {
 442:C:/Users/Lenovo/workspace/dave_workspace/SOLAR_TOWER/Libraries/XMCLib/inc\xmc_ccu4.h ****   XMC_CCU4_SLICE_MCMS_ACTION_TRANSFER_PR_CR          = 0U, /**< Transfer Compare and Period Shadow 
 443:C:/Users/Lenovo/workspace/dave_workspace/SOLAR_TOWER/Libraries/XMCLib/inc\xmc_ccu4.h ****                                                                 the actual registers upon MCS xfer 
 444:C:/Users/Lenovo/workspace/dave_workspace/SOLAR_TOWER/Libraries/XMCLib/inc\xmc_ccu4.h ****   XMC_CCU4_SLICE_MCMS_ACTION_TRANSFER_PR_CR_PCMP     = 1U, /**< Transfer Compare, Period and Presca
 445:C:/Users/Lenovo/workspace/dave_workspace/SOLAR_TOWER/Libraries/XMCLib/inc\xmc_ccu4.h ****                                                                 register values to the actual regis
 446:C:/Users/Lenovo/workspace/dave_workspace/SOLAR_TOWER/Libraries/XMCLib/inc\xmc_ccu4.h ****                                                                 request */
 447:C:/Users/Lenovo/workspace/dave_workspace/SOLAR_TOWER/Libraries/XMCLib/inc\xmc_ccu4.h ****   XMC_CCU4_SLICE_MCMS_ACTION_TRANSFER_PR_CR_PCMP_DIT = 3U  /**< Transfer Compare, Period ,Prescaler
 448:C:/Users/Lenovo/workspace/dave_workspace/SOLAR_TOWER/Libraries/XMCLib/inc\xmc_ccu4.h ****                                                                 Compare register values to the actu
 449:C:/Users/Lenovo/workspace/dave_workspace/SOLAR_TOWER/Libraries/XMCLib/inc\xmc_ccu4.h ****                                                                 MCS xfer request */
 450:C:/Users/Lenovo/workspace/dave_workspace/SOLAR_TOWER/Libraries/XMCLib/inc\xmc_ccu4.h **** } XMC_CCU4_SLICE_MCMS_ACTION_t;
 451:C:/Users/Lenovo/workspace/dave_workspace/SOLAR_TOWER/Libraries/XMCLib/inc\xmc_ccu4.h **** 
 452:C:/Users/Lenovo/workspace/dave_workspace/SOLAR_TOWER/Libraries/XMCLib/inc\xmc_ccu4.h **** /**
 453:C:/Users/Lenovo/workspace/dave_workspace/SOLAR_TOWER/Libraries/XMCLib/inc\xmc_ccu4.h ****  * Available Interrupt Event Ids
 454:C:/Users/Lenovo/workspace/dave_workspace/SOLAR_TOWER/Libraries/XMCLib/inc\xmc_ccu4.h ****  */ 
 455:C:/Users/Lenovo/workspace/dave_workspace/SOLAR_TOWER/Libraries/XMCLib/inc\xmc_ccu4.h **** typedef enum XMC_CCU4_SLICE_IRQ_ID
 456:C:/Users/Lenovo/workspace/dave_workspace/SOLAR_TOWER/Libraries/XMCLib/inc\xmc_ccu4.h **** {
 457:C:/Users/Lenovo/workspace/dave_workspace/SOLAR_TOWER/Libraries/XMCLib/inc\xmc_ccu4.h ****   XMC_CCU4_SLICE_IRQ_ID_PERIOD_MATCH       = 0U , /**< Period match counting up */
 458:C:/Users/Lenovo/workspace/dave_workspace/SOLAR_TOWER/Libraries/XMCLib/inc\xmc_ccu4.h ****   XMC_CCU4_SLICE_IRQ_ID_ONE_MATCH          = 1U , /**< Period match -> One match counting down */
 459:C:/Users/Lenovo/workspace/dave_workspace/SOLAR_TOWER/Libraries/XMCLib/inc\xmc_ccu4.h ****   XMC_CCU4_SLICE_IRQ_ID_COMPARE_MATCH_UP   = 2U , /**< Compare match counting up */
 460:C:/Users/Lenovo/workspace/dave_workspace/SOLAR_TOWER/Libraries/XMCLib/inc\xmc_ccu4.h ****   XMC_CCU4_SLICE_IRQ_ID_COMPARE_MATCH_DOWN = 3U , /**< Compare match counting down */
 461:C:/Users/Lenovo/workspace/dave_workspace/SOLAR_TOWER/Libraries/XMCLib/inc\xmc_ccu4.h ****   XMC_CCU4_SLICE_IRQ_ID_EVENT0             = 8U , /**< Event-0 occurrence */
 462:C:/Users/Lenovo/workspace/dave_workspace/SOLAR_TOWER/Libraries/XMCLib/inc\xmc_ccu4.h ****   XMC_CCU4_SLICE_IRQ_ID_EVENT1             = 9U , /**< Event-1 occurrence */
 463:C:/Users/Lenovo/workspace/dave_workspace/SOLAR_TOWER/Libraries/XMCLib/inc\xmc_ccu4.h ****   XMC_CCU4_SLICE_IRQ_ID_EVENT2             = 10U, /**< Event-2 occurrence */
 464:C:/Users/Lenovo/workspace/dave_workspace/SOLAR_TOWER/Libraries/XMCLib/inc\xmc_ccu4.h ****   XMC_CCU4_SLICE_IRQ_ID_TRAP               = 11U  /**< Trap occurrence */
 465:C:/Users/Lenovo/workspace/dave_workspace/SOLAR_TOWER/Libraries/XMCLib/inc\xmc_ccu4.h **** } XMC_CCU4_SLICE_IRQ_ID_t;
 466:C:/Users/Lenovo/workspace/dave_workspace/SOLAR_TOWER/Libraries/XMCLib/inc\xmc_ccu4.h **** 
 467:C:/Users/Lenovo/workspace/dave_workspace/SOLAR_TOWER/Libraries/XMCLib/inc\xmc_ccu4.h **** /**
 468:C:/Users/Lenovo/workspace/dave_workspace/SOLAR_TOWER/Libraries/XMCLib/inc\xmc_ccu4.h ****  * Available Interrupt Event Ids, which is added to support multi event APIs
 469:C:/Users/Lenovo/workspace/dave_workspace/SOLAR_TOWER/Libraries/XMCLib/inc\xmc_ccu4.h ****  */
 470:C:/Users/Lenovo/workspace/dave_workspace/SOLAR_TOWER/Libraries/XMCLib/inc\xmc_ccu4.h **** typedef enum XMC_CCU4_SLICE_MULTI_IRQ_ID
 471:C:/Users/Lenovo/workspace/dave_workspace/SOLAR_TOWER/Libraries/XMCLib/inc\xmc_ccu4.h **** {
 472:C:/Users/Lenovo/workspace/dave_workspace/SOLAR_TOWER/Libraries/XMCLib/inc\xmc_ccu4.h ****   XMC_CCU4_SLICE_MULTI_IRQ_ID_PERIOD_MATCH       = 0x1U,   /**< Period match counting up */
 473:C:/Users/Lenovo/workspace/dave_workspace/SOLAR_TOWER/Libraries/XMCLib/inc\xmc_ccu4.h ****   XMC_CCU4_SLICE_MULTI_IRQ_ID_ONE_MATCH          = 0x2U,   /**< Period match -> One match counting 
 474:C:/Users/Lenovo/workspace/dave_workspace/SOLAR_TOWER/Libraries/XMCLib/inc\xmc_ccu4.h ****   XMC_CCU4_SLICE_MULTI_IRQ_ID_COMPARE_MATCH_UP   = 0x4U,   /**< Compare match counting up */
 475:C:/Users/Lenovo/workspace/dave_workspace/SOLAR_TOWER/Libraries/XMCLib/inc\xmc_ccu4.h ****   XMC_CCU4_SLICE_MULTI_IRQ_ID_COMPARE_MATCH_DOWN = 0x8U,   /**< Compare match counting down */
 476:C:/Users/Lenovo/workspace/dave_workspace/SOLAR_TOWER/Libraries/XMCLib/inc\xmc_ccu4.h ****   XMC_CCU4_SLICE_MULTI_IRQ_ID_EVENT0             = 0x100U, /**< Event-0 occurrence */
 477:C:/Users/Lenovo/workspace/dave_workspace/SOLAR_TOWER/Libraries/XMCLib/inc\xmc_ccu4.h ****   XMC_CCU4_SLICE_MULTI_IRQ_ID_EVENT1             = 0x200U, /**< Event-1 occurrence */
 478:C:/Users/Lenovo/workspace/dave_workspace/SOLAR_TOWER/Libraries/XMCLib/inc\xmc_ccu4.h ****   XMC_CCU4_SLICE_MULTI_IRQ_ID_EVENT2             = 0x400U, /**< Event-2 occurrence */
 479:C:/Users/Lenovo/workspace/dave_workspace/SOLAR_TOWER/Libraries/XMCLib/inc\xmc_ccu4.h **** } XMC_CCU4_SLICE_MULTI_IRQ_ID_t;
 480:C:/Users/Lenovo/workspace/dave_workspace/SOLAR_TOWER/Libraries/XMCLib/inc\xmc_ccu4.h **** 
 481:C:/Users/Lenovo/workspace/dave_workspace/SOLAR_TOWER/Libraries/XMCLib/inc\xmc_ccu4.h **** /**
 482:C:/Users/Lenovo/workspace/dave_workspace/SOLAR_TOWER/Libraries/XMCLib/inc\xmc_ccu4.h ****  * Service Request Lines for CCU4. Event are mapped to these SR lines and these are used to generat
 483:C:/Users/Lenovo/workspace/dave_workspace/SOLAR_TOWER/Libraries/XMCLib/inc\xmc_ccu4.h ****  */ 
 484:C:/Users/Lenovo/workspace/dave_workspace/SOLAR_TOWER/Libraries/XMCLib/inc\xmc_ccu4.h **** typedef enum XMC_CCU4_SLICE_SR_ID
 485:C:/Users/Lenovo/workspace/dave_workspace/SOLAR_TOWER/Libraries/XMCLib/inc\xmc_ccu4.h **** {
 486:C:/Users/Lenovo/workspace/dave_workspace/SOLAR_TOWER/Libraries/XMCLib/inc\xmc_ccu4.h ****   XMC_CCU4_SLICE_SR_ID_0    = 0U, /**< Service Request Line-0 selected  */
 487:C:/Users/Lenovo/workspace/dave_workspace/SOLAR_TOWER/Libraries/XMCLib/inc\xmc_ccu4.h ****   XMC_CCU4_SLICE_SR_ID_1        , /**< Service Request Line-1 selected  */
 488:C:/Users/Lenovo/workspace/dave_workspace/SOLAR_TOWER/Libraries/XMCLib/inc\xmc_ccu4.h ****   XMC_CCU4_SLICE_SR_ID_2        , /**< Service Request Line-2 selected  */
 489:C:/Users/Lenovo/workspace/dave_workspace/SOLAR_TOWER/Libraries/XMCLib/inc\xmc_ccu4.h ****   XMC_CCU4_SLICE_SR_ID_3          /**< Service Request Line-3 selected  */
 490:C:/Users/Lenovo/workspace/dave_workspace/SOLAR_TOWER/Libraries/XMCLib/inc\xmc_ccu4.h **** } XMC_CCU4_SLICE_SR_ID_t;
 491:C:/Users/Lenovo/workspace/dave_workspace/SOLAR_TOWER/Libraries/XMCLib/inc\xmc_ccu4.h **** 
 492:C:/Users/Lenovo/workspace/dave_workspace/SOLAR_TOWER/Libraries/XMCLib/inc\xmc_ccu4.h **** /**
 493:C:/Users/Lenovo/workspace/dave_workspace/SOLAR_TOWER/Libraries/XMCLib/inc\xmc_ccu4.h ****  *  Slice shadow transfer options.
 494:C:/Users/Lenovo/workspace/dave_workspace/SOLAR_TOWER/Libraries/XMCLib/inc\xmc_ccu4.h ****  */
 495:C:/Users/Lenovo/workspace/dave_workspace/SOLAR_TOWER/Libraries/XMCLib/inc\xmc_ccu4.h **** typedef enum XMC_CCU4_SHADOW_TRANSFER
 496:C:/Users/Lenovo/workspace/dave_workspace/SOLAR_TOWER/Libraries/XMCLib/inc\xmc_ccu4.h **** {
 497:C:/Users/Lenovo/workspace/dave_workspace/SOLAR_TOWER/Libraries/XMCLib/inc\xmc_ccu4.h ****   XMC_CCU4_SHADOW_TRANSFER_SLICE_0            = CCU4_GCSS_S0SE_Msk, /**< Transfer Period, Compare a
 498:C:/Users/Lenovo/workspace/dave_workspace/SOLAR_TOWER/Libraries/XMCLib/inc\xmc_ccu4.h ****                                                                           shadow register values to
 499:C:/Users/Lenovo/workspace/dave_workspace/SOLAR_TOWER/Libraries/XMCLib/inc\xmc_ccu4.h ****                                                                           SLICE-0 */
 500:C:/Users/Lenovo/workspace/dave_workspace/SOLAR_TOWER/Libraries/XMCLib/inc\xmc_ccu4.h ****   XMC_CCU4_SHADOW_TRANSFER_DITHER_SLICE_0     = CCU4_GCSS_S0DSE_Msk, /**< Transfer Dither compare s
 501:C:/Users/Lenovo/workspace/dave_workspace/SOLAR_TOWER/Libraries/XMCLib/inc\xmc_ccu4.h ****                                                                           to actual register for SL
 502:C:/Users/Lenovo/workspace/dave_workspace/SOLAR_TOWER/Libraries/XMCLib/inc\xmc_ccu4.h ****   XMC_CCU4_SHADOW_TRANSFER_PRESCALER_SLICE_0  = CCU4_GCSS_S0PSE_Msk, /**< Transfer Prescaler shadow
 503:C:/Users/Lenovo/workspace/dave_workspace/SOLAR_TOWER/Libraries/XMCLib/inc\xmc_ccu4.h ****                                                                           actual register for SLICE
 504:C:/Users/Lenovo/workspace/dave_workspace/SOLAR_TOWER/Libraries/XMCLib/inc\xmc_ccu4.h ****   XMC_CCU4_SHADOW_TRANSFER_SLICE_1            = CCU4_GCSS_S1SE_Msk, /**< Transfer Period, Compare a
 505:C:/Users/Lenovo/workspace/dave_workspace/SOLAR_TOWER/Libraries/XMCLib/inc\xmc_ccu4.h ****                                                                           shadow register values to
 506:C:/Users/Lenovo/workspace/dave_workspace/SOLAR_TOWER/Libraries/XMCLib/inc\xmc_ccu4.h ****                                                                           SLICE-1 */
 507:C:/Users/Lenovo/workspace/dave_workspace/SOLAR_TOWER/Libraries/XMCLib/inc\xmc_ccu4.h ****   XMC_CCU4_SHADOW_TRANSFER_DITHER_SLICE_1     = CCU4_GCSS_S1DSE_Msk, /**< Transfer Dither compare s
 508:C:/Users/Lenovo/workspace/dave_workspace/SOLAR_TOWER/Libraries/XMCLib/inc\xmc_ccu4.h ****                                                                           to actual registers for S
 509:C:/Users/Lenovo/workspace/dave_workspace/SOLAR_TOWER/Libraries/XMCLib/inc\xmc_ccu4.h ****   XMC_CCU4_SHADOW_TRANSFER_PRESCALER_SLICE_1  = CCU4_GCSS_S1PSE_Msk, /**< Transfer Prescaler shadow
 510:C:/Users/Lenovo/workspace/dave_workspace/SOLAR_TOWER/Libraries/XMCLib/inc\xmc_ccu4.h ****                                                                           actual register for SLICE
 511:C:/Users/Lenovo/workspace/dave_workspace/SOLAR_TOWER/Libraries/XMCLib/inc\xmc_ccu4.h ****   XMC_CCU4_SHADOW_TRANSFER_SLICE_2            = CCU4_GCSS_S2SE_Msk, /**< Transfer Period, Compare a
 512:C:/Users/Lenovo/workspace/dave_workspace/SOLAR_TOWER/Libraries/XMCLib/inc\xmc_ccu4.h ****                                                                           shadow register values to
 513:C:/Users/Lenovo/workspace/dave_workspace/SOLAR_TOWER/Libraries/XMCLib/inc\xmc_ccu4.h ****                                                                           SLICE-2 */
 514:C:/Users/Lenovo/workspace/dave_workspace/SOLAR_TOWER/Libraries/XMCLib/inc\xmc_ccu4.h ****   XMC_CCU4_SHADOW_TRANSFER_DITHER_SLICE_2     = CCU4_GCSS_S2DSE_Msk, /**< Transfer Dither compare s
 515:C:/Users/Lenovo/workspace/dave_workspace/SOLAR_TOWER/Libraries/XMCLib/inc\xmc_ccu4.h ****                                                                           to actual register for SL
 516:C:/Users/Lenovo/workspace/dave_workspace/SOLAR_TOWER/Libraries/XMCLib/inc\xmc_ccu4.h ****   XMC_CCU4_SHADOW_TRANSFER_PRESCALER_SLICE_2  = CCU4_GCSS_S2PSE_Msk, /**< Transfer Prescaler shadow
 517:C:/Users/Lenovo/workspace/dave_workspace/SOLAR_TOWER/Libraries/XMCLib/inc\xmc_ccu4.h ****                                                                           actual register for SLICE
 518:C:/Users/Lenovo/workspace/dave_workspace/SOLAR_TOWER/Libraries/XMCLib/inc\xmc_ccu4.h ****   XMC_CCU4_SHADOW_TRANSFER_SLICE_3            = CCU4_GCSS_S3SE_Msk, /**< Transfer Period, Compare a
 519:C:/Users/Lenovo/workspace/dave_workspace/SOLAR_TOWER/Libraries/XMCLib/inc\xmc_ccu4.h ****                                                                           shadow register values to
 520:C:/Users/Lenovo/workspace/dave_workspace/SOLAR_TOWER/Libraries/XMCLib/inc\xmc_ccu4.h ****                                                                           SLICE-3 */
 521:C:/Users/Lenovo/workspace/dave_workspace/SOLAR_TOWER/Libraries/XMCLib/inc\xmc_ccu4.h ****   XMC_CCU4_SHADOW_TRANSFER_DITHER_SLICE_3     = CCU4_GCSS_S3DSE_Msk, /**< Transfer Dither compare s
 522:C:/Users/Lenovo/workspace/dave_workspace/SOLAR_TOWER/Libraries/XMCLib/inc\xmc_ccu4.h ****                                                                           to actual register for SL
 523:C:/Users/Lenovo/workspace/dave_workspace/SOLAR_TOWER/Libraries/XMCLib/inc\xmc_ccu4.h ****   XMC_CCU4_SHADOW_TRANSFER_PRESCALER_SLICE_3  = CCU4_GCSS_S3PSE_Msk  /**< Transfer Prescaler shadow
 524:C:/Users/Lenovo/workspace/dave_workspace/SOLAR_TOWER/Libraries/XMCLib/inc\xmc_ccu4.h ****                                                                           actual register for SLICE
 525:C:/Users/Lenovo/workspace/dave_workspace/SOLAR_TOWER/Libraries/XMCLib/inc\xmc_ccu4.h **** } XMC_CCU4_SHADOW_TRANSFER_t;
 526:C:/Users/Lenovo/workspace/dave_workspace/SOLAR_TOWER/Libraries/XMCLib/inc\xmc_ccu4.h **** 
 527:C:/Users/Lenovo/workspace/dave_workspace/SOLAR_TOWER/Libraries/XMCLib/inc\xmc_ccu4.h **** #if defined(CCU4V3) || defined(DOXYGEN)/* Defined for XMC1400 devices only */
 528:C:/Users/Lenovo/workspace/dave_workspace/SOLAR_TOWER/Libraries/XMCLib/inc\xmc_ccu4.h **** /**
 529:C:/Users/Lenovo/workspace/dave_workspace/SOLAR_TOWER/Libraries/XMCLib/inc\xmc_ccu4.h ****  *  Slice shadow transfer mode options.
 530:C:/Users/Lenovo/workspace/dave_workspace/SOLAR_TOWER/Libraries/XMCLib/inc\xmc_ccu4.h ****  * @note Only available for XMC1400 series
 531:C:/Users/Lenovo/workspace/dave_workspace/SOLAR_TOWER/Libraries/XMCLib/inc\xmc_ccu4.h ****  */
 532:C:/Users/Lenovo/workspace/dave_workspace/SOLAR_TOWER/Libraries/XMCLib/inc\xmc_ccu4.h **** typedef enum XMC_CCU4_SLICE_SHADOW_TRANSFER_MODE
 533:C:/Users/Lenovo/workspace/dave_workspace/SOLAR_TOWER/Libraries/XMCLib/inc\xmc_ccu4.h **** {
 534:C:/Users/Lenovo/workspace/dave_workspace/SOLAR_TOWER/Libraries/XMCLib/inc\xmc_ccu4.h ****   XMC_CCU4_SLICE_SHADOW_TRANSFER_MODE_IN_PERIOD_MATCH_AND_ONE_MATCH = 0U,  /**< Shadow transfer is 
 535:C:/Users/Lenovo/workspace/dave_workspace/SOLAR_TOWER/Libraries/XMCLib/inc\xmc_ccu4.h ****                                                                                 One match. */
 536:C:/Users/Lenovo/workspace/dave_workspace/SOLAR_TOWER/Libraries/XMCLib/inc\xmc_ccu4.h ****   XMC_CCU4_SLICE_SHADOW_TRANSFER_MODE_ONLY_IN_PERIOD_MATCH = 1U,  /**< Shadow transfer is done only
 537:C:/Users/Lenovo/workspace/dave_workspace/SOLAR_TOWER/Libraries/XMCLib/inc\xmc_ccu4.h ****   XMC_CCU4_SLICE_SHADOW_TRANSFER_MODE_ONLY_IN_ONE_MATCH = 2U  /**< Shadow transfer is done only in 
 538:C:/Users/Lenovo/workspace/dave_workspace/SOLAR_TOWER/Libraries/XMCLib/inc\xmc_ccu4.h **** } XMC_CCU4_SLICE_SHADOW_TRANSFER_MODE_t; 
 539:C:/Users/Lenovo/workspace/dave_workspace/SOLAR_TOWER/Libraries/XMCLib/inc\xmc_ccu4.h ****   
 540:C:/Users/Lenovo/workspace/dave_workspace/SOLAR_TOWER/Libraries/XMCLib/inc\xmc_ccu4.h ****   
 541:C:/Users/Lenovo/workspace/dave_workspace/SOLAR_TOWER/Libraries/XMCLib/inc\xmc_ccu4.h **** /**
 542:C:/Users/Lenovo/workspace/dave_workspace/SOLAR_TOWER/Libraries/XMCLib/inc\xmc_ccu4.h ****  *  Immediate write into configuration register
 543:C:/Users/Lenovo/workspace/dave_workspace/SOLAR_TOWER/Libraries/XMCLib/inc\xmc_ccu4.h ****  *  @note Only available for XMC1400 series
 544:C:/Users/Lenovo/workspace/dave_workspace/SOLAR_TOWER/Libraries/XMCLib/inc\xmc_ccu4.h ****  */
 545:C:/Users/Lenovo/workspace/dave_workspace/SOLAR_TOWER/Libraries/XMCLib/inc\xmc_ccu4.h **** typedef enum XMC_CCU4_SLICE_WRITE_INTO
 546:C:/Users/Lenovo/workspace/dave_workspace/SOLAR_TOWER/Libraries/XMCLib/inc\xmc_ccu4.h **** {
 547:C:/Users/Lenovo/workspace/dave_workspace/SOLAR_TOWER/Libraries/XMCLib/inc\xmc_ccu4.h ****   XMC_CCU4_SLICE_WRITE_INTO_PERIOD_CONFIGURATION = CCU4_CC4_STC_IRPC_Msk,                  /**< Imm
 548:C:/Users/Lenovo/workspace/dave_workspace/SOLAR_TOWER/Libraries/XMCLib/inc\xmc_ccu4.h ****                                                                                                 Wri
 549:C:/Users/Lenovo/workspace/dave_workspace/SOLAR_TOWER/Libraries/XMCLib/inc\xmc_ccu4.h ****                                                                                                 Con
 550:C:/Users/Lenovo/workspace/dave_workspace/SOLAR_TOWER/Libraries/XMCLib/inc\xmc_ccu4.h ****   XMC_CCU4_SLICE_WRITE_INTO_COMPARE_CONFIGURATION = CCU4_CC4_STC_IRCC_Msk,                 /**< Imm
 551:C:/Users/Lenovo/workspace/dave_workspace/SOLAR_TOWER/Libraries/XMCLib/inc\xmc_ccu4.h ****                                                                                                 Wri
 552:C:/Users/Lenovo/workspace/dave_workspace/SOLAR_TOWER/Libraries/XMCLib/inc\xmc_ccu4.h ****                                                                                                 Con
 553:C:/Users/Lenovo/workspace/dave_workspace/SOLAR_TOWER/Libraries/XMCLib/inc\xmc_ccu4.h ****   XMC_CCU4_SLICE_WRITE_INTO_PASSIVE_LEVEL_CONFIGURATION = CCU4_CC4_STC_IRLC_Msk,           /**< Imm
 554:C:/Users/Lenovo/workspace/dave_workspace/SOLAR_TOWER/Libraries/XMCLib/inc\xmc_ccu4.h ****                                                                                                 Wri
 555:C:/Users/Lenovo/workspace/dave_workspace/SOLAR_TOWER/Libraries/XMCLib/inc\xmc_ccu4.h **** 	                                                                                            Config
 556:C:/Users/Lenovo/workspace/dave_workspace/SOLAR_TOWER/Libraries/XMCLib/inc\xmc_ccu4.h ****   XMC_CCU4_SLICE_WRITE_INTO_DITHER_VALUE_CONFIGURATION = CCU4_CC4_STC_IRDC_Msk,            /**< Imm
 557:C:/Users/Lenovo/workspace/dave_workspace/SOLAR_TOWER/Libraries/XMCLib/inc\xmc_ccu4.h ****                                                                                                 Wri
 558:C:/Users/Lenovo/workspace/dave_workspace/SOLAR_TOWER/Libraries/XMCLib/inc\xmc_ccu4.h **** 	                                                                                            Config
 559:C:/Users/Lenovo/workspace/dave_workspace/SOLAR_TOWER/Libraries/XMCLib/inc\xmc_ccu4.h ****   XMC_CCU4_SLICE_WRITE_INTO_FLOATING_PRESCALER_VALUE_CONFIGURATION = CCU4_CC4_STC_IRFC_Msk /**< Imm
 560:C:/Users/Lenovo/workspace/dave_workspace/SOLAR_TOWER/Libraries/XMCLib/inc\xmc_ccu4.h ****                                                                                                 Wri
 561:C:/Users/Lenovo/workspace/dave_workspace/SOLAR_TOWER/Libraries/XMCLib/inc\xmc_ccu4.h ****                                                                                                 Val
 562:C:/Users/Lenovo/workspace/dave_workspace/SOLAR_TOWER/Libraries/XMCLib/inc\xmc_ccu4.h **** } XMC_CCU4_SLICE_WRITE_INTO_t;
 563:C:/Users/Lenovo/workspace/dave_workspace/SOLAR_TOWER/Libraries/XMCLib/inc\xmc_ccu4.h **** 
 564:C:/Users/Lenovo/workspace/dave_workspace/SOLAR_TOWER/Libraries/XMCLib/inc\xmc_ccu4.h **** 
 565:C:/Users/Lenovo/workspace/dave_workspace/SOLAR_TOWER/Libraries/XMCLib/inc\xmc_ccu4.h **** /**
 566:C:/Users/Lenovo/workspace/dave_workspace/SOLAR_TOWER/Libraries/XMCLib/inc\xmc_ccu4.h ****  *  Automatic Shadow Transfer request when writing into shadow register
 567:C:/Users/Lenovo/workspace/dave_workspace/SOLAR_TOWER/Libraries/XMCLib/inc\xmc_ccu4.h ****  *  @note Only available for XMC1400 series
 568:C:/Users/Lenovo/workspace/dave_workspace/SOLAR_TOWER/Libraries/XMCLib/inc\xmc_ccu4.h ****  */
 569:C:/Users/Lenovo/workspace/dave_workspace/SOLAR_TOWER/Libraries/XMCLib/inc\xmc_ccu4.h **** typedef enum XMC_CCU4_SLICE_AUTOMAIC_SHADOW_TRANSFER_WRITE_INTO
 570:C:/Users/Lenovo/workspace/dave_workspace/SOLAR_TOWER/Libraries/XMCLib/inc\xmc_ccu4.h **** {
 571:C:/Users/Lenovo/workspace/dave_workspace/SOLAR_TOWER/Libraries/XMCLib/inc\xmc_ccu4.h ****   XMC_CCU4_SLICE_AUTOMAIC_SHADOW_TRANSFER_WRITE_INTO_PERIOD_SHADOW = CCU4_CC4_STC_ASPC_Msk,        
 572:C:/Users/Lenovo/workspace/dave_workspace/SOLAR_TOWER/Libraries/XMCLib/inc\xmc_ccu4.h **** 	                                                                                                  
 573:C:/Users/Lenovo/workspace/dave_workspace/SOLAR_TOWER/Libraries/XMCLib/inc\xmc_ccu4.h ****                                                                                                    
 574:C:/Users/Lenovo/workspace/dave_workspace/SOLAR_TOWER/Libraries/XMCLib/inc\xmc_ccu4.h ****                                                                                                    
 575:C:/Users/Lenovo/workspace/dave_workspace/SOLAR_TOWER/Libraries/XMCLib/inc\xmc_ccu4.h ****   XMC_CCU4_SLICE_AUTOMAIC_SHADOW_TRANSFER_WRITE_INTO_COMPARE_SHADOW = CCU4_CC4_STC_ASCC_Msk,       
 576:C:/Users/Lenovo/workspace/dave_workspace/SOLAR_TOWER/Libraries/XMCLib/inc\xmc_ccu4.h **** 	                                                                                                  
 577:C:/Users/Lenovo/workspace/dave_workspace/SOLAR_TOWER/Libraries/XMCLib/inc\xmc_ccu4.h **** 	                                                                                                  
 578:C:/Users/Lenovo/workspace/dave_workspace/SOLAR_TOWER/Libraries/XMCLib/inc\xmc_ccu4.h **** 	                                                                                                  
 579:C:/Users/Lenovo/workspace/dave_workspace/SOLAR_TOWER/Libraries/XMCLib/inc\xmc_ccu4.h ****   XMC_CCU4_SLICE_AUTOMAIC_SHADOW_TRANSFER_WRITE_INTO_PASSIVE_LEVEL = CCU4_CC4_STC_ASLC_Msk,        
 580:C:/Users/Lenovo/workspace/dave_workspace/SOLAR_TOWER/Libraries/XMCLib/inc\xmc_ccu4.h **** 	                                                                                                  
 581:C:/Users/Lenovo/workspace/dave_workspace/SOLAR_TOWER/Libraries/XMCLib/inc\xmc_ccu4.h ****                                                                                                    
 582:C:/Users/Lenovo/workspace/dave_workspace/SOLAR_TOWER/Libraries/XMCLib/inc\xmc_ccu4.h ****   XMC_CCU4_SLICE_AUTOMAIC_SHADOW_TRANSFER_WRITE_INTO_DITHER_SHADOW = CCU4_CC4_STC_ASDC_Msk,        
 583:C:/Users/Lenovo/workspace/dave_workspace/SOLAR_TOWER/Libraries/XMCLib/inc\xmc_ccu4.h ****                                                                                                    
 584:C:/Users/Lenovo/workspace/dave_workspace/SOLAR_TOWER/Libraries/XMCLib/inc\xmc_ccu4.h ****                                                                                                    
 585:C:/Users/Lenovo/workspace/dave_workspace/SOLAR_TOWER/Libraries/XMCLib/inc\xmc_ccu4.h ****   XMC_CCU4_SLICE_AUTOMAIC_SHADOW_TRANSFER_WRITE_INTO_FLOATING_PRESCALER_SHADOW = CCU4_CC4_STC_ASFC_
 586:C:/Users/Lenovo/workspace/dave_workspace/SOLAR_TOWER/Libraries/XMCLib/inc\xmc_ccu4.h **** 	                                                                                                  
 587:C:/Users/Lenovo/workspace/dave_workspace/SOLAR_TOWER/Libraries/XMCLib/inc\xmc_ccu4.h ****                                                                                                    
 588:C:/Users/Lenovo/workspace/dave_workspace/SOLAR_TOWER/Libraries/XMCLib/inc\xmc_ccu4.h ****                                                                                                    
 589:C:/Users/Lenovo/workspace/dave_workspace/SOLAR_TOWER/Libraries/XMCLib/inc\xmc_ccu4.h **** 
 590:C:/Users/Lenovo/workspace/dave_workspace/SOLAR_TOWER/Libraries/XMCLib/inc\xmc_ccu4.h **** } XMC_CCU4_SLICE_AUTOMAIC_SHADOW_TRANSFER_WRITE_INTO_t;
 591:C:/Users/Lenovo/workspace/dave_workspace/SOLAR_TOWER/Libraries/XMCLib/inc\xmc_ccu4.h **** #endif
 592:C:/Users/Lenovo/workspace/dave_workspace/SOLAR_TOWER/Libraries/XMCLib/inc\xmc_ccu4.h **** /**
 593:C:/Users/Lenovo/workspace/dave_workspace/SOLAR_TOWER/Libraries/XMCLib/inc\xmc_ccu4.h ****  *  Used to create Mask needed for Multi-channel Shadow transfer enable/disable
 594:C:/Users/Lenovo/workspace/dave_workspace/SOLAR_TOWER/Libraries/XMCLib/inc\xmc_ccu4.h ****  */
 595:C:/Users/Lenovo/workspace/dave_workspace/SOLAR_TOWER/Libraries/XMCLib/inc\xmc_ccu4.h **** typedef enum XMC_CCU4_SLICE_MASK
 596:C:/Users/Lenovo/workspace/dave_workspace/SOLAR_TOWER/Libraries/XMCLib/inc\xmc_ccu4.h **** {
 597:C:/Users/Lenovo/workspace/dave_workspace/SOLAR_TOWER/Libraries/XMCLib/inc\xmc_ccu4.h ****   XMC_CCU4_SLICE_MASK_SLICE_0  = 1U , /**< SLICE-0 */
 598:C:/Users/Lenovo/workspace/dave_workspace/SOLAR_TOWER/Libraries/XMCLib/inc\xmc_ccu4.h ****   XMC_CCU4_SLICE_MASK_SLICE_1  = 2U , /**< SLICE-1 */
 599:C:/Users/Lenovo/workspace/dave_workspace/SOLAR_TOWER/Libraries/XMCLib/inc\xmc_ccu4.h ****   XMC_CCU4_SLICE_MASK_SLICE_2  = 4U , /**< SLICE-2 */
 600:C:/Users/Lenovo/workspace/dave_workspace/SOLAR_TOWER/Libraries/XMCLib/inc\xmc_ccu4.h ****   XMC_CCU4_SLICE_MASK_SLICE_3  = 8U   /**< SLICE-3 */
 601:C:/Users/Lenovo/workspace/dave_workspace/SOLAR_TOWER/Libraries/XMCLib/inc\xmc_ccu4.h **** } XMC_CCU4_SLICE_MASK_t;
 602:C:/Users/Lenovo/workspace/dave_workspace/SOLAR_TOWER/Libraries/XMCLib/inc\xmc_ccu4.h **** 
 603:C:/Users/Lenovo/workspace/dave_workspace/SOLAR_TOWER/Libraries/XMCLib/inc\xmc_ccu4.h **** 
 604:C:/Users/Lenovo/workspace/dave_workspace/SOLAR_TOWER/Libraries/XMCLib/inc\xmc_ccu4.h **** /**************************************************************************************************
 605:C:/Users/Lenovo/workspace/dave_workspace/SOLAR_TOWER/Libraries/XMCLib/inc\xmc_ccu4.h ****  * DATA STRUCTURES
 606:C:/Users/Lenovo/workspace/dave_workspace/SOLAR_TOWER/Libraries/XMCLib/inc\xmc_ccu4.h ****  **************************************************************************************************
 607:C:/Users/Lenovo/workspace/dave_workspace/SOLAR_TOWER/Libraries/XMCLib/inc\xmc_ccu4.h **** 
 608:C:/Users/Lenovo/workspace/dave_workspace/SOLAR_TOWER/Libraries/XMCLib/inc\xmc_ccu4.h **** /**
 609:C:/Users/Lenovo/workspace/dave_workspace/SOLAR_TOWER/Libraries/XMCLib/inc\xmc_ccu4.h ****  *  Configuration data structure of an External Event(Event-0/1/2).
 610:C:/Users/Lenovo/workspace/dave_workspace/SOLAR_TOWER/Libraries/XMCLib/inc\xmc_ccu4.h ****  *  Needed to configure the various aspects of an External Event.
 611:C:/Users/Lenovo/workspace/dave_workspace/SOLAR_TOWER/Libraries/XMCLib/inc\xmc_ccu4.h ****  *  This structure will not connect the external event with an external function.
 612:C:/Users/Lenovo/workspace/dave_workspace/SOLAR_TOWER/Libraries/XMCLib/inc\xmc_ccu4.h ****  */ 
 613:C:/Users/Lenovo/workspace/dave_workspace/SOLAR_TOWER/Libraries/XMCLib/inc\xmc_ccu4.h **** typedef struct XMC_CCU4_SLICE_EVENT_CONFIG
 614:C:/Users/Lenovo/workspace/dave_workspace/SOLAR_TOWER/Libraries/XMCLib/inc\xmc_ccu4.h **** {
 615:C:/Users/Lenovo/workspace/dave_workspace/SOLAR_TOWER/Libraries/XMCLib/inc\xmc_ccu4.h ****   XMC_CCU4_SLICE_INPUT_t                   mapped_input; /**< Required input signal for the Event *
 616:C:/Users/Lenovo/workspace/dave_workspace/SOLAR_TOWER/Libraries/XMCLib/inc\xmc_ccu4.h ****   XMC_CCU4_SLICE_EVENT_EDGE_SENSITIVITY_t  edge;         /**< Select the event edge of the input si
 617:C:/Users/Lenovo/workspace/dave_workspace/SOLAR_TOWER/Libraries/XMCLib/inc\xmc_ccu4.h ****                                                               This is needed for an edge sensitive 
 618:C:/Users/Lenovo/workspace/dave_workspace/SOLAR_TOWER/Libraries/XMCLib/inc\xmc_ccu4.h ****   XMC_CCU4_SLICE_EVENT_LEVEL_SENSITIVITY_t level;        /**< Select the event level of the input s
 619:C:/Users/Lenovo/workspace/dave_workspace/SOLAR_TOWER/Libraries/XMCLib/inc\xmc_ccu4.h ****                                                               This is needed for an level sensitive
 620:C:/Users/Lenovo/workspace/dave_workspace/SOLAR_TOWER/Libraries/XMCLib/inc\xmc_ccu4.h ****   XMC_CCU4_SLICE_EVENT_FILTER_t            duration;     /**< Low Pass filter duration in terms of 
 621:C:/Users/Lenovo/workspace/dave_workspace/SOLAR_TOWER/Libraries/XMCLib/inc\xmc_ccu4.h **** } XMC_CCU4_SLICE_EVENT_CONFIG_t;
 622:C:/Users/Lenovo/workspace/dave_workspace/SOLAR_TOWER/Libraries/XMCLib/inc\xmc_ccu4.h **** 
 623:C:/Users/Lenovo/workspace/dave_workspace/SOLAR_TOWER/Libraries/XMCLib/inc\xmc_ccu4.h **** /*Anonymous structure/union guard start*/
 624:C:/Users/Lenovo/workspace/dave_workspace/SOLAR_TOWER/Libraries/XMCLib/inc\xmc_ccu4.h **** #if defined(__CC_ARM)
 625:C:/Users/Lenovo/workspace/dave_workspace/SOLAR_TOWER/Libraries/XMCLib/inc\xmc_ccu4.h ****   #pragma push
 626:C:/Users/Lenovo/workspace/dave_workspace/SOLAR_TOWER/Libraries/XMCLib/inc\xmc_ccu4.h ****   #pragma anon_unions
 627:C:/Users/Lenovo/workspace/dave_workspace/SOLAR_TOWER/Libraries/XMCLib/inc\xmc_ccu4.h **** #elif defined(__TASKING__)
 628:C:/Users/Lenovo/workspace/dave_workspace/SOLAR_TOWER/Libraries/XMCLib/inc\xmc_ccu4.h ****   #pragma warning 586
 629:C:/Users/Lenovo/workspace/dave_workspace/SOLAR_TOWER/Libraries/XMCLib/inc\xmc_ccu4.h **** #endif
 630:C:/Users/Lenovo/workspace/dave_workspace/SOLAR_TOWER/Libraries/XMCLib/inc\xmc_ccu4.h **** 
 631:C:/Users/Lenovo/workspace/dave_workspace/SOLAR_TOWER/Libraries/XMCLib/inc\xmc_ccu4.h **** /**
 632:C:/Users/Lenovo/workspace/dave_workspace/SOLAR_TOWER/Libraries/XMCLib/inc\xmc_ccu4.h ****  *  Configuration data structure for CCU4 slice. Specifically configures the CCU4 slice to compare 
 633:C:/Users/Lenovo/workspace/dave_workspace/SOLAR_TOWER/Libraries/XMCLib/inc\xmc_ccu4.h ****  *  This excludes event and function configuration.
 634:C:/Users/Lenovo/workspace/dave_workspace/SOLAR_TOWER/Libraries/XMCLib/inc\xmc_ccu4.h ****  */ 
 635:C:/Users/Lenovo/workspace/dave_workspace/SOLAR_TOWER/Libraries/XMCLib/inc\xmc_ccu4.h **** typedef struct XMC_CCU4_SLICE_COMPARE_CONFIG
 636:C:/Users/Lenovo/workspace/dave_workspace/SOLAR_TOWER/Libraries/XMCLib/inc\xmc_ccu4.h **** {
 637:C:/Users/Lenovo/workspace/dave_workspace/SOLAR_TOWER/Libraries/XMCLib/inc\xmc_ccu4.h ****   union
 638:C:/Users/Lenovo/workspace/dave_workspace/SOLAR_TOWER/Libraries/XMCLib/inc\xmc_ccu4.h ****   {
 639:C:/Users/Lenovo/workspace/dave_workspace/SOLAR_TOWER/Libraries/XMCLib/inc\xmc_ccu4.h ****     struct
 640:C:/Users/Lenovo/workspace/dave_workspace/SOLAR_TOWER/Libraries/XMCLib/inc\xmc_ccu4.h ****     {
 641:C:/Users/Lenovo/workspace/dave_workspace/SOLAR_TOWER/Libraries/XMCLib/inc\xmc_ccu4.h ****       uint32_t timer_mode : 1;         /**< Edge aligned or Centre Aligned.
 642:C:/Users/Lenovo/workspace/dave_workspace/SOLAR_TOWER/Libraries/XMCLib/inc\xmc_ccu4.h ****                                              Accepts enum ::XMC_CCU4_SLICE_TIMER_COUNT_MODE_t */
 643:C:/Users/Lenovo/workspace/dave_workspace/SOLAR_TOWER/Libraries/XMCLib/inc\xmc_ccu4.h ****       uint32_t monoshot : 1;           /**< Single shot or Continuous mode .
 644:C:/Users/Lenovo/workspace/dave_workspace/SOLAR_TOWER/Libraries/XMCLib/inc\xmc_ccu4.h ****                                              Accepts enum :: XMC_CCU4_SLICE_TIMER_REPEAT_MODE_t*/
 645:C:/Users/Lenovo/workspace/dave_workspace/SOLAR_TOWER/Libraries/XMCLib/inc\xmc_ccu4.h ****       uint32_t shadow_xfer_clear : 1;  /**< Should PR and CR shadow xfer happen when timer is clear
 646:C:/Users/Lenovo/workspace/dave_workspace/SOLAR_TOWER/Libraries/XMCLib/inc\xmc_ccu4.h ****       uint32_t : 10;
 647:C:/Users/Lenovo/workspace/dave_workspace/SOLAR_TOWER/Libraries/XMCLib/inc\xmc_ccu4.h ****       uint32_t dither_timer_period: 1; /**< Can the period of the timer dither? */
 648:C:/Users/Lenovo/workspace/dave_workspace/SOLAR_TOWER/Libraries/XMCLib/inc\xmc_ccu4.h ****       uint32_t dither_duty_cycle : 1;  /**< Can the compare match of the timer dither? */
 649:C:/Users/Lenovo/workspace/dave_workspace/SOLAR_TOWER/Libraries/XMCLib/inc\xmc_ccu4.h ****       uint32_t : 1;
 650:C:/Users/Lenovo/workspace/dave_workspace/SOLAR_TOWER/Libraries/XMCLib/inc\xmc_ccu4.h ****       uint32_t prescaler_mode: 1;      /**< Normal or floating prescaler mode.
 651:C:/Users/Lenovo/workspace/dave_workspace/SOLAR_TOWER/Libraries/XMCLib/inc\xmc_ccu4.h ****                                              Accepts enum :: XMC_CCU4_SLICE_PRESCALER_MODE_t*/
 652:C:/Users/Lenovo/workspace/dave_workspace/SOLAR_TOWER/Libraries/XMCLib/inc\xmc_ccu4.h ****       uint32_t : 8;
 653:C:/Users/Lenovo/workspace/dave_workspace/SOLAR_TOWER/Libraries/XMCLib/inc\xmc_ccu4.h ****       uint32_t mcm_enable : 1;         /**< Multi-Channel mode enable? */
 654:C:/Users/Lenovo/workspace/dave_workspace/SOLAR_TOWER/Libraries/XMCLib/inc\xmc_ccu4.h ****       uint32_t : 6;
 655:C:/Users/Lenovo/workspace/dave_workspace/SOLAR_TOWER/Libraries/XMCLib/inc\xmc_ccu4.h ****     };
 656:C:/Users/Lenovo/workspace/dave_workspace/SOLAR_TOWER/Libraries/XMCLib/inc\xmc_ccu4.h ****     uint32_t tc;
 657:C:/Users/Lenovo/workspace/dave_workspace/SOLAR_TOWER/Libraries/XMCLib/inc\xmc_ccu4.h ****   };
 658:C:/Users/Lenovo/workspace/dave_workspace/SOLAR_TOWER/Libraries/XMCLib/inc\xmc_ccu4.h ****   uint32_t prescaler_initval : 4;      /**< Initial prescaler divider value 
 659:C:/Users/Lenovo/workspace/dave_workspace/SOLAR_TOWER/Libraries/XMCLib/inc\xmc_ccu4.h ****                                             Accepts enum :: XMC_CCU4_SLICE_PRESCALER_t */
 660:C:/Users/Lenovo/workspace/dave_workspace/SOLAR_TOWER/Libraries/XMCLib/inc\xmc_ccu4.h ****   uint32_t float_limit : 4;            /**< The max value which the prescaler divider can increment
 661:C:/Users/Lenovo/workspace/dave_workspace/SOLAR_TOWER/Libraries/XMCLib/inc\xmc_ccu4.h ****   uint32_t dither_limit : 4;           /**< The value that determines the spreading of dithering */
 662:C:/Users/Lenovo/workspace/dave_workspace/SOLAR_TOWER/Libraries/XMCLib/inc\xmc_ccu4.h ****   uint32_t passive_level : 1;          /**< Configuration of ST and OUT passive levels.
 663:C:/Users/Lenovo/workspace/dave_workspace/SOLAR_TOWER/Libraries/XMCLib/inc\xmc_ccu4.h ****                                              Accepts enum :: XMC_CCU4_SLICE_OUTPUT_PASSIVE_LEVEL_t*
 664:C:/Users/Lenovo/workspace/dave_workspace/SOLAR_TOWER/Libraries/XMCLib/inc\xmc_ccu4.h ****   uint32_t timer_concatenation : 1;    /**< Enables the concatenation of the timer if true.*/
 665:C:/Users/Lenovo/workspace/dave_workspace/SOLAR_TOWER/Libraries/XMCLib/inc\xmc_ccu4.h **** } XMC_CCU4_SLICE_COMPARE_CONFIG_t;
 666:C:/Users/Lenovo/workspace/dave_workspace/SOLAR_TOWER/Libraries/XMCLib/inc\xmc_ccu4.h **** 
 667:C:/Users/Lenovo/workspace/dave_workspace/SOLAR_TOWER/Libraries/XMCLib/inc\xmc_ccu4.h **** /**
 668:C:/Users/Lenovo/workspace/dave_workspace/SOLAR_TOWER/Libraries/XMCLib/inc\xmc_ccu4.h ****  *  Configuration data structure for CCU4 slice. Specifically configures the CCU4 slice to capture 
 669:C:/Users/Lenovo/workspace/dave_workspace/SOLAR_TOWER/Libraries/XMCLib/inc\xmc_ccu4.h ****  *  This excludes event and function configuration.
 670:C:/Users/Lenovo/workspace/dave_workspace/SOLAR_TOWER/Libraries/XMCLib/inc\xmc_ccu4.h ****  */ 
 671:C:/Users/Lenovo/workspace/dave_workspace/SOLAR_TOWER/Libraries/XMCLib/inc\xmc_ccu4.h **** typedef struct XMC_CCU4_SLICE_CAPTURE_CONFIG
 672:C:/Users/Lenovo/workspace/dave_workspace/SOLAR_TOWER/Libraries/XMCLib/inc\xmc_ccu4.h **** {
 673:C:/Users/Lenovo/workspace/dave_workspace/SOLAR_TOWER/Libraries/XMCLib/inc\xmc_ccu4.h ****   union
 674:C:/Users/Lenovo/workspace/dave_workspace/SOLAR_TOWER/Libraries/XMCLib/inc\xmc_ccu4.h ****   {
 675:C:/Users/Lenovo/workspace/dave_workspace/SOLAR_TOWER/Libraries/XMCLib/inc\xmc_ccu4.h ****     struct
 676:C:/Users/Lenovo/workspace/dave_workspace/SOLAR_TOWER/Libraries/XMCLib/inc\xmc_ccu4.h ****     {
 677:C:/Users/Lenovo/workspace/dave_workspace/SOLAR_TOWER/Libraries/XMCLib/inc\xmc_ccu4.h ****       uint32_t : 4;
 678:C:/Users/Lenovo/workspace/dave_workspace/SOLAR_TOWER/Libraries/XMCLib/inc\xmc_ccu4.h ****       uint32_t fifo_enable : 1;      /**< Should the capture registers be setup as a FIFO?(Extended
 679:C:/Users/Lenovo/workspace/dave_workspace/SOLAR_TOWER/Libraries/XMCLib/inc\xmc_ccu4.h ****       uint32_t timer_clear_mode : 2; /**< How should the timer register be cleared upon detection o
 680:C:/Users/Lenovo/workspace/dave_workspace/SOLAR_TOWER/Libraries/XMCLib/inc\xmc_ccu4.h ****                                           Accepts enum ::XMC_CCU4_SLICE_TIMER_CLEAR_MODE_t*/
 681:C:/Users/Lenovo/workspace/dave_workspace/SOLAR_TOWER/Libraries/XMCLib/inc\xmc_ccu4.h ****       uint32_t : 4;
 682:C:/Users/Lenovo/workspace/dave_workspace/SOLAR_TOWER/Libraries/XMCLib/inc\xmc_ccu4.h ****       uint32_t same_event : 1;       /**< Should the capture event for C1V/C0V and C3V/C2V be same 
 683:C:/Users/Lenovo/workspace/dave_workspace/SOLAR_TOWER/Libraries/XMCLib/inc\xmc_ccu4.h ****       uint32_t ignore_full_flag : 1; /**< Should updates to capture registers follow full flag rule
 684:C:/Users/Lenovo/workspace/dave_workspace/SOLAR_TOWER/Libraries/XMCLib/inc\xmc_ccu4.h ****       uint32_t : 3;
 685:C:/Users/Lenovo/workspace/dave_workspace/SOLAR_TOWER/Libraries/XMCLib/inc\xmc_ccu4.h ****       uint32_t prescaler_mode: 1;    /**< Normal or floating prescaler Accepts enum :: XMC_CCU4_SLI
 686:C:/Users/Lenovo/workspace/dave_workspace/SOLAR_TOWER/Libraries/XMCLib/inc\xmc_ccu4.h ****       uint32_t : 15;
 687:C:/Users/Lenovo/workspace/dave_workspace/SOLAR_TOWER/Libraries/XMCLib/inc\xmc_ccu4.h ****     };
 688:C:/Users/Lenovo/workspace/dave_workspace/SOLAR_TOWER/Libraries/XMCLib/inc\xmc_ccu4.h ****     uint32_t tc;
 689:C:/Users/Lenovo/workspace/dave_workspace/SOLAR_TOWER/Libraries/XMCLib/inc\xmc_ccu4.h ****   };
 690:C:/Users/Lenovo/workspace/dave_workspace/SOLAR_TOWER/Libraries/XMCLib/inc\xmc_ccu4.h ****   uint32_t prescaler_initval : 4;    /**< Prescaler divider value */
 691:C:/Users/Lenovo/workspace/dave_workspace/SOLAR_TOWER/Libraries/XMCLib/inc\xmc_ccu4.h ****   uint32_t float_limit : 4;          /**< The max value which the prescaler divider can increment t
 692:C:/Users/Lenovo/workspace/dave_workspace/SOLAR_TOWER/Libraries/XMCLib/inc\xmc_ccu4.h ****   uint32_t timer_concatenation : 1;  /**< Enables the concatenation of the timer */
 693:C:/Users/Lenovo/workspace/dave_workspace/SOLAR_TOWER/Libraries/XMCLib/inc\xmc_ccu4.h **** } XMC_CCU4_SLICE_CAPTURE_CONFIG_t;
 694:C:/Users/Lenovo/workspace/dave_workspace/SOLAR_TOWER/Libraries/XMCLib/inc\xmc_ccu4.h **** /*Anonymous structure/union guard end*/
 695:C:/Users/Lenovo/workspace/dave_workspace/SOLAR_TOWER/Libraries/XMCLib/inc\xmc_ccu4.h **** #if defined(__CC_ARM)
 696:C:/Users/Lenovo/workspace/dave_workspace/SOLAR_TOWER/Libraries/XMCLib/inc\xmc_ccu4.h ****   #pragma pop
 697:C:/Users/Lenovo/workspace/dave_workspace/SOLAR_TOWER/Libraries/XMCLib/inc\xmc_ccu4.h **** #elif defined(__TASKING__)
 698:C:/Users/Lenovo/workspace/dave_workspace/SOLAR_TOWER/Libraries/XMCLib/inc\xmc_ccu4.h ****   #pragma warning restore
 699:C:/Users/Lenovo/workspace/dave_workspace/SOLAR_TOWER/Libraries/XMCLib/inc\xmc_ccu4.h **** #endif
 700:C:/Users/Lenovo/workspace/dave_workspace/SOLAR_TOWER/Libraries/XMCLib/inc\xmc_ccu4.h **** /**************************************************************************************************
 701:C:/Users/Lenovo/workspace/dave_workspace/SOLAR_TOWER/Libraries/XMCLib/inc\xmc_ccu4.h ****  * API Prototypes
 702:C:/Users/Lenovo/workspace/dave_workspace/SOLAR_TOWER/Libraries/XMCLib/inc\xmc_ccu4.h ****  **************************************************************************************************
 703:C:/Users/Lenovo/workspace/dave_workspace/SOLAR_TOWER/Libraries/XMCLib/inc\xmc_ccu4.h **** 
 704:C:/Users/Lenovo/workspace/dave_workspace/SOLAR_TOWER/Libraries/XMCLib/inc\xmc_ccu4.h **** #ifdef __cplusplus
 705:C:/Users/Lenovo/workspace/dave_workspace/SOLAR_TOWER/Libraries/XMCLib/inc\xmc_ccu4.h **** extern "C" {
 706:C:/Users/Lenovo/workspace/dave_workspace/SOLAR_TOWER/Libraries/XMCLib/inc\xmc_ccu4.h **** #endif
 707:C:/Users/Lenovo/workspace/dave_workspace/SOLAR_TOWER/Libraries/XMCLib/inc\xmc_ccu4.h **** 
 708:C:/Users/Lenovo/workspace/dave_workspace/SOLAR_TOWER/Libraries/XMCLib/inc\xmc_ccu4.h **** __STATIC_INLINE bool XMC_CCU4_IsValidModule(const XMC_CCU4_MODULE_t *const module)
 709:C:/Users/Lenovo/workspace/dave_workspace/SOLAR_TOWER/Libraries/XMCLib/inc\xmc_ccu4.h **** {
 710:C:/Users/Lenovo/workspace/dave_workspace/SOLAR_TOWER/Libraries/XMCLib/inc\xmc_ccu4.h ****   bool tmp = false;
 711:C:/Users/Lenovo/workspace/dave_workspace/SOLAR_TOWER/Libraries/XMCLib/inc\xmc_ccu4.h ****   
 712:C:/Users/Lenovo/workspace/dave_workspace/SOLAR_TOWER/Libraries/XMCLib/inc\xmc_ccu4.h ****   tmp = (module == CCU40);
 713:C:/Users/Lenovo/workspace/dave_workspace/SOLAR_TOWER/Libraries/XMCLib/inc\xmc_ccu4.h ****   
 714:C:/Users/Lenovo/workspace/dave_workspace/SOLAR_TOWER/Libraries/XMCLib/inc\xmc_ccu4.h **** #if defined(CCU41) 
 715:C:/Users/Lenovo/workspace/dave_workspace/SOLAR_TOWER/Libraries/XMCLib/inc\xmc_ccu4.h ****   tmp = tmp || (module == CCU41);
 716:C:/Users/Lenovo/workspace/dave_workspace/SOLAR_TOWER/Libraries/XMCLib/inc\xmc_ccu4.h **** #endif
 717:C:/Users/Lenovo/workspace/dave_workspace/SOLAR_TOWER/Libraries/XMCLib/inc\xmc_ccu4.h **** 
 718:C:/Users/Lenovo/workspace/dave_workspace/SOLAR_TOWER/Libraries/XMCLib/inc\xmc_ccu4.h **** #if defined(CCU42)
 719:C:/Users/Lenovo/workspace/dave_workspace/SOLAR_TOWER/Libraries/XMCLib/inc\xmc_ccu4.h ****   tmp = tmp || (module == CCU42);
 720:C:/Users/Lenovo/workspace/dave_workspace/SOLAR_TOWER/Libraries/XMCLib/inc\xmc_ccu4.h **** #endif
 721:C:/Users/Lenovo/workspace/dave_workspace/SOLAR_TOWER/Libraries/XMCLib/inc\xmc_ccu4.h **** 
 722:C:/Users/Lenovo/workspace/dave_workspace/SOLAR_TOWER/Libraries/XMCLib/inc\xmc_ccu4.h **** #if defined(CCU43)
 723:C:/Users/Lenovo/workspace/dave_workspace/SOLAR_TOWER/Libraries/XMCLib/inc\xmc_ccu4.h ****   tmp = tmp || (module == CCU43);
 724:C:/Users/Lenovo/workspace/dave_workspace/SOLAR_TOWER/Libraries/XMCLib/inc\xmc_ccu4.h **** #endif
 725:C:/Users/Lenovo/workspace/dave_workspace/SOLAR_TOWER/Libraries/XMCLib/inc\xmc_ccu4.h ****   
 726:C:/Users/Lenovo/workspace/dave_workspace/SOLAR_TOWER/Libraries/XMCLib/inc\xmc_ccu4.h ****   return tmp;  
 727:C:/Users/Lenovo/workspace/dave_workspace/SOLAR_TOWER/Libraries/XMCLib/inc\xmc_ccu4.h **** } 
 728:C:/Users/Lenovo/workspace/dave_workspace/SOLAR_TOWER/Libraries/XMCLib/inc\xmc_ccu4.h **** 
 729:C:/Users/Lenovo/workspace/dave_workspace/SOLAR_TOWER/Libraries/XMCLib/inc\xmc_ccu4.h **** __STATIC_INLINE bool XMC_CCU4_IsValidSlice(const XMC_CCU4_SLICE_t *const slice)
 730:C:/Users/Lenovo/workspace/dave_workspace/SOLAR_TOWER/Libraries/XMCLib/inc\xmc_ccu4.h **** {
 731:C:/Users/Lenovo/workspace/dave_workspace/SOLAR_TOWER/Libraries/XMCLib/inc\xmc_ccu4.h ****   bool tmp = false;
 732:C:/Users/Lenovo/workspace/dave_workspace/SOLAR_TOWER/Libraries/XMCLib/inc\xmc_ccu4.h ****   
 733:C:/Users/Lenovo/workspace/dave_workspace/SOLAR_TOWER/Libraries/XMCLib/inc\xmc_ccu4.h ****   tmp = (slice == CCU40_CC40);
 734:C:/Users/Lenovo/workspace/dave_workspace/SOLAR_TOWER/Libraries/XMCLib/inc\xmc_ccu4.h **** #if defined(CCU40_CC41)  
 735:C:/Users/Lenovo/workspace/dave_workspace/SOLAR_TOWER/Libraries/XMCLib/inc\xmc_ccu4.h ****   tmp = tmp || (slice == CCU40_CC41);
 736:C:/Users/Lenovo/workspace/dave_workspace/SOLAR_TOWER/Libraries/XMCLib/inc\xmc_ccu4.h **** #endif
 737:C:/Users/Lenovo/workspace/dave_workspace/SOLAR_TOWER/Libraries/XMCLib/inc\xmc_ccu4.h **** #if defined(CCU40_CC42)  
 738:C:/Users/Lenovo/workspace/dave_workspace/SOLAR_TOWER/Libraries/XMCLib/inc\xmc_ccu4.h ****   tmp = tmp || (slice == CCU40_CC42);
 739:C:/Users/Lenovo/workspace/dave_workspace/SOLAR_TOWER/Libraries/XMCLib/inc\xmc_ccu4.h **** #endif
 740:C:/Users/Lenovo/workspace/dave_workspace/SOLAR_TOWER/Libraries/XMCLib/inc\xmc_ccu4.h **** #if defined(CCU40_CC43)  
 741:C:/Users/Lenovo/workspace/dave_workspace/SOLAR_TOWER/Libraries/XMCLib/inc\xmc_ccu4.h ****   tmp = tmp || (slice == CCU40_CC43);
 742:C:/Users/Lenovo/workspace/dave_workspace/SOLAR_TOWER/Libraries/XMCLib/inc\xmc_ccu4.h **** #endif
 743:C:/Users/Lenovo/workspace/dave_workspace/SOLAR_TOWER/Libraries/XMCLib/inc\xmc_ccu4.h **** #if defined(CCU41)  
 744:C:/Users/Lenovo/workspace/dave_workspace/SOLAR_TOWER/Libraries/XMCLib/inc\xmc_ccu4.h ****   tmp = tmp || (slice == CCU41_CC40);
 745:C:/Users/Lenovo/workspace/dave_workspace/SOLAR_TOWER/Libraries/XMCLib/inc\xmc_ccu4.h **** #if defined(CCU41_CC41)  
 746:C:/Users/Lenovo/workspace/dave_workspace/SOLAR_TOWER/Libraries/XMCLib/inc\xmc_ccu4.h ****   tmp = tmp || (slice == CCU41_CC41);
 747:C:/Users/Lenovo/workspace/dave_workspace/SOLAR_TOWER/Libraries/XMCLib/inc\xmc_ccu4.h **** #endif
 748:C:/Users/Lenovo/workspace/dave_workspace/SOLAR_TOWER/Libraries/XMCLib/inc\xmc_ccu4.h **** #if defined(CCU41_CC42)  
 749:C:/Users/Lenovo/workspace/dave_workspace/SOLAR_TOWER/Libraries/XMCLib/inc\xmc_ccu4.h ****   tmp = tmp || (slice == CCU41_CC42);
 750:C:/Users/Lenovo/workspace/dave_workspace/SOLAR_TOWER/Libraries/XMCLib/inc\xmc_ccu4.h **** #endif
 751:C:/Users/Lenovo/workspace/dave_workspace/SOLAR_TOWER/Libraries/XMCLib/inc\xmc_ccu4.h **** #if defined(CCU41_CC43)  
 752:C:/Users/Lenovo/workspace/dave_workspace/SOLAR_TOWER/Libraries/XMCLib/inc\xmc_ccu4.h ****   tmp = tmp || (slice == CCU41_CC43);
 753:C:/Users/Lenovo/workspace/dave_workspace/SOLAR_TOWER/Libraries/XMCLib/inc\xmc_ccu4.h **** #endif
 754:C:/Users/Lenovo/workspace/dave_workspace/SOLAR_TOWER/Libraries/XMCLib/inc\xmc_ccu4.h **** #endif 
 755:C:/Users/Lenovo/workspace/dave_workspace/SOLAR_TOWER/Libraries/XMCLib/inc\xmc_ccu4.h **** #if defined(CCU42)  
 756:C:/Users/Lenovo/workspace/dave_workspace/SOLAR_TOWER/Libraries/XMCLib/inc\xmc_ccu4.h ****   tmp = tmp || (slice == CCU42_CC40);
 757:C:/Users/Lenovo/workspace/dave_workspace/SOLAR_TOWER/Libraries/XMCLib/inc\xmc_ccu4.h **** #if defined(CCU42_CC41)  
 758:C:/Users/Lenovo/workspace/dave_workspace/SOLAR_TOWER/Libraries/XMCLib/inc\xmc_ccu4.h ****   tmp = tmp || (slice == CCU42_CC41);
 759:C:/Users/Lenovo/workspace/dave_workspace/SOLAR_TOWER/Libraries/XMCLib/inc\xmc_ccu4.h **** #endif
 760:C:/Users/Lenovo/workspace/dave_workspace/SOLAR_TOWER/Libraries/XMCLib/inc\xmc_ccu4.h **** #if defined(CCU42_CC42)  
 761:C:/Users/Lenovo/workspace/dave_workspace/SOLAR_TOWER/Libraries/XMCLib/inc\xmc_ccu4.h ****   tmp = tmp || (slice == CCU42_CC42);
 762:C:/Users/Lenovo/workspace/dave_workspace/SOLAR_TOWER/Libraries/XMCLib/inc\xmc_ccu4.h **** #endif
 763:C:/Users/Lenovo/workspace/dave_workspace/SOLAR_TOWER/Libraries/XMCLib/inc\xmc_ccu4.h **** #if defined(CCU42_CC43)  
 764:C:/Users/Lenovo/workspace/dave_workspace/SOLAR_TOWER/Libraries/XMCLib/inc\xmc_ccu4.h ****   tmp = tmp || (slice == CCU42_CC43);
 765:C:/Users/Lenovo/workspace/dave_workspace/SOLAR_TOWER/Libraries/XMCLib/inc\xmc_ccu4.h **** #endif
 766:C:/Users/Lenovo/workspace/dave_workspace/SOLAR_TOWER/Libraries/XMCLib/inc\xmc_ccu4.h **** #endif
 767:C:/Users/Lenovo/workspace/dave_workspace/SOLAR_TOWER/Libraries/XMCLib/inc\xmc_ccu4.h **** #if defined(CCU43)  
 768:C:/Users/Lenovo/workspace/dave_workspace/SOLAR_TOWER/Libraries/XMCLib/inc\xmc_ccu4.h ****   tmp = tmp || (slice == CCU43_CC40);
 769:C:/Users/Lenovo/workspace/dave_workspace/SOLAR_TOWER/Libraries/XMCLib/inc\xmc_ccu4.h **** #if defined(CCU43_CC41)  
 770:C:/Users/Lenovo/workspace/dave_workspace/SOLAR_TOWER/Libraries/XMCLib/inc\xmc_ccu4.h ****   tmp = tmp || (slice == CCU43_CC41);
 771:C:/Users/Lenovo/workspace/dave_workspace/SOLAR_TOWER/Libraries/XMCLib/inc\xmc_ccu4.h **** #endif
 772:C:/Users/Lenovo/workspace/dave_workspace/SOLAR_TOWER/Libraries/XMCLib/inc\xmc_ccu4.h **** #if defined(CCU43_CC42)  
 773:C:/Users/Lenovo/workspace/dave_workspace/SOLAR_TOWER/Libraries/XMCLib/inc\xmc_ccu4.h ****   tmp = tmp || (slice == CCU43_CC42);
 774:C:/Users/Lenovo/workspace/dave_workspace/SOLAR_TOWER/Libraries/XMCLib/inc\xmc_ccu4.h **** #endif
 775:C:/Users/Lenovo/workspace/dave_workspace/SOLAR_TOWER/Libraries/XMCLib/inc\xmc_ccu4.h **** #if defined(CCU43_CC43)  
 776:C:/Users/Lenovo/workspace/dave_workspace/SOLAR_TOWER/Libraries/XMCLib/inc\xmc_ccu4.h ****   tmp = tmp || (slice == CCU43_CC43);
 777:C:/Users/Lenovo/workspace/dave_workspace/SOLAR_TOWER/Libraries/XMCLib/inc\xmc_ccu4.h **** #endif
 778:C:/Users/Lenovo/workspace/dave_workspace/SOLAR_TOWER/Libraries/XMCLib/inc\xmc_ccu4.h **** #endif 
 779:C:/Users/Lenovo/workspace/dave_workspace/SOLAR_TOWER/Libraries/XMCLib/inc\xmc_ccu4.h ****   
 780:C:/Users/Lenovo/workspace/dave_workspace/SOLAR_TOWER/Libraries/XMCLib/inc\xmc_ccu4.h ****   return tmp;  
 781:C:/Users/Lenovo/workspace/dave_workspace/SOLAR_TOWER/Libraries/XMCLib/inc\xmc_ccu4.h **** } 
 782:C:/Users/Lenovo/workspace/dave_workspace/SOLAR_TOWER/Libraries/XMCLib/inc\xmc_ccu4.h **** 
 783:C:/Users/Lenovo/workspace/dave_workspace/SOLAR_TOWER/Libraries/XMCLib/inc\xmc_ccu4.h **** /**
 784:C:/Users/Lenovo/workspace/dave_workspace/SOLAR_TOWER/Libraries/XMCLib/inc\xmc_ccu4.h ****  * @param module Constant pointer to CCU4 module
 785:C:/Users/Lenovo/workspace/dave_workspace/SOLAR_TOWER/Libraries/XMCLib/inc\xmc_ccu4.h ****  * @param mcs_action multi-channel shadow transfer request configuration
 786:C:/Users/Lenovo/workspace/dave_workspace/SOLAR_TOWER/Libraries/XMCLib/inc\xmc_ccu4.h ****  * @return <BR>
 787:C:/Users/Lenovo/workspace/dave_workspace/SOLAR_TOWER/Libraries/XMCLib/inc\xmc_ccu4.h ****  *    None<BR>
 788:C:/Users/Lenovo/workspace/dave_workspace/SOLAR_TOWER/Libraries/XMCLib/inc\xmc_ccu4.h ****  *
 789:C:/Users/Lenovo/workspace/dave_workspace/SOLAR_TOWER/Libraries/XMCLib/inc\xmc_ccu4.h ****  * \par<b>Description:</b><br>
 790:C:/Users/Lenovo/workspace/dave_workspace/SOLAR_TOWER/Libraries/XMCLib/inc\xmc_ccu4.h ****  *  Initialization of global register GCTRL.<br>\n
 791:C:/Users/Lenovo/workspace/dave_workspace/SOLAR_TOWER/Libraries/XMCLib/inc\xmc_ccu4.h ****  *  As part of module initialization, behaviour of the module upon detection
 792:C:/Users/Lenovo/workspace/dave_workspace/SOLAR_TOWER/Libraries/XMCLib/inc\xmc_ccu4.h ****  *  Multi-Channel Mode trigger is configured. Will also invoke the XMC_CCU4_EnableModule().
 793:C:/Users/Lenovo/workspace/dave_workspace/SOLAR_TOWER/Libraries/XMCLib/inc\xmc_ccu4.h ****  *  The API call would bring up the required CCU4 module and also initialize the module for
 794:C:/Users/Lenovo/workspace/dave_workspace/SOLAR_TOWER/Libraries/XMCLib/inc\xmc_ccu4.h ****  *  the required multi-channel shadow transfer.
 795:C:/Users/Lenovo/workspace/dave_workspace/SOLAR_TOWER/Libraries/XMCLib/inc\xmc_ccu4.h ****  *
 796:C:/Users/Lenovo/workspace/dave_workspace/SOLAR_TOWER/Libraries/XMCLib/inc\xmc_ccu4.h ****  * \par<b>Related APIs:</b><br>
 797:C:/Users/Lenovo/workspace/dave_workspace/SOLAR_TOWER/Libraries/XMCLib/inc\xmc_ccu4.h ****  * XMC_CCU4_SLICE_CompareInit()<BR> XMC_CCU4_SLICE_CaptureInit().
 798:C:/Users/Lenovo/workspace/dave_workspace/SOLAR_TOWER/Libraries/XMCLib/inc\xmc_ccu4.h ****  */
 799:C:/Users/Lenovo/workspace/dave_workspace/SOLAR_TOWER/Libraries/XMCLib/inc\xmc_ccu4.h **** void XMC_CCU4_Init(XMC_CCU4_MODULE_t *const module, const XMC_CCU4_SLICE_MCMS_ACTION_t mcs_action);
 800:C:/Users/Lenovo/workspace/dave_workspace/SOLAR_TOWER/Libraries/XMCLib/inc\xmc_ccu4.h **** 
 801:C:/Users/Lenovo/workspace/dave_workspace/SOLAR_TOWER/Libraries/XMCLib/inc\xmc_ccu4.h **** /**
 802:C:/Users/Lenovo/workspace/dave_workspace/SOLAR_TOWER/Libraries/XMCLib/inc\xmc_ccu4.h ****  * @param module Constant pointer to CCU4 module
 803:C:/Users/Lenovo/workspace/dave_workspace/SOLAR_TOWER/Libraries/XMCLib/inc\xmc_ccu4.h ****  * @param clock Choice of input clock to the module
 804:C:/Users/Lenovo/workspace/dave_workspace/SOLAR_TOWER/Libraries/XMCLib/inc\xmc_ccu4.h ****  * @return <BR>
 805:C:/Users/Lenovo/workspace/dave_workspace/SOLAR_TOWER/Libraries/XMCLib/inc\xmc_ccu4.h ****  *    None<BR>
 806:C:/Users/Lenovo/workspace/dave_workspace/SOLAR_TOWER/Libraries/XMCLib/inc\xmc_ccu4.h ****  *
 807:C:/Users/Lenovo/workspace/dave_workspace/SOLAR_TOWER/Libraries/XMCLib/inc\xmc_ccu4.h ****  * \par<b>Description:</b><br>
 808:C:/Users/Lenovo/workspace/dave_workspace/SOLAR_TOWER/Libraries/XMCLib/inc\xmc_ccu4.h ****  *  Selects the Module Clock by configuring GCTRL.PCIS bits.<BR>\n
 809:C:/Users/Lenovo/workspace/dave_workspace/SOLAR_TOWER/Libraries/XMCLib/inc\xmc_ccu4.h ****  *  There are 3 potential clock sources. This API helps to select the required clock source.
 810:C:/Users/Lenovo/workspace/dave_workspace/SOLAR_TOWER/Libraries/XMCLib/inc\xmc_ccu4.h ****  *  Call to this API is valid after the XMC_CCU4_Init().
 811:C:/Users/Lenovo/workspace/dave_workspace/SOLAR_TOWER/Libraries/XMCLib/inc\xmc_ccu4.h ****  *
 812:C:/Users/Lenovo/workspace/dave_workspace/SOLAR_TOWER/Libraries/XMCLib/inc\xmc_ccu4.h ****  * \par<b>Related APIs:</b><br>
 813:C:/Users/Lenovo/workspace/dave_workspace/SOLAR_TOWER/Libraries/XMCLib/inc\xmc_ccu4.h ****  * None.<BR>
 814:C:/Users/Lenovo/workspace/dave_workspace/SOLAR_TOWER/Libraries/XMCLib/inc\xmc_ccu4.h ****  */
 815:C:/Users/Lenovo/workspace/dave_workspace/SOLAR_TOWER/Libraries/XMCLib/inc\xmc_ccu4.h **** void XMC_CCU4_SetModuleClock(XMC_CCU4_MODULE_t *const module, const XMC_CCU4_CLOCK_t clock);
 816:C:/Users/Lenovo/workspace/dave_workspace/SOLAR_TOWER/Libraries/XMCLib/inc\xmc_ccu4.h **** 
 817:C:/Users/Lenovo/workspace/dave_workspace/SOLAR_TOWER/Libraries/XMCLib/inc\xmc_ccu4.h **** /**
 818:C:/Users/Lenovo/workspace/dave_workspace/SOLAR_TOWER/Libraries/XMCLib/inc\xmc_ccu4.h ****  * @param module Constant pointer to CCU4 module
 819:C:/Users/Lenovo/workspace/dave_workspace/SOLAR_TOWER/Libraries/XMCLib/inc\xmc_ccu4.h ****  * @return <BR>
 820:C:/Users/Lenovo/workspace/dave_workspace/SOLAR_TOWER/Libraries/XMCLib/inc\xmc_ccu4.h ****  *    None<BR>
 821:C:/Users/Lenovo/workspace/dave_workspace/SOLAR_TOWER/Libraries/XMCLib/inc\xmc_ccu4.h ****  *
 822:C:/Users/Lenovo/workspace/dave_workspace/SOLAR_TOWER/Libraries/XMCLib/inc\xmc_ccu4.h ****  * \par<b>Description:</b><br>
 823:C:/Users/Lenovo/workspace/dave_workspace/SOLAR_TOWER/Libraries/XMCLib/inc\xmc_ccu4.h ****  * Enables the CCU4 module and brings it to active state.<BR>\n
 824:C:/Users/Lenovo/workspace/dave_workspace/SOLAR_TOWER/Libraries/XMCLib/inc\xmc_ccu4.h ****  * Also disables the gating of the clock signal (if applicable depending on the device being select
 825:C:/Users/Lenovo/workspace/dave_workspace/SOLAR_TOWER/Libraries/XMCLib/inc\xmc_ccu4.h ****  * Invoke this API before any operations are done on the CCU4 module. Invoked from  XMC_CCU4_Init()
 826:C:/Users/Lenovo/workspace/dave_workspace/SOLAR_TOWER/Libraries/XMCLib/inc\xmc_ccu4.h ****  *
 827:C:/Users/Lenovo/workspace/dave_workspace/SOLAR_TOWER/Libraries/XMCLib/inc\xmc_ccu4.h ****  * \par<b>Related APIs:</b><br>
 828:C:/Users/Lenovo/workspace/dave_workspace/SOLAR_TOWER/Libraries/XMCLib/inc\xmc_ccu4.h ****  * XMC_CCU4_SetModuleClock()<BR> XMC_CCU4_DisableModule()<BR> XMC_CCU4_StartPrescaler().
 829:C:/Users/Lenovo/workspace/dave_workspace/SOLAR_TOWER/Libraries/XMCLib/inc\xmc_ccu4.h ****  */
 830:C:/Users/Lenovo/workspace/dave_workspace/SOLAR_TOWER/Libraries/XMCLib/inc\xmc_ccu4.h **** void XMC_CCU4_EnableModule(XMC_CCU4_MODULE_t *const module);
 831:C:/Users/Lenovo/workspace/dave_workspace/SOLAR_TOWER/Libraries/XMCLib/inc\xmc_ccu4.h **** 
 832:C:/Users/Lenovo/workspace/dave_workspace/SOLAR_TOWER/Libraries/XMCLib/inc\xmc_ccu4.h **** /**
 833:C:/Users/Lenovo/workspace/dave_workspace/SOLAR_TOWER/Libraries/XMCLib/inc\xmc_ccu4.h ****  * @param module Constant pointer to CCU4 module
 834:C:/Users/Lenovo/workspace/dave_workspace/SOLAR_TOWER/Libraries/XMCLib/inc\xmc_ccu4.h ****  * @return <BR>
 835:C:/Users/Lenovo/workspace/dave_workspace/SOLAR_TOWER/Libraries/XMCLib/inc\xmc_ccu4.h ****  *    None<BR>
 836:C:/Users/Lenovo/workspace/dave_workspace/SOLAR_TOWER/Libraries/XMCLib/inc\xmc_ccu4.h ****  *
 837:C:/Users/Lenovo/workspace/dave_workspace/SOLAR_TOWER/Libraries/XMCLib/inc\xmc_ccu4.h ****  * \par<b>Description:</b><br>
 838:C:/Users/Lenovo/workspace/dave_workspace/SOLAR_TOWER/Libraries/XMCLib/inc\xmc_ccu4.h ****  * Brings the CCU4 module to reset state and enables gating of the clock signal(if applicable depen
 839:C:/Users/Lenovo/workspace/dave_workspace/SOLAR_TOWER/Libraries/XMCLib/inc\xmc_ccu4.h ****  * on the device being selected).<BR>\n
 840:C:/Users/Lenovo/workspace/dave_workspace/SOLAR_TOWER/Libraries/XMCLib/inc\xmc_ccu4.h ****  * Invoke this API when a CCU4 module needs to be disabled completely.
 841:C:/Users/Lenovo/workspace/dave_workspace/SOLAR_TOWER/Libraries/XMCLib/inc\xmc_ccu4.h ****  * Any operation on the CCU4 module will have no effect after this API is called.
 842:C:/Users/Lenovo/workspace/dave_workspace/SOLAR_TOWER/Libraries/XMCLib/inc\xmc_ccu4.h ****  *
 843:C:/Users/Lenovo/workspace/dave_workspace/SOLAR_TOWER/Libraries/XMCLib/inc\xmc_ccu4.h ****  * \par<b>Related APIs:</b><br>
 844:C:/Users/Lenovo/workspace/dave_workspace/SOLAR_TOWER/Libraries/XMCLib/inc\xmc_ccu4.h ****  * XMC_CCU4_EnableModule()<BR> XMC_CCU4_DisableModule().
 845:C:/Users/Lenovo/workspace/dave_workspace/SOLAR_TOWER/Libraries/XMCLib/inc\xmc_ccu4.h ****  */
 846:C:/Users/Lenovo/workspace/dave_workspace/SOLAR_TOWER/Libraries/XMCLib/inc\xmc_ccu4.h **** void XMC_CCU4_DisableModule(XMC_CCU4_MODULE_t *const module);
 847:C:/Users/Lenovo/workspace/dave_workspace/SOLAR_TOWER/Libraries/XMCLib/inc\xmc_ccu4.h **** 
 848:C:/Users/Lenovo/workspace/dave_workspace/SOLAR_TOWER/Libraries/XMCLib/inc\xmc_ccu4.h **** /**
 849:C:/Users/Lenovo/workspace/dave_workspace/SOLAR_TOWER/Libraries/XMCLib/inc\xmc_ccu4.h ****  * @param module Constant pointer to CCU4 module
 850:C:/Users/Lenovo/workspace/dave_workspace/SOLAR_TOWER/Libraries/XMCLib/inc\xmc_ccu4.h ****  * @return <BR>
 851:C:/Users/Lenovo/workspace/dave_workspace/SOLAR_TOWER/Libraries/XMCLib/inc\xmc_ccu4.h ****  *    None<BR>
 852:C:/Users/Lenovo/workspace/dave_workspace/SOLAR_TOWER/Libraries/XMCLib/inc\xmc_ccu4.h ****  *
 853:C:/Users/Lenovo/workspace/dave_workspace/SOLAR_TOWER/Libraries/XMCLib/inc\xmc_ccu4.h ****  * \par<b>Description:</b><br>
 854:C:/Users/Lenovo/workspace/dave_workspace/SOLAR_TOWER/Libraries/XMCLib/inc\xmc_ccu4.h ****  *  Starts the prescaler and restores clocks to the timer slices, by setting GIDLC.SPRB bit.<BR>\n
 855:C:/Users/Lenovo/workspace/dave_workspace/SOLAR_TOWER/Libraries/XMCLib/inc\xmc_ccu4.h ****  *  Once the input to the prescaler has been chosen and the prescaler divider of all slices program
 856:C:/Users/Lenovo/workspace/dave_workspace/SOLAR_TOWER/Libraries/XMCLib/inc\xmc_ccu4.h ****  *  the prescaler itself may be started. Invoke this  API after XMC_CCU4_Init()
 857:C:/Users/Lenovo/workspace/dave_workspace/SOLAR_TOWER/Libraries/XMCLib/inc\xmc_ccu4.h ****  *  (Mandatory to fully initialize the module).Directly accessed register is GIDLC.
 858:C:/Users/Lenovo/workspace/dave_workspace/SOLAR_TOWER/Libraries/XMCLib/inc\xmc_ccu4.h ****  *
 859:C:/Users/Lenovo/workspace/dave_workspace/SOLAR_TOWER/Libraries/XMCLib/inc\xmc_ccu4.h ****  * \par<b>Related APIs:</b><br>
 860:C:/Users/Lenovo/workspace/dave_workspace/SOLAR_TOWER/Libraries/XMCLib/inc\xmc_ccu4.h ****  * XMC_CCU4_Init()<BR> XMC_CCU4_EnableClock()<BR> XMC_CCU4_DisableClock()<BR> XMC_CCU4_StartPrescal
 861:C:/Users/Lenovo/workspace/dave_workspace/SOLAR_TOWER/Libraries/XMCLib/inc\xmc_ccu4.h ****  * XMC_CCU4_StopPrescaler().
 862:C:/Users/Lenovo/workspace/dave_workspace/SOLAR_TOWER/Libraries/XMCLib/inc\xmc_ccu4.h ****  */
 863:C:/Users/Lenovo/workspace/dave_workspace/SOLAR_TOWER/Libraries/XMCLib/inc\xmc_ccu4.h **** __STATIC_INLINE void XMC_CCU4_StartPrescaler(XMC_CCU4_MODULE_t *const module)
 864:C:/Users/Lenovo/workspace/dave_workspace/SOLAR_TOWER/Libraries/XMCLib/inc\xmc_ccu4.h **** {
 217              	 .loc 2 864 0
 218              	 .cfi_startproc
 219 0000 80B5     	 push {r7,lr}
 220              	.LCFI6:
 221              	 .cfi_def_cfa_offset 8
 222              	 .cfi_offset 7,-8
 223              	 .cfi_offset 14,-4
 224 0002 82B0     	 sub sp,sp,#8
 225              	.LCFI7:
 226              	 .cfi_def_cfa_offset 16
 227 0004 00AF     	 add r7,sp,#0
 228              	.LCFI8:
 229              	 .cfi_def_cfa_register 7
 230 0006 7860     	 str r0,[r7,#4]
 865:C:/Users/Lenovo/workspace/dave_workspace/SOLAR_TOWER/Libraries/XMCLib/inc\xmc_ccu4.h ****   XMC_ASSERT("XMC_CCU4_StartPrescaler:Invalid Module Pointer", XMC_CCU4_IsValidModule(module));
 866:C:/Users/Lenovo/workspace/dave_workspace/SOLAR_TOWER/Libraries/XMCLib/inc\xmc_ccu4.h ****   module->GIDLC |= (uint32_t) CCU4_GIDLC_SPRB_Msk;
 231              	 .loc 2 866 0
 232 0008 7B68     	 ldr r3,[r7,#4]
 233 000a DB68     	 ldr r3,[r3,#12]
 234 000c 8022     	 mov r2,#128
 235 000e 5200     	 lsl r2,r2,#1
 236 0010 1A43     	 orr r2,r3
 237 0012 7B68     	 ldr r3,[r7,#4]
 238 0014 DA60     	 str r2,[r3,#12]
 867:C:/Users/Lenovo/workspace/dave_workspace/SOLAR_TOWER/Libraries/XMCLib/inc\xmc_ccu4.h **** }
 239              	 .loc 2 867 0
 240 0016 BD46     	 mov sp,r7
 241 0018 02B0     	 add sp,sp,#8
 242              	 
 243 001a 80BD     	 pop {r7,pc}
 244              	 .cfi_endproc
 245              	.LFE43:
 247              	 .section .text.XMC_CCU4_EnableClock,"ax",%progbits
 248              	 .align 2
 249              	 .code 16
 250              	 .thumb_func
 252              	XMC_CCU4_EnableClock:
 253              	.LFB47:
 868:C:/Users/Lenovo/workspace/dave_workspace/SOLAR_TOWER/Libraries/XMCLib/inc\xmc_ccu4.h **** 
 869:C:/Users/Lenovo/workspace/dave_workspace/SOLAR_TOWER/Libraries/XMCLib/inc\xmc_ccu4.h **** /**
 870:C:/Users/Lenovo/workspace/dave_workspace/SOLAR_TOWER/Libraries/XMCLib/inc\xmc_ccu4.h ****  * @param module Constant pointer to CCU4 module
 871:C:/Users/Lenovo/workspace/dave_workspace/SOLAR_TOWER/Libraries/XMCLib/inc\xmc_ccu4.h ****  * @return <BR>
 872:C:/Users/Lenovo/workspace/dave_workspace/SOLAR_TOWER/Libraries/XMCLib/inc\xmc_ccu4.h ****  *    None<BR>
 873:C:/Users/Lenovo/workspace/dave_workspace/SOLAR_TOWER/Libraries/XMCLib/inc\xmc_ccu4.h ****  *
 874:C:/Users/Lenovo/workspace/dave_workspace/SOLAR_TOWER/Libraries/XMCLib/inc\xmc_ccu4.h ****  * \par<b>Description:</b><br>
 875:C:/Users/Lenovo/workspace/dave_workspace/SOLAR_TOWER/Libraries/XMCLib/inc\xmc_ccu4.h ****  * Stops the prescaler and blocks clocks to the timer slices, by setting GIDLS.CPRB bit.<BR>\n
 876:C:/Users/Lenovo/workspace/dave_workspace/SOLAR_TOWER/Libraries/XMCLib/inc\xmc_ccu4.h ****  * Opposite of the StartPrescaler routine.
 877:C:/Users/Lenovo/workspace/dave_workspace/SOLAR_TOWER/Libraries/XMCLib/inc\xmc_ccu4.h ****  * Clears the run bit of the prescaler. Ensures that the module clock is not supplied to
 878:C:/Users/Lenovo/workspace/dave_workspace/SOLAR_TOWER/Libraries/XMCLib/inc\xmc_ccu4.h ****  * the slices of the module.Registers directly accessed is GIDLS.
 879:C:/Users/Lenovo/workspace/dave_workspace/SOLAR_TOWER/Libraries/XMCLib/inc\xmc_ccu4.h ****  *
 880:C:/Users/Lenovo/workspace/dave_workspace/SOLAR_TOWER/Libraries/XMCLib/inc\xmc_ccu4.h ****  * \par<b>Related APIs:</b><br>
 881:C:/Users/Lenovo/workspace/dave_workspace/SOLAR_TOWER/Libraries/XMCLib/inc\xmc_ccu4.h ****  * XMC_CCU4_EnableClock()<BR> XMC_CCU4_DisableClock()<BR> XMC_CCU4_StartPrescaler()<BR> XMC_CCU4_St
 882:C:/Users/Lenovo/workspace/dave_workspace/SOLAR_TOWER/Libraries/XMCLib/inc\xmc_ccu4.h ****  */
 883:C:/Users/Lenovo/workspace/dave_workspace/SOLAR_TOWER/Libraries/XMCLib/inc\xmc_ccu4.h **** __STATIC_INLINE void XMC_CCU4_StopPrescaler(XMC_CCU4_MODULE_t *const module)
 884:C:/Users/Lenovo/workspace/dave_workspace/SOLAR_TOWER/Libraries/XMCLib/inc\xmc_ccu4.h **** {
 885:C:/Users/Lenovo/workspace/dave_workspace/SOLAR_TOWER/Libraries/XMCLib/inc\xmc_ccu4.h ****   XMC_ASSERT("XMC_CCU4_StopPrescaler:Invalid Module Pointer", XMC_CCU4_IsValidModule(module));
 886:C:/Users/Lenovo/workspace/dave_workspace/SOLAR_TOWER/Libraries/XMCLib/inc\xmc_ccu4.h ****   module->GIDLS |= (uint32_t) CCU4_GIDLS_CPRB_Msk;
 887:C:/Users/Lenovo/workspace/dave_workspace/SOLAR_TOWER/Libraries/XMCLib/inc\xmc_ccu4.h **** }
 888:C:/Users/Lenovo/workspace/dave_workspace/SOLAR_TOWER/Libraries/XMCLib/inc\xmc_ccu4.h **** 
 889:C:/Users/Lenovo/workspace/dave_workspace/SOLAR_TOWER/Libraries/XMCLib/inc\xmc_ccu4.h **** /**
 890:C:/Users/Lenovo/workspace/dave_workspace/SOLAR_TOWER/Libraries/XMCLib/inc\xmc_ccu4.h ****  * @param module Constant pointer to CCU4 module
 891:C:/Users/Lenovo/workspace/dave_workspace/SOLAR_TOWER/Libraries/XMCLib/inc\xmc_ccu4.h ****  * @return <BR>
 892:C:/Users/Lenovo/workspace/dave_workspace/SOLAR_TOWER/Libraries/XMCLib/inc\xmc_ccu4.h ****  *    None<BR>
 893:C:/Users/Lenovo/workspace/dave_workspace/SOLAR_TOWER/Libraries/XMCLib/inc\xmc_ccu4.h ****  *
 894:C:/Users/Lenovo/workspace/dave_workspace/SOLAR_TOWER/Libraries/XMCLib/inc\xmc_ccu4.h ****  * \par<b>Description:</b><br>
 895:C:/Users/Lenovo/workspace/dave_workspace/SOLAR_TOWER/Libraries/XMCLib/inc\xmc_ccu4.h ****  * Returns the state of the prescaler, by reading GSTAT.PRB bit.<BR>\n
 896:C:/Users/Lenovo/workspace/dave_workspace/SOLAR_TOWER/Libraries/XMCLib/inc\xmc_ccu4.h ****  * This will return true if the prescaler is running. If clock is being supplied to the slices of t
 897:C:/Users/Lenovo/workspace/dave_workspace/SOLAR_TOWER/Libraries/XMCLib/inc\xmc_ccu4.h ****  * module then returns as true.
 898:C:/Users/Lenovo/workspace/dave_workspace/SOLAR_TOWER/Libraries/XMCLib/inc\xmc_ccu4.h ****  *
 899:C:/Users/Lenovo/workspace/dave_workspace/SOLAR_TOWER/Libraries/XMCLib/inc\xmc_ccu4.h ****  * \par<b>Related APIs:</b><br>
 900:C:/Users/Lenovo/workspace/dave_workspace/SOLAR_TOWER/Libraries/XMCLib/inc\xmc_ccu4.h ****  * XMC_CCU4_StartPrescaler()<BR> XMC_CCU4_StopPrescaler()<BR> XMC_CCU4_EnableClock()<BR> XMC_CCU4_D
 901:C:/Users/Lenovo/workspace/dave_workspace/SOLAR_TOWER/Libraries/XMCLib/inc\xmc_ccu4.h ****  */
 902:C:/Users/Lenovo/workspace/dave_workspace/SOLAR_TOWER/Libraries/XMCLib/inc\xmc_ccu4.h **** __STATIC_INLINE bool XMC_CCU4_IsPrescalerRunning(XMC_CCU4_MODULE_t *const module)
 903:C:/Users/Lenovo/workspace/dave_workspace/SOLAR_TOWER/Libraries/XMCLib/inc\xmc_ccu4.h **** {
 904:C:/Users/Lenovo/workspace/dave_workspace/SOLAR_TOWER/Libraries/XMCLib/inc\xmc_ccu4.h ****   XMC_ASSERT("XMC_CCU4_IsPrescalerRunning:Invalid Module Pointer", XMC_CCU4_IsValidModule(module));
 905:C:/Users/Lenovo/workspace/dave_workspace/SOLAR_TOWER/Libraries/XMCLib/inc\xmc_ccu4.h ****   return((bool)((module->GSTAT & (uint32_t) CCU4_GSTAT_PRB_Msk) == (uint32_t)CCU4_GSTAT_PRB_Msk));
 906:C:/Users/Lenovo/workspace/dave_workspace/SOLAR_TOWER/Libraries/XMCLib/inc\xmc_ccu4.h **** }
 907:C:/Users/Lenovo/workspace/dave_workspace/SOLAR_TOWER/Libraries/XMCLib/inc\xmc_ccu4.h **** 
 908:C:/Users/Lenovo/workspace/dave_workspace/SOLAR_TOWER/Libraries/XMCLib/inc\xmc_ccu4.h **** /**
 909:C:/Users/Lenovo/workspace/dave_workspace/SOLAR_TOWER/Libraries/XMCLib/inc\xmc_ccu4.h ****  * @param module Constant pointer to CCU4 module
 910:C:/Users/Lenovo/workspace/dave_workspace/SOLAR_TOWER/Libraries/XMCLib/inc\xmc_ccu4.h ****  * @param clock_mask Slices whose clocks are to be enabled simultaneously.
 911:C:/Users/Lenovo/workspace/dave_workspace/SOLAR_TOWER/Libraries/XMCLib/inc\xmc_ccu4.h ****  *                   Bit location 0/1/2/3 represents slice-0/1/2/3 respectively.
 912:C:/Users/Lenovo/workspace/dave_workspace/SOLAR_TOWER/Libraries/XMCLib/inc\xmc_ccu4.h ****  *                   Range: [0x1 to 0xF]
 913:C:/Users/Lenovo/workspace/dave_workspace/SOLAR_TOWER/Libraries/XMCLib/inc\xmc_ccu4.h ****  * @return <BR>
 914:C:/Users/Lenovo/workspace/dave_workspace/SOLAR_TOWER/Libraries/XMCLib/inc\xmc_ccu4.h ****  *    None<BR>
 915:C:/Users/Lenovo/workspace/dave_workspace/SOLAR_TOWER/Libraries/XMCLib/inc\xmc_ccu4.h ****  *
 916:C:/Users/Lenovo/workspace/dave_workspace/SOLAR_TOWER/Libraries/XMCLib/inc\xmc_ccu4.h ****  * \par<b>Description:</b><br>
 917:C:/Users/Lenovo/workspace/dave_workspace/SOLAR_TOWER/Libraries/XMCLib/inc\xmc_ccu4.h ****  * Enables clocks of multiple slices at a time, by configuring GIDLC.CS0I, GIDLC.CS1I, GIDLC.CS2I, 
 918:C:/Users/Lenovo/workspace/dave_workspace/SOLAR_TOWER/Libraries/XMCLib/inc\xmc_ccu4.h ****  * GIDLC.CS3I bits.\n\n
 919:C:/Users/Lenovo/workspace/dave_workspace/SOLAR_TOWER/Libraries/XMCLib/inc\xmc_ccu4.h ****  * Takes an input clock_mask, which determines the slices that would receive the clock. Bring them 
 920:C:/Users/Lenovo/workspace/dave_workspace/SOLAR_TOWER/Libraries/XMCLib/inc\xmc_ccu4.h ****  * of the idle state simultaneously.
 921:C:/Users/Lenovo/workspace/dave_workspace/SOLAR_TOWER/Libraries/XMCLib/inc\xmc_ccu4.h ****  *
 922:C:/Users/Lenovo/workspace/dave_workspace/SOLAR_TOWER/Libraries/XMCLib/inc\xmc_ccu4.h ****  * \par<b>Related APIs:</b><br>
 923:C:/Users/Lenovo/workspace/dave_workspace/SOLAR_TOWER/Libraries/XMCLib/inc\xmc_ccu4.h ****  * XMC_CCU4_EnableClock()<BR> XMC_CCU4_DisableClock().
 924:C:/Users/Lenovo/workspace/dave_workspace/SOLAR_TOWER/Libraries/XMCLib/inc\xmc_ccu4.h ****  */
 925:C:/Users/Lenovo/workspace/dave_workspace/SOLAR_TOWER/Libraries/XMCLib/inc\xmc_ccu4.h **** __STATIC_INLINE void XMC_CCU4_EnableMultipleClocks(XMC_CCU4_MODULE_t *const module, const uint8_t c
 926:C:/Users/Lenovo/workspace/dave_workspace/SOLAR_TOWER/Libraries/XMCLib/inc\xmc_ccu4.h **** {
 927:C:/Users/Lenovo/workspace/dave_workspace/SOLAR_TOWER/Libraries/XMCLib/inc\xmc_ccu4.h ****   XMC_ASSERT("XMC_CCU4_EnableMultipleClocks:Invalid Module Pointer", XMC_CCU4_IsValidModule(module)
 928:C:/Users/Lenovo/workspace/dave_workspace/SOLAR_TOWER/Libraries/XMCLib/inc\xmc_ccu4.h ****   XMC_ASSERT("XMC_CCU4_EnableMultipleClocks:Wrong clock mask", (clock_mask < 16U));
 929:C:/Users/Lenovo/workspace/dave_workspace/SOLAR_TOWER/Libraries/XMCLib/inc\xmc_ccu4.h ****   
 930:C:/Users/Lenovo/workspace/dave_workspace/SOLAR_TOWER/Libraries/XMCLib/inc\xmc_ccu4.h ****   module->GIDLC |= (uint32_t) clock_mask;
 931:C:/Users/Lenovo/workspace/dave_workspace/SOLAR_TOWER/Libraries/XMCLib/inc\xmc_ccu4.h **** }
 932:C:/Users/Lenovo/workspace/dave_workspace/SOLAR_TOWER/Libraries/XMCLib/inc\xmc_ccu4.h **** 
 933:C:/Users/Lenovo/workspace/dave_workspace/SOLAR_TOWER/Libraries/XMCLib/inc\xmc_ccu4.h **** /**
 934:C:/Users/Lenovo/workspace/dave_workspace/SOLAR_TOWER/Libraries/XMCLib/inc\xmc_ccu4.h ****  * @param module Constant pointer to CCU4 module
 935:C:/Users/Lenovo/workspace/dave_workspace/SOLAR_TOWER/Libraries/XMCLib/inc\xmc_ccu4.h ****  * @param slice_number Slice for which the clock should be Enabled.
 936:C:/Users/Lenovo/workspace/dave_workspace/SOLAR_TOWER/Libraries/XMCLib/inc\xmc_ccu4.h ****  *                   Range: [0x0 to 0x3]
 937:C:/Users/Lenovo/workspace/dave_workspace/SOLAR_TOWER/Libraries/XMCLib/inc\xmc_ccu4.h ****  * @return <BR>
 938:C:/Users/Lenovo/workspace/dave_workspace/SOLAR_TOWER/Libraries/XMCLib/inc\xmc_ccu4.h ****  *    None<BR>
 939:C:/Users/Lenovo/workspace/dave_workspace/SOLAR_TOWER/Libraries/XMCLib/inc\xmc_ccu4.h ****  *
 940:C:/Users/Lenovo/workspace/dave_workspace/SOLAR_TOWER/Libraries/XMCLib/inc\xmc_ccu4.h ****  * \par<b>Description:</b><br>
 941:C:/Users/Lenovo/workspace/dave_workspace/SOLAR_TOWER/Libraries/XMCLib/inc\xmc_ccu4.h ****  *  Enables the slice timer clock, by configuring GIDLC.CS0I, GIDLC.CS1I, GIDLC.CS2I, 
 942:C:/Users/Lenovo/workspace/dave_workspace/SOLAR_TOWER/Libraries/XMCLib/inc\xmc_ccu4.h ****  *  GIDLC.CS3I bits according to the selected \a slice_number.\n\n
 943:C:/Users/Lenovo/workspace/dave_workspace/SOLAR_TOWER/Libraries/XMCLib/inc\xmc_ccu4.h ****  *  It is possible to enable/disable clock at slice level. This uses the \b slice_number to indicat
 944:C:/Users/Lenovo/workspace/dave_workspace/SOLAR_TOWER/Libraries/XMCLib/inc\xmc_ccu4.h ****  *  slice whose clock needs to be enabled.
 945:C:/Users/Lenovo/workspace/dave_workspace/SOLAR_TOWER/Libraries/XMCLib/inc\xmc_ccu4.h ****  *
 946:C:/Users/Lenovo/workspace/dave_workspace/SOLAR_TOWER/Libraries/XMCLib/inc\xmc_ccu4.h ****  * \par<b>Related APIs:</b><br>
 947:C:/Users/Lenovo/workspace/dave_workspace/SOLAR_TOWER/Libraries/XMCLib/inc\xmc_ccu4.h ****  * XMC_CCU4_DisableClock()<BR> XMC_CCU4_EnableMultipleClocks()<BR> XMC_CCU4_StartPrescaler()<BR> XM
 948:C:/Users/Lenovo/workspace/dave_workspace/SOLAR_TOWER/Libraries/XMCLib/inc\xmc_ccu4.h ****  */
 949:C:/Users/Lenovo/workspace/dave_workspace/SOLAR_TOWER/Libraries/XMCLib/inc\xmc_ccu4.h **** __STATIC_INLINE void XMC_CCU4_EnableClock(XMC_CCU4_MODULE_t *const module, const uint8_t slice_numb
 950:C:/Users/Lenovo/workspace/dave_workspace/SOLAR_TOWER/Libraries/XMCLib/inc\xmc_ccu4.h **** {
 254              	 .loc 2 950 0
 255              	 .cfi_startproc
 256 0000 80B5     	 push {r7,lr}
 257              	.LCFI9:
 258              	 .cfi_def_cfa_offset 8
 259              	 .cfi_offset 7,-8
 260              	 .cfi_offset 14,-4
 261 0002 82B0     	 sub sp,sp,#8
 262              	.LCFI10:
 263              	 .cfi_def_cfa_offset 16
 264 0004 00AF     	 add r7,sp,#0
 265              	.LCFI11:
 266              	 .cfi_def_cfa_register 7
 267 0006 7860     	 str r0,[r7,#4]
 268 0008 0A1C     	 mov r2,r1
 269 000a FB1C     	 add r3,r7,#3
 270 000c 1A70     	 strb r2,[r3]
 951:C:/Users/Lenovo/workspace/dave_workspace/SOLAR_TOWER/Libraries/XMCLib/inc\xmc_ccu4.h ****   XMC_ASSERT("XMC_CCU4_EnableClock:Invalid Module Pointer", XMC_CCU4_IsValidModule(module));
 952:C:/Users/Lenovo/workspace/dave_workspace/SOLAR_TOWER/Libraries/XMCLib/inc\xmc_ccu4.h ****   XMC_ASSERT("XMC_CCU4_EnableClock:Invalid Slice Number", (slice_number < 4U));
 953:C:/Users/Lenovo/workspace/dave_workspace/SOLAR_TOWER/Libraries/XMCLib/inc\xmc_ccu4.h **** 
 954:C:/Users/Lenovo/workspace/dave_workspace/SOLAR_TOWER/Libraries/XMCLib/inc\xmc_ccu4.h ****   module->GIDLC |= ((uint32_t) 1) << slice_number;
 271              	 .loc 2 954 0
 272 000e 7B68     	 ldr r3,[r7,#4]
 273 0010 DA68     	 ldr r2,[r3,#12]
 274 0012 FB1C     	 add r3,r7,#3
 275 0014 1B78     	 ldrb r3,[r3]
 276 0016 0121     	 mov r1,#1
 277 0018 9940     	 lsl r1,r1,r3
 278 001a 0B1C     	 mov r3,r1
 279 001c 1A43     	 orr r2,r3
 280 001e 7B68     	 ldr r3,[r7,#4]
 281 0020 DA60     	 str r2,[r3,#12]
 955:C:/Users/Lenovo/workspace/dave_workspace/SOLAR_TOWER/Libraries/XMCLib/inc\xmc_ccu4.h **** }
 282              	 .loc 2 955 0
 283 0022 BD46     	 mov sp,r7
 284 0024 02B0     	 add sp,sp,#8
 285              	 
 286 0026 80BD     	 pop {r7,pc}
 287              	 .cfi_endproc
 288              	.LFE47:
 290              	 .section .text.XMC_CCU4_SLICE_StartTimer,"ax",%progbits
 291              	 .align 2
 292              	 .code 16
 293              	 .thumb_func
 295              	XMC_CCU4_SLICE_StartTimer:
 296              	.LFB54:
 956:C:/Users/Lenovo/workspace/dave_workspace/SOLAR_TOWER/Libraries/XMCLib/inc\xmc_ccu4.h **** 
 957:C:/Users/Lenovo/workspace/dave_workspace/SOLAR_TOWER/Libraries/XMCLib/inc\xmc_ccu4.h **** /**
 958:C:/Users/Lenovo/workspace/dave_workspace/SOLAR_TOWER/Libraries/XMCLib/inc\xmc_ccu4.h ****  * @param module Constant pointer to CCU4 module
 959:C:/Users/Lenovo/workspace/dave_workspace/SOLAR_TOWER/Libraries/XMCLib/inc\xmc_ccu4.h ****  * @param slice_number Slice for which the clock should be disabled.
 960:C:/Users/Lenovo/workspace/dave_workspace/SOLAR_TOWER/Libraries/XMCLib/inc\xmc_ccu4.h ****  *                   Range: [0x0 to 0x3]
 961:C:/Users/Lenovo/workspace/dave_workspace/SOLAR_TOWER/Libraries/XMCLib/inc\xmc_ccu4.h ****  * @return <BR>
 962:C:/Users/Lenovo/workspace/dave_workspace/SOLAR_TOWER/Libraries/XMCLib/inc\xmc_ccu4.h ****  *    None<BR>
 963:C:/Users/Lenovo/workspace/dave_workspace/SOLAR_TOWER/Libraries/XMCLib/inc\xmc_ccu4.h ****  * 
 964:C:/Users/Lenovo/workspace/dave_workspace/SOLAR_TOWER/Libraries/XMCLib/inc\xmc_ccu4.h ****  * \par<b>Description:</b><br>
 965:C:/Users/Lenovo/workspace/dave_workspace/SOLAR_TOWER/Libraries/XMCLib/inc\xmc_ccu4.h ****  * Disables the slice timer clock, by configuring GIDLS.SS0I, GIDLS.SSS1I, GIDLS.SSS2I, 
 966:C:/Users/Lenovo/workspace/dave_workspace/SOLAR_TOWER/Libraries/XMCLib/inc\xmc_ccu4.h ****  * GIDLS.SSS3I bits according to the selected \a slice_number .\n\n
