   1              	 .cpu cortex-m0
   2              	 .fpu softvfp
   3              	 .eabi_attribute 20,1
   4              	 .eabi_attribute 21,1
   5              	 .eabi_attribute 23,3
   6              	 .eabi_attribute 24,1
   7              	 .eabi_attribute 25,1
   8              	 .eabi_attribute 26,1
   9              	 .eabi_attribute 30,6
  10              	 .eabi_attribute 34,0
  11              	 .eabi_attribute 18,4
  12              	 .code 16
  13              	 .file "rs232_operation.c"
  14              	 .text
  15              	.Ltext0:
  16              	 .cfi_sections .debug_frame
  17              	 .section .text.__NVIC_EnableIRQ,"ax",%progbits
  18              	 .align 2
  19              	 .code 16
  20              	 .thumb_func
  22              	__NVIC_EnableIRQ:
  23              	.LFB23:
  24              	 .file 1 "C:/Users/Lenovo/workspace/dave_workspace/SOLAR_TOWER/Libraries/CMSIS/Include/core_cm0.h"
   1:C:/Users/Lenovo/workspace/dave_workspace/SOLAR_TOWER/Libraries/CMSIS/Include\core_cm0.h **** /**************************************************************************//**
   2:C:/Users/Lenovo/workspace/dave_workspace/SOLAR_TOWER/Libraries/CMSIS/Include\core_cm0.h ****  * @file     core_cm0.h
   3:C:/Users/Lenovo/workspace/dave_workspace/SOLAR_TOWER/Libraries/CMSIS/Include\core_cm0.h ****  * @brief    CMSIS Cortex-M0 Core Peripheral Access Layer Header File
   4:C:/Users/Lenovo/workspace/dave_workspace/SOLAR_TOWER/Libraries/CMSIS/Include\core_cm0.h ****  * @version  V5.0.2
   5:C:/Users/Lenovo/workspace/dave_workspace/SOLAR_TOWER/Libraries/CMSIS/Include\core_cm0.h ****  * @date     19. April 2017
   6:C:/Users/Lenovo/workspace/dave_workspace/SOLAR_TOWER/Libraries/CMSIS/Include\core_cm0.h ****  ******************************************************************************/
   7:C:/Users/Lenovo/workspace/dave_workspace/SOLAR_TOWER/Libraries/CMSIS/Include\core_cm0.h **** /*
   8:C:/Users/Lenovo/workspace/dave_workspace/SOLAR_TOWER/Libraries/CMSIS/Include\core_cm0.h ****  * Copyright (c) 2009-2017 ARM Limited. All rights reserved.
   9:C:/Users/Lenovo/workspace/dave_workspace/SOLAR_TOWER/Libraries/CMSIS/Include\core_cm0.h ****  *
  10:C:/Users/Lenovo/workspace/dave_workspace/SOLAR_TOWER/Libraries/CMSIS/Include\core_cm0.h ****  * SPDX-License-Identifier: Apache-2.0
  11:C:/Users/Lenovo/workspace/dave_workspace/SOLAR_TOWER/Libraries/CMSIS/Include\core_cm0.h ****  *
  12:C:/Users/Lenovo/workspace/dave_workspace/SOLAR_TOWER/Libraries/CMSIS/Include\core_cm0.h ****  * Licensed under the Apache License, Version 2.0 (the License); you may
  13:C:/Users/Lenovo/workspace/dave_workspace/SOLAR_TOWER/Libraries/CMSIS/Include\core_cm0.h ****  * not use this file except in compliance with the License.
  14:C:/Users/Lenovo/workspace/dave_workspace/SOLAR_TOWER/Libraries/CMSIS/Include\core_cm0.h ****  * You may obtain a copy of the License at
  15:C:/Users/Lenovo/workspace/dave_workspace/SOLAR_TOWER/Libraries/CMSIS/Include\core_cm0.h ****  *
  16:C:/Users/Lenovo/workspace/dave_workspace/SOLAR_TOWER/Libraries/CMSIS/Include\core_cm0.h ****  * www.apache.org/licenses/LICENSE-2.0
  17:C:/Users/Lenovo/workspace/dave_workspace/SOLAR_TOWER/Libraries/CMSIS/Include\core_cm0.h ****  *
  18:C:/Users/Lenovo/workspace/dave_workspace/SOLAR_TOWER/Libraries/CMSIS/Include\core_cm0.h ****  * Unless required by applicable law or agreed to in writing, software
  19:C:/Users/Lenovo/workspace/dave_workspace/SOLAR_TOWER/Libraries/CMSIS/Include\core_cm0.h ****  * distributed under the License is distributed on an AS IS BASIS, WITHOUT
  20:C:/Users/Lenovo/workspace/dave_workspace/SOLAR_TOWER/Libraries/CMSIS/Include\core_cm0.h ****  * WARRANTIES OR CONDITIONS OF ANY KIND, either express or implied.
  21:C:/Users/Lenovo/workspace/dave_workspace/SOLAR_TOWER/Libraries/CMSIS/Include\core_cm0.h ****  * See the License for the specific language governing permissions and
  22:C:/Users/Lenovo/workspace/dave_workspace/SOLAR_TOWER/Libraries/CMSIS/Include\core_cm0.h ****  * limitations under the License.
  23:C:/Users/Lenovo/workspace/dave_workspace/SOLAR_TOWER/Libraries/CMSIS/Include\core_cm0.h ****  */
  24:C:/Users/Lenovo/workspace/dave_workspace/SOLAR_TOWER/Libraries/CMSIS/Include\core_cm0.h **** 
  25:C:/Users/Lenovo/workspace/dave_workspace/SOLAR_TOWER/Libraries/CMSIS/Include\core_cm0.h **** #if   defined ( __ICCARM__ )
  26:C:/Users/Lenovo/workspace/dave_workspace/SOLAR_TOWER/Libraries/CMSIS/Include\core_cm0.h ****   #pragma system_include         /* treat file as system include file for MISRA check */
  27:C:/Users/Lenovo/workspace/dave_workspace/SOLAR_TOWER/Libraries/CMSIS/Include\core_cm0.h **** #elif defined (__clang__)
  28:C:/Users/Lenovo/workspace/dave_workspace/SOLAR_TOWER/Libraries/CMSIS/Include\core_cm0.h ****   #pragma clang system_header   /* treat file as system include file */
  29:C:/Users/Lenovo/workspace/dave_workspace/SOLAR_TOWER/Libraries/CMSIS/Include\core_cm0.h **** #endif
  30:C:/Users/Lenovo/workspace/dave_workspace/SOLAR_TOWER/Libraries/CMSIS/Include\core_cm0.h **** 
  31:C:/Users/Lenovo/workspace/dave_workspace/SOLAR_TOWER/Libraries/CMSIS/Include\core_cm0.h **** #ifndef __CORE_CM0_H_GENERIC
  32:C:/Users/Lenovo/workspace/dave_workspace/SOLAR_TOWER/Libraries/CMSIS/Include\core_cm0.h **** #define __CORE_CM0_H_GENERIC
  33:C:/Users/Lenovo/workspace/dave_workspace/SOLAR_TOWER/Libraries/CMSIS/Include\core_cm0.h **** 
  34:C:/Users/Lenovo/workspace/dave_workspace/SOLAR_TOWER/Libraries/CMSIS/Include\core_cm0.h **** #include <stdint.h>
  35:C:/Users/Lenovo/workspace/dave_workspace/SOLAR_TOWER/Libraries/CMSIS/Include\core_cm0.h **** 
  36:C:/Users/Lenovo/workspace/dave_workspace/SOLAR_TOWER/Libraries/CMSIS/Include\core_cm0.h **** #ifdef __cplusplus
  37:C:/Users/Lenovo/workspace/dave_workspace/SOLAR_TOWER/Libraries/CMSIS/Include\core_cm0.h ****  extern "C" {
  38:C:/Users/Lenovo/workspace/dave_workspace/SOLAR_TOWER/Libraries/CMSIS/Include\core_cm0.h **** #endif
  39:C:/Users/Lenovo/workspace/dave_workspace/SOLAR_TOWER/Libraries/CMSIS/Include\core_cm0.h **** 
  40:C:/Users/Lenovo/workspace/dave_workspace/SOLAR_TOWER/Libraries/CMSIS/Include\core_cm0.h **** /**
  41:C:/Users/Lenovo/workspace/dave_workspace/SOLAR_TOWER/Libraries/CMSIS/Include\core_cm0.h ****   \page CMSIS_MISRA_Exceptions  MISRA-C:2004 Compliance Exceptions
  42:C:/Users/Lenovo/workspace/dave_workspace/SOLAR_TOWER/Libraries/CMSIS/Include\core_cm0.h ****   CMSIS violates the following MISRA-C:2004 rules:
  43:C:/Users/Lenovo/workspace/dave_workspace/SOLAR_TOWER/Libraries/CMSIS/Include\core_cm0.h **** 
  44:C:/Users/Lenovo/workspace/dave_workspace/SOLAR_TOWER/Libraries/CMSIS/Include\core_cm0.h ****    \li Required Rule 8.5, object/function definition in header file.<br>
  45:C:/Users/Lenovo/workspace/dave_workspace/SOLAR_TOWER/Libraries/CMSIS/Include\core_cm0.h ****      Function definitions in header files are used to allow 'inlining'.
  46:C:/Users/Lenovo/workspace/dave_workspace/SOLAR_TOWER/Libraries/CMSIS/Include\core_cm0.h **** 
  47:C:/Users/Lenovo/workspace/dave_workspace/SOLAR_TOWER/Libraries/CMSIS/Include\core_cm0.h ****    \li Required Rule 18.4, declaration of union type or object of union type: '{...}'.<br>
  48:C:/Users/Lenovo/workspace/dave_workspace/SOLAR_TOWER/Libraries/CMSIS/Include\core_cm0.h ****      Unions are used for effective representation of core registers.
  49:C:/Users/Lenovo/workspace/dave_workspace/SOLAR_TOWER/Libraries/CMSIS/Include\core_cm0.h **** 
  50:C:/Users/Lenovo/workspace/dave_workspace/SOLAR_TOWER/Libraries/CMSIS/Include\core_cm0.h ****    \li Advisory Rule 19.7, Function-like macro defined.<br>
  51:C:/Users/Lenovo/workspace/dave_workspace/SOLAR_TOWER/Libraries/CMSIS/Include\core_cm0.h ****      Function-like macros are used to allow more efficient code.
  52:C:/Users/Lenovo/workspace/dave_workspace/SOLAR_TOWER/Libraries/CMSIS/Include\core_cm0.h ****  */
  53:C:/Users/Lenovo/workspace/dave_workspace/SOLAR_TOWER/Libraries/CMSIS/Include\core_cm0.h **** 
  54:C:/Users/Lenovo/workspace/dave_workspace/SOLAR_TOWER/Libraries/CMSIS/Include\core_cm0.h **** 
  55:C:/Users/Lenovo/workspace/dave_workspace/SOLAR_TOWER/Libraries/CMSIS/Include\core_cm0.h **** /*******************************************************************************
  56:C:/Users/Lenovo/workspace/dave_workspace/SOLAR_TOWER/Libraries/CMSIS/Include\core_cm0.h ****  *                 CMSIS definitions
  57:C:/Users/Lenovo/workspace/dave_workspace/SOLAR_TOWER/Libraries/CMSIS/Include\core_cm0.h ****  ******************************************************************************/
  58:C:/Users/Lenovo/workspace/dave_workspace/SOLAR_TOWER/Libraries/CMSIS/Include\core_cm0.h **** /**
  59:C:/Users/Lenovo/workspace/dave_workspace/SOLAR_TOWER/Libraries/CMSIS/Include\core_cm0.h ****   \ingroup Cortex_M0
  60:C:/Users/Lenovo/workspace/dave_workspace/SOLAR_TOWER/Libraries/CMSIS/Include\core_cm0.h ****   @{
  61:C:/Users/Lenovo/workspace/dave_workspace/SOLAR_TOWER/Libraries/CMSIS/Include\core_cm0.h ****  */
  62:C:/Users/Lenovo/workspace/dave_workspace/SOLAR_TOWER/Libraries/CMSIS/Include\core_cm0.h **** 
  63:C:/Users/Lenovo/workspace/dave_workspace/SOLAR_TOWER/Libraries/CMSIS/Include\core_cm0.h **** #include "cmsis_version.h"
  64:C:/Users/Lenovo/workspace/dave_workspace/SOLAR_TOWER/Libraries/CMSIS/Include\core_cm0.h ****  
  65:C:/Users/Lenovo/workspace/dave_workspace/SOLAR_TOWER/Libraries/CMSIS/Include\core_cm0.h **** /*  CMSIS CM0 definitions */
  66:C:/Users/Lenovo/workspace/dave_workspace/SOLAR_TOWER/Libraries/CMSIS/Include\core_cm0.h **** #define __CM0_CMSIS_VERSION_MAIN  (__CM_CMSIS_VERSION_MAIN)              /*!< \deprecated [31:16] C
  67:C:/Users/Lenovo/workspace/dave_workspace/SOLAR_TOWER/Libraries/CMSIS/Include\core_cm0.h **** #define __CM0_CMSIS_VERSION_SUB   (__CM_CMSIS_VERSION_SUB)               /*!< \deprecated [15:0]  C
  68:C:/Users/Lenovo/workspace/dave_workspace/SOLAR_TOWER/Libraries/CMSIS/Include\core_cm0.h **** #define __CM0_CMSIS_VERSION       ((__CM0_CMSIS_VERSION_MAIN << 16U) | \
  69:C:/Users/Lenovo/workspace/dave_workspace/SOLAR_TOWER/Libraries/CMSIS/Include\core_cm0.h ****                                     __CM0_CMSIS_VERSION_SUB           )  /*!< \deprecated CMSIS HAL
  70:C:/Users/Lenovo/workspace/dave_workspace/SOLAR_TOWER/Libraries/CMSIS/Include\core_cm0.h **** 
  71:C:/Users/Lenovo/workspace/dave_workspace/SOLAR_TOWER/Libraries/CMSIS/Include\core_cm0.h **** #define __CORTEX_M                (0U)                                   /*!< Cortex-M Core */
  72:C:/Users/Lenovo/workspace/dave_workspace/SOLAR_TOWER/Libraries/CMSIS/Include\core_cm0.h **** 
  73:C:/Users/Lenovo/workspace/dave_workspace/SOLAR_TOWER/Libraries/CMSIS/Include\core_cm0.h **** /** __FPU_USED indicates whether an FPU is used or not.
  74:C:/Users/Lenovo/workspace/dave_workspace/SOLAR_TOWER/Libraries/CMSIS/Include\core_cm0.h ****     This core does not support an FPU at all
  75:C:/Users/Lenovo/workspace/dave_workspace/SOLAR_TOWER/Libraries/CMSIS/Include\core_cm0.h **** */
  76:C:/Users/Lenovo/workspace/dave_workspace/SOLAR_TOWER/Libraries/CMSIS/Include\core_cm0.h **** #define __FPU_USED       0U
  77:C:/Users/Lenovo/workspace/dave_workspace/SOLAR_TOWER/Libraries/CMSIS/Include\core_cm0.h **** 
  78:C:/Users/Lenovo/workspace/dave_workspace/SOLAR_TOWER/Libraries/CMSIS/Include\core_cm0.h **** #if defined ( __CC_ARM )
  79:C:/Users/Lenovo/workspace/dave_workspace/SOLAR_TOWER/Libraries/CMSIS/Include\core_cm0.h ****   #if defined __TARGET_FPU_VFP
  80:C:/Users/Lenovo/workspace/dave_workspace/SOLAR_TOWER/Libraries/CMSIS/Include\core_cm0.h ****     #error "Compiler generates FPU instructions for a device without an FPU (check __FPU_PRESENT)"
  81:C:/Users/Lenovo/workspace/dave_workspace/SOLAR_TOWER/Libraries/CMSIS/Include\core_cm0.h ****   #endif
  82:C:/Users/Lenovo/workspace/dave_workspace/SOLAR_TOWER/Libraries/CMSIS/Include\core_cm0.h **** 
  83:C:/Users/Lenovo/workspace/dave_workspace/SOLAR_TOWER/Libraries/CMSIS/Include\core_cm0.h **** #elif defined (__ARMCC_VERSION) && (__ARMCC_VERSION >= 6010050)
  84:C:/Users/Lenovo/workspace/dave_workspace/SOLAR_TOWER/Libraries/CMSIS/Include\core_cm0.h ****   #if defined __ARM_PCS_VFP
  85:C:/Users/Lenovo/workspace/dave_workspace/SOLAR_TOWER/Libraries/CMSIS/Include\core_cm0.h ****     #error "Compiler generates FPU instructions for a device without an FPU (check __FPU_PRESENT)"
  86:C:/Users/Lenovo/workspace/dave_workspace/SOLAR_TOWER/Libraries/CMSIS/Include\core_cm0.h ****   #endif
  87:C:/Users/Lenovo/workspace/dave_workspace/SOLAR_TOWER/Libraries/CMSIS/Include\core_cm0.h **** 
  88:C:/Users/Lenovo/workspace/dave_workspace/SOLAR_TOWER/Libraries/CMSIS/Include\core_cm0.h **** #elif defined ( __GNUC__ )
  89:C:/Users/Lenovo/workspace/dave_workspace/SOLAR_TOWER/Libraries/CMSIS/Include\core_cm0.h ****   #if defined (__VFP_FP__) && !defined(__SOFTFP__)
  90:C:/Users/Lenovo/workspace/dave_workspace/SOLAR_TOWER/Libraries/CMSIS/Include\core_cm0.h ****     #error "Compiler generates FPU instructions for a device without an FPU (check __FPU_PRESENT)"
  91:C:/Users/Lenovo/workspace/dave_workspace/SOLAR_TOWER/Libraries/CMSIS/Include\core_cm0.h ****   #endif
  92:C:/Users/Lenovo/workspace/dave_workspace/SOLAR_TOWER/Libraries/CMSIS/Include\core_cm0.h **** 
  93:C:/Users/Lenovo/workspace/dave_workspace/SOLAR_TOWER/Libraries/CMSIS/Include\core_cm0.h **** #elif defined ( __ICCARM__ )
  94:C:/Users/Lenovo/workspace/dave_workspace/SOLAR_TOWER/Libraries/CMSIS/Include\core_cm0.h ****   #if defined __ARMVFP__
  95:C:/Users/Lenovo/workspace/dave_workspace/SOLAR_TOWER/Libraries/CMSIS/Include\core_cm0.h ****     #error "Compiler generates FPU instructions for a device without an FPU (check __FPU_PRESENT)"
  96:C:/Users/Lenovo/workspace/dave_workspace/SOLAR_TOWER/Libraries/CMSIS/Include\core_cm0.h ****   #endif
  97:C:/Users/Lenovo/workspace/dave_workspace/SOLAR_TOWER/Libraries/CMSIS/Include\core_cm0.h **** 
  98:C:/Users/Lenovo/workspace/dave_workspace/SOLAR_TOWER/Libraries/CMSIS/Include\core_cm0.h **** #elif defined ( __TI_ARM__ )
  99:C:/Users/Lenovo/workspace/dave_workspace/SOLAR_TOWER/Libraries/CMSIS/Include\core_cm0.h ****   #if defined __TI_VFP_SUPPORT__
 100:C:/Users/Lenovo/workspace/dave_workspace/SOLAR_TOWER/Libraries/CMSIS/Include\core_cm0.h ****     #error "Compiler generates FPU instructions for a device without an FPU (check __FPU_PRESENT)"
 101:C:/Users/Lenovo/workspace/dave_workspace/SOLAR_TOWER/Libraries/CMSIS/Include\core_cm0.h ****   #endif
 102:C:/Users/Lenovo/workspace/dave_workspace/SOLAR_TOWER/Libraries/CMSIS/Include\core_cm0.h **** 
 103:C:/Users/Lenovo/workspace/dave_workspace/SOLAR_TOWER/Libraries/CMSIS/Include\core_cm0.h **** #elif defined ( __TASKING__ )
 104:C:/Users/Lenovo/workspace/dave_workspace/SOLAR_TOWER/Libraries/CMSIS/Include\core_cm0.h ****   #if defined __FPU_VFP__
 105:C:/Users/Lenovo/workspace/dave_workspace/SOLAR_TOWER/Libraries/CMSIS/Include\core_cm0.h ****     #error "Compiler generates FPU instructions for a device without an FPU (check __FPU_PRESENT)"
 106:C:/Users/Lenovo/workspace/dave_workspace/SOLAR_TOWER/Libraries/CMSIS/Include\core_cm0.h ****   #endif
 107:C:/Users/Lenovo/workspace/dave_workspace/SOLAR_TOWER/Libraries/CMSIS/Include\core_cm0.h **** 
 108:C:/Users/Lenovo/workspace/dave_workspace/SOLAR_TOWER/Libraries/CMSIS/Include\core_cm0.h **** #elif defined ( __CSMC__ )
 109:C:/Users/Lenovo/workspace/dave_workspace/SOLAR_TOWER/Libraries/CMSIS/Include\core_cm0.h ****   #if ( __CSMC__ & 0x400U)
 110:C:/Users/Lenovo/workspace/dave_workspace/SOLAR_TOWER/Libraries/CMSIS/Include\core_cm0.h ****     #error "Compiler generates FPU instructions for a device without an FPU (check __FPU_PRESENT)"
 111:C:/Users/Lenovo/workspace/dave_workspace/SOLAR_TOWER/Libraries/CMSIS/Include\core_cm0.h ****   #endif
 112:C:/Users/Lenovo/workspace/dave_workspace/SOLAR_TOWER/Libraries/CMSIS/Include\core_cm0.h **** 
 113:C:/Users/Lenovo/workspace/dave_workspace/SOLAR_TOWER/Libraries/CMSIS/Include\core_cm0.h **** #endif
 114:C:/Users/Lenovo/workspace/dave_workspace/SOLAR_TOWER/Libraries/CMSIS/Include\core_cm0.h **** 
 115:C:/Users/Lenovo/workspace/dave_workspace/SOLAR_TOWER/Libraries/CMSIS/Include\core_cm0.h **** #include "cmsis_compiler.h"               /* CMSIS compiler specific defines */
 116:C:/Users/Lenovo/workspace/dave_workspace/SOLAR_TOWER/Libraries/CMSIS/Include\core_cm0.h **** 
 117:C:/Users/Lenovo/workspace/dave_workspace/SOLAR_TOWER/Libraries/CMSIS/Include\core_cm0.h **** 
 118:C:/Users/Lenovo/workspace/dave_workspace/SOLAR_TOWER/Libraries/CMSIS/Include\core_cm0.h **** #ifdef __cplusplus
 119:C:/Users/Lenovo/workspace/dave_workspace/SOLAR_TOWER/Libraries/CMSIS/Include\core_cm0.h **** }
 120:C:/Users/Lenovo/workspace/dave_workspace/SOLAR_TOWER/Libraries/CMSIS/Include\core_cm0.h **** #endif
 121:C:/Users/Lenovo/workspace/dave_workspace/SOLAR_TOWER/Libraries/CMSIS/Include\core_cm0.h **** 
 122:C:/Users/Lenovo/workspace/dave_workspace/SOLAR_TOWER/Libraries/CMSIS/Include\core_cm0.h **** #endif /* __CORE_CM0_H_GENERIC */
 123:C:/Users/Lenovo/workspace/dave_workspace/SOLAR_TOWER/Libraries/CMSIS/Include\core_cm0.h **** 
 124:C:/Users/Lenovo/workspace/dave_workspace/SOLAR_TOWER/Libraries/CMSIS/Include\core_cm0.h **** #ifndef __CMSIS_GENERIC
 125:C:/Users/Lenovo/workspace/dave_workspace/SOLAR_TOWER/Libraries/CMSIS/Include\core_cm0.h **** 
 126:C:/Users/Lenovo/workspace/dave_workspace/SOLAR_TOWER/Libraries/CMSIS/Include\core_cm0.h **** #ifndef __CORE_CM0_H_DEPENDANT
 127:C:/Users/Lenovo/workspace/dave_workspace/SOLAR_TOWER/Libraries/CMSIS/Include\core_cm0.h **** #define __CORE_CM0_H_DEPENDANT
 128:C:/Users/Lenovo/workspace/dave_workspace/SOLAR_TOWER/Libraries/CMSIS/Include\core_cm0.h **** 
 129:C:/Users/Lenovo/workspace/dave_workspace/SOLAR_TOWER/Libraries/CMSIS/Include\core_cm0.h **** #ifdef __cplusplus
 130:C:/Users/Lenovo/workspace/dave_workspace/SOLAR_TOWER/Libraries/CMSIS/Include\core_cm0.h ****  extern "C" {
 131:C:/Users/Lenovo/workspace/dave_workspace/SOLAR_TOWER/Libraries/CMSIS/Include\core_cm0.h **** #endif
 132:C:/Users/Lenovo/workspace/dave_workspace/SOLAR_TOWER/Libraries/CMSIS/Include\core_cm0.h **** 
 133:C:/Users/Lenovo/workspace/dave_workspace/SOLAR_TOWER/Libraries/CMSIS/Include\core_cm0.h **** /* check device defines and use defaults */
 134:C:/Users/Lenovo/workspace/dave_workspace/SOLAR_TOWER/Libraries/CMSIS/Include\core_cm0.h **** #if defined __CHECK_DEVICE_DEFINES
 135:C:/Users/Lenovo/workspace/dave_workspace/SOLAR_TOWER/Libraries/CMSIS/Include\core_cm0.h ****   #ifndef __CM0_REV
 136:C:/Users/Lenovo/workspace/dave_workspace/SOLAR_TOWER/Libraries/CMSIS/Include\core_cm0.h ****     #define __CM0_REV               0x0000U
 137:C:/Users/Lenovo/workspace/dave_workspace/SOLAR_TOWER/Libraries/CMSIS/Include\core_cm0.h ****     #warning "__CM0_REV not defined in device header file; using default!"
 138:C:/Users/Lenovo/workspace/dave_workspace/SOLAR_TOWER/Libraries/CMSIS/Include\core_cm0.h ****   #endif
 139:C:/Users/Lenovo/workspace/dave_workspace/SOLAR_TOWER/Libraries/CMSIS/Include\core_cm0.h **** 
 140:C:/Users/Lenovo/workspace/dave_workspace/SOLAR_TOWER/Libraries/CMSIS/Include\core_cm0.h ****   #ifndef __NVIC_PRIO_BITS
 141:C:/Users/Lenovo/workspace/dave_workspace/SOLAR_TOWER/Libraries/CMSIS/Include\core_cm0.h ****     #define __NVIC_PRIO_BITS          2U
 142:C:/Users/Lenovo/workspace/dave_workspace/SOLAR_TOWER/Libraries/CMSIS/Include\core_cm0.h ****     #warning "__NVIC_PRIO_BITS not defined in device header file; using default!"
 143:C:/Users/Lenovo/workspace/dave_workspace/SOLAR_TOWER/Libraries/CMSIS/Include\core_cm0.h ****   #endif
 144:C:/Users/Lenovo/workspace/dave_workspace/SOLAR_TOWER/Libraries/CMSIS/Include\core_cm0.h **** 
 145:C:/Users/Lenovo/workspace/dave_workspace/SOLAR_TOWER/Libraries/CMSIS/Include\core_cm0.h ****   #ifndef __Vendor_SysTickConfig
 146:C:/Users/Lenovo/workspace/dave_workspace/SOLAR_TOWER/Libraries/CMSIS/Include\core_cm0.h ****     #define __Vendor_SysTickConfig    0U
 147:C:/Users/Lenovo/workspace/dave_workspace/SOLAR_TOWER/Libraries/CMSIS/Include\core_cm0.h ****     #warning "__Vendor_SysTickConfig not defined in device header file; using default!"
 148:C:/Users/Lenovo/workspace/dave_workspace/SOLAR_TOWER/Libraries/CMSIS/Include\core_cm0.h ****   #endif
 149:C:/Users/Lenovo/workspace/dave_workspace/SOLAR_TOWER/Libraries/CMSIS/Include\core_cm0.h **** #endif
 150:C:/Users/Lenovo/workspace/dave_workspace/SOLAR_TOWER/Libraries/CMSIS/Include\core_cm0.h **** 
 151:C:/Users/Lenovo/workspace/dave_workspace/SOLAR_TOWER/Libraries/CMSIS/Include\core_cm0.h **** /* IO definitions (access restrictions to peripheral registers) */
 152:C:/Users/Lenovo/workspace/dave_workspace/SOLAR_TOWER/Libraries/CMSIS/Include\core_cm0.h **** /**
 153:C:/Users/Lenovo/workspace/dave_workspace/SOLAR_TOWER/Libraries/CMSIS/Include\core_cm0.h ****     \defgroup CMSIS_glob_defs CMSIS Global Defines
 154:C:/Users/Lenovo/workspace/dave_workspace/SOLAR_TOWER/Libraries/CMSIS/Include\core_cm0.h **** 
 155:C:/Users/Lenovo/workspace/dave_workspace/SOLAR_TOWER/Libraries/CMSIS/Include\core_cm0.h ****     <strong>IO Type Qualifiers</strong> are used
 156:C:/Users/Lenovo/workspace/dave_workspace/SOLAR_TOWER/Libraries/CMSIS/Include\core_cm0.h ****     \li to specify the access to peripheral variables.
 157:C:/Users/Lenovo/workspace/dave_workspace/SOLAR_TOWER/Libraries/CMSIS/Include\core_cm0.h ****     \li for automatic generation of peripheral register debug information.
 158:C:/Users/Lenovo/workspace/dave_workspace/SOLAR_TOWER/Libraries/CMSIS/Include\core_cm0.h **** */
 159:C:/Users/Lenovo/workspace/dave_workspace/SOLAR_TOWER/Libraries/CMSIS/Include\core_cm0.h **** #ifdef __cplusplus
 160:C:/Users/Lenovo/workspace/dave_workspace/SOLAR_TOWER/Libraries/CMSIS/Include\core_cm0.h ****   #define   __I     volatile             /*!< Defines 'read only' permissions */
 161:C:/Users/Lenovo/workspace/dave_workspace/SOLAR_TOWER/Libraries/CMSIS/Include\core_cm0.h **** #else
 162:C:/Users/Lenovo/workspace/dave_workspace/SOLAR_TOWER/Libraries/CMSIS/Include\core_cm0.h ****   #define   __I     volatile const       /*!< Defines 'read only' permissions */
 163:C:/Users/Lenovo/workspace/dave_workspace/SOLAR_TOWER/Libraries/CMSIS/Include\core_cm0.h **** #endif
 164:C:/Users/Lenovo/workspace/dave_workspace/SOLAR_TOWER/Libraries/CMSIS/Include\core_cm0.h **** #define     __O     volatile             /*!< Defines 'write only' permissions */
 165:C:/Users/Lenovo/workspace/dave_workspace/SOLAR_TOWER/Libraries/CMSIS/Include\core_cm0.h **** #define     __IO    volatile             /*!< Defines 'read / write' permissions */
 166:C:/Users/Lenovo/workspace/dave_workspace/SOLAR_TOWER/Libraries/CMSIS/Include\core_cm0.h **** 
 167:C:/Users/Lenovo/workspace/dave_workspace/SOLAR_TOWER/Libraries/CMSIS/Include\core_cm0.h **** /* following defines should be used for structure members */
 168:C:/Users/Lenovo/workspace/dave_workspace/SOLAR_TOWER/Libraries/CMSIS/Include\core_cm0.h **** #define     __IM     volatile const      /*! Defines 'read only' structure member permissions */
 169:C:/Users/Lenovo/workspace/dave_workspace/SOLAR_TOWER/Libraries/CMSIS/Include\core_cm0.h **** #define     __OM     volatile            /*! Defines 'write only' structure member permissions */
 170:C:/Users/Lenovo/workspace/dave_workspace/SOLAR_TOWER/Libraries/CMSIS/Include\core_cm0.h **** #define     __IOM    volatile            /*! Defines 'read / write' structure member permissions */
 171:C:/Users/Lenovo/workspace/dave_workspace/SOLAR_TOWER/Libraries/CMSIS/Include\core_cm0.h **** 
 172:C:/Users/Lenovo/workspace/dave_workspace/SOLAR_TOWER/Libraries/CMSIS/Include\core_cm0.h **** /*@} end of group Cortex_M0 */
 173:C:/Users/Lenovo/workspace/dave_workspace/SOLAR_TOWER/Libraries/CMSIS/Include\core_cm0.h **** 
 174:C:/Users/Lenovo/workspace/dave_workspace/SOLAR_TOWER/Libraries/CMSIS/Include\core_cm0.h **** 
 175:C:/Users/Lenovo/workspace/dave_workspace/SOLAR_TOWER/Libraries/CMSIS/Include\core_cm0.h **** 
 176:C:/Users/Lenovo/workspace/dave_workspace/SOLAR_TOWER/Libraries/CMSIS/Include\core_cm0.h **** /*******************************************************************************
 177:C:/Users/Lenovo/workspace/dave_workspace/SOLAR_TOWER/Libraries/CMSIS/Include\core_cm0.h ****  *                 Register Abstraction
 178:C:/Users/Lenovo/workspace/dave_workspace/SOLAR_TOWER/Libraries/CMSIS/Include\core_cm0.h ****   Core Register contain:
 179:C:/Users/Lenovo/workspace/dave_workspace/SOLAR_TOWER/Libraries/CMSIS/Include\core_cm0.h ****   - Core Register
 180:C:/Users/Lenovo/workspace/dave_workspace/SOLAR_TOWER/Libraries/CMSIS/Include\core_cm0.h ****   - Core NVIC Register
 181:C:/Users/Lenovo/workspace/dave_workspace/SOLAR_TOWER/Libraries/CMSIS/Include\core_cm0.h ****   - Core SCB Register
 182:C:/Users/Lenovo/workspace/dave_workspace/SOLAR_TOWER/Libraries/CMSIS/Include\core_cm0.h ****   - Core SysTick Register
 183:C:/Users/Lenovo/workspace/dave_workspace/SOLAR_TOWER/Libraries/CMSIS/Include\core_cm0.h ****  ******************************************************************************/
 184:C:/Users/Lenovo/workspace/dave_workspace/SOLAR_TOWER/Libraries/CMSIS/Include\core_cm0.h **** /**
 185:C:/Users/Lenovo/workspace/dave_workspace/SOLAR_TOWER/Libraries/CMSIS/Include\core_cm0.h ****   \defgroup CMSIS_core_register Defines and Type Definitions
 186:C:/Users/Lenovo/workspace/dave_workspace/SOLAR_TOWER/Libraries/CMSIS/Include\core_cm0.h ****   \brief Type definitions and defines for Cortex-M processor based devices.
 187:C:/Users/Lenovo/workspace/dave_workspace/SOLAR_TOWER/Libraries/CMSIS/Include\core_cm0.h **** */
 188:C:/Users/Lenovo/workspace/dave_workspace/SOLAR_TOWER/Libraries/CMSIS/Include\core_cm0.h **** 
 189:C:/Users/Lenovo/workspace/dave_workspace/SOLAR_TOWER/Libraries/CMSIS/Include\core_cm0.h **** /**
 190:C:/Users/Lenovo/workspace/dave_workspace/SOLAR_TOWER/Libraries/CMSIS/Include\core_cm0.h ****   \ingroup    CMSIS_core_register
 191:C:/Users/Lenovo/workspace/dave_workspace/SOLAR_TOWER/Libraries/CMSIS/Include\core_cm0.h ****   \defgroup   CMSIS_CORE  Status and Control Registers
 192:C:/Users/Lenovo/workspace/dave_workspace/SOLAR_TOWER/Libraries/CMSIS/Include\core_cm0.h ****   \brief      Core Register type definitions.
 193:C:/Users/Lenovo/workspace/dave_workspace/SOLAR_TOWER/Libraries/CMSIS/Include\core_cm0.h ****   @{
 194:C:/Users/Lenovo/workspace/dave_workspace/SOLAR_TOWER/Libraries/CMSIS/Include\core_cm0.h ****  */
 195:C:/Users/Lenovo/workspace/dave_workspace/SOLAR_TOWER/Libraries/CMSIS/Include\core_cm0.h **** 
 196:C:/Users/Lenovo/workspace/dave_workspace/SOLAR_TOWER/Libraries/CMSIS/Include\core_cm0.h **** /**
 197:C:/Users/Lenovo/workspace/dave_workspace/SOLAR_TOWER/Libraries/CMSIS/Include\core_cm0.h ****   \brief  Union type to access the Application Program Status Register (APSR).
 198:C:/Users/Lenovo/workspace/dave_workspace/SOLAR_TOWER/Libraries/CMSIS/Include\core_cm0.h ****  */
 199:C:/Users/Lenovo/workspace/dave_workspace/SOLAR_TOWER/Libraries/CMSIS/Include\core_cm0.h **** typedef union
 200:C:/Users/Lenovo/workspace/dave_workspace/SOLAR_TOWER/Libraries/CMSIS/Include\core_cm0.h **** {
 201:C:/Users/Lenovo/workspace/dave_workspace/SOLAR_TOWER/Libraries/CMSIS/Include\core_cm0.h ****   struct
 202:C:/Users/Lenovo/workspace/dave_workspace/SOLAR_TOWER/Libraries/CMSIS/Include\core_cm0.h ****   {
 203:C:/Users/Lenovo/workspace/dave_workspace/SOLAR_TOWER/Libraries/CMSIS/Include\core_cm0.h ****     uint32_t _reserved0:28;              /*!< bit:  0..27  Reserved */
 204:C:/Users/Lenovo/workspace/dave_workspace/SOLAR_TOWER/Libraries/CMSIS/Include\core_cm0.h ****     uint32_t V:1;                        /*!< bit:     28  Overflow condition code flag */
 205:C:/Users/Lenovo/workspace/dave_workspace/SOLAR_TOWER/Libraries/CMSIS/Include\core_cm0.h ****     uint32_t C:1;                        /*!< bit:     29  Carry condition code flag */
 206:C:/Users/Lenovo/workspace/dave_workspace/SOLAR_TOWER/Libraries/CMSIS/Include\core_cm0.h ****     uint32_t Z:1;                        /*!< bit:     30  Zero condition code flag */
 207:C:/Users/Lenovo/workspace/dave_workspace/SOLAR_TOWER/Libraries/CMSIS/Include\core_cm0.h ****     uint32_t N:1;                        /*!< bit:     31  Negative condition code flag */
 208:C:/Users/Lenovo/workspace/dave_workspace/SOLAR_TOWER/Libraries/CMSIS/Include\core_cm0.h ****   } b;                                   /*!< Structure used for bit  access */
 209:C:/Users/Lenovo/workspace/dave_workspace/SOLAR_TOWER/Libraries/CMSIS/Include\core_cm0.h ****   uint32_t w;                            /*!< Type      used for word access */
 210:C:/Users/Lenovo/workspace/dave_workspace/SOLAR_TOWER/Libraries/CMSIS/Include\core_cm0.h **** } APSR_Type;
 211:C:/Users/Lenovo/workspace/dave_workspace/SOLAR_TOWER/Libraries/CMSIS/Include\core_cm0.h **** 
 212:C:/Users/Lenovo/workspace/dave_workspace/SOLAR_TOWER/Libraries/CMSIS/Include\core_cm0.h **** /* APSR Register Definitions */
 213:C:/Users/Lenovo/workspace/dave_workspace/SOLAR_TOWER/Libraries/CMSIS/Include\core_cm0.h **** #define APSR_N_Pos                         31U                                            /*!< APSR
 214:C:/Users/Lenovo/workspace/dave_workspace/SOLAR_TOWER/Libraries/CMSIS/Include\core_cm0.h **** #define APSR_N_Msk                         (1UL << APSR_N_Pos)                            /*!< APSR
 215:C:/Users/Lenovo/workspace/dave_workspace/SOLAR_TOWER/Libraries/CMSIS/Include\core_cm0.h **** 
 216:C:/Users/Lenovo/workspace/dave_workspace/SOLAR_TOWER/Libraries/CMSIS/Include\core_cm0.h **** #define APSR_Z_Pos                         30U                                            /*!< APSR
 217:C:/Users/Lenovo/workspace/dave_workspace/SOLAR_TOWER/Libraries/CMSIS/Include\core_cm0.h **** #define APSR_Z_Msk                         (1UL << APSR_Z_Pos)                            /*!< APSR
 218:C:/Users/Lenovo/workspace/dave_workspace/SOLAR_TOWER/Libraries/CMSIS/Include\core_cm0.h **** 
 219:C:/Users/Lenovo/workspace/dave_workspace/SOLAR_TOWER/Libraries/CMSIS/Include\core_cm0.h **** #define APSR_C_Pos                         29U                                            /*!< APSR
 220:C:/Users/Lenovo/workspace/dave_workspace/SOLAR_TOWER/Libraries/CMSIS/Include\core_cm0.h **** #define APSR_C_Msk                         (1UL << APSR_C_Pos)                            /*!< APSR
 221:C:/Users/Lenovo/workspace/dave_workspace/SOLAR_TOWER/Libraries/CMSIS/Include\core_cm0.h **** 
 222:C:/Users/Lenovo/workspace/dave_workspace/SOLAR_TOWER/Libraries/CMSIS/Include\core_cm0.h **** #define APSR_V_Pos                         28U                                            /*!< APSR
 223:C:/Users/Lenovo/workspace/dave_workspace/SOLAR_TOWER/Libraries/CMSIS/Include\core_cm0.h **** #define APSR_V_Msk                         (1UL << APSR_V_Pos)                            /*!< APSR
 224:C:/Users/Lenovo/workspace/dave_workspace/SOLAR_TOWER/Libraries/CMSIS/Include\core_cm0.h **** 
 225:C:/Users/Lenovo/workspace/dave_workspace/SOLAR_TOWER/Libraries/CMSIS/Include\core_cm0.h **** 
 226:C:/Users/Lenovo/workspace/dave_workspace/SOLAR_TOWER/Libraries/CMSIS/Include\core_cm0.h **** /**
 227:C:/Users/Lenovo/workspace/dave_workspace/SOLAR_TOWER/Libraries/CMSIS/Include\core_cm0.h ****   \brief  Union type to access the Interrupt Program Status Register (IPSR).
 228:C:/Users/Lenovo/workspace/dave_workspace/SOLAR_TOWER/Libraries/CMSIS/Include\core_cm0.h ****  */
 229:C:/Users/Lenovo/workspace/dave_workspace/SOLAR_TOWER/Libraries/CMSIS/Include\core_cm0.h **** typedef union
 230:C:/Users/Lenovo/workspace/dave_workspace/SOLAR_TOWER/Libraries/CMSIS/Include\core_cm0.h **** {
 231:C:/Users/Lenovo/workspace/dave_workspace/SOLAR_TOWER/Libraries/CMSIS/Include\core_cm0.h ****   struct
 232:C:/Users/Lenovo/workspace/dave_workspace/SOLAR_TOWER/Libraries/CMSIS/Include\core_cm0.h ****   {
 233:C:/Users/Lenovo/workspace/dave_workspace/SOLAR_TOWER/Libraries/CMSIS/Include\core_cm0.h ****     uint32_t ISR:9;                      /*!< bit:  0.. 8  Exception number */
 234:C:/Users/Lenovo/workspace/dave_workspace/SOLAR_TOWER/Libraries/CMSIS/Include\core_cm0.h ****     uint32_t _reserved0:23;              /*!< bit:  9..31  Reserved */
 235:C:/Users/Lenovo/workspace/dave_workspace/SOLAR_TOWER/Libraries/CMSIS/Include\core_cm0.h ****   } b;                                   /*!< Structure used for bit  access */
 236:C:/Users/Lenovo/workspace/dave_workspace/SOLAR_TOWER/Libraries/CMSIS/Include\core_cm0.h ****   uint32_t w;                            /*!< Type      used for word access */
 237:C:/Users/Lenovo/workspace/dave_workspace/SOLAR_TOWER/Libraries/CMSIS/Include\core_cm0.h **** } IPSR_Type;
 238:C:/Users/Lenovo/workspace/dave_workspace/SOLAR_TOWER/Libraries/CMSIS/Include\core_cm0.h **** 
 239:C:/Users/Lenovo/workspace/dave_workspace/SOLAR_TOWER/Libraries/CMSIS/Include\core_cm0.h **** /* IPSR Register Definitions */
 240:C:/Users/Lenovo/workspace/dave_workspace/SOLAR_TOWER/Libraries/CMSIS/Include\core_cm0.h **** #define IPSR_ISR_Pos                        0U                                            /*!< IPSR
 241:C:/Users/Lenovo/workspace/dave_workspace/SOLAR_TOWER/Libraries/CMSIS/Include\core_cm0.h **** #define IPSR_ISR_Msk                       (0x1FFUL /*<< IPSR_ISR_Pos*/)                  /*!< IPSR
 242:C:/Users/Lenovo/workspace/dave_workspace/SOLAR_TOWER/Libraries/CMSIS/Include\core_cm0.h **** 
 243:C:/Users/Lenovo/workspace/dave_workspace/SOLAR_TOWER/Libraries/CMSIS/Include\core_cm0.h **** 
 244:C:/Users/Lenovo/workspace/dave_workspace/SOLAR_TOWER/Libraries/CMSIS/Include\core_cm0.h **** /**
 245:C:/Users/Lenovo/workspace/dave_workspace/SOLAR_TOWER/Libraries/CMSIS/Include\core_cm0.h ****   \brief  Union type to access the Special-Purpose Program Status Registers (xPSR).
 246:C:/Users/Lenovo/workspace/dave_workspace/SOLAR_TOWER/Libraries/CMSIS/Include\core_cm0.h ****  */
 247:C:/Users/Lenovo/workspace/dave_workspace/SOLAR_TOWER/Libraries/CMSIS/Include\core_cm0.h **** typedef union
 248:C:/Users/Lenovo/workspace/dave_workspace/SOLAR_TOWER/Libraries/CMSIS/Include\core_cm0.h **** {
 249:C:/Users/Lenovo/workspace/dave_workspace/SOLAR_TOWER/Libraries/CMSIS/Include\core_cm0.h ****   struct
 250:C:/Users/Lenovo/workspace/dave_workspace/SOLAR_TOWER/Libraries/CMSIS/Include\core_cm0.h ****   {
 251:C:/Users/Lenovo/workspace/dave_workspace/SOLAR_TOWER/Libraries/CMSIS/Include\core_cm0.h ****     uint32_t ISR:9;                      /*!< bit:  0.. 8  Exception number */
 252:C:/Users/Lenovo/workspace/dave_workspace/SOLAR_TOWER/Libraries/CMSIS/Include\core_cm0.h ****     uint32_t _reserved0:15;              /*!< bit:  9..23  Reserved */
 253:C:/Users/Lenovo/workspace/dave_workspace/SOLAR_TOWER/Libraries/CMSIS/Include\core_cm0.h ****     uint32_t T:1;                        /*!< bit:     24  Thumb bit        (read 0) */
 254:C:/Users/Lenovo/workspace/dave_workspace/SOLAR_TOWER/Libraries/CMSIS/Include\core_cm0.h ****     uint32_t _reserved1:3;               /*!< bit: 25..27  Reserved */
 255:C:/Users/Lenovo/workspace/dave_workspace/SOLAR_TOWER/Libraries/CMSIS/Include\core_cm0.h ****     uint32_t V:1;                        /*!< bit:     28  Overflow condition code flag */
 256:C:/Users/Lenovo/workspace/dave_workspace/SOLAR_TOWER/Libraries/CMSIS/Include\core_cm0.h ****     uint32_t C:1;                        /*!< bit:     29  Carry condition code flag */
 257:C:/Users/Lenovo/workspace/dave_workspace/SOLAR_TOWER/Libraries/CMSIS/Include\core_cm0.h ****     uint32_t Z:1;                        /*!< bit:     30  Zero condition code flag */
 258:C:/Users/Lenovo/workspace/dave_workspace/SOLAR_TOWER/Libraries/CMSIS/Include\core_cm0.h ****     uint32_t N:1;                        /*!< bit:     31  Negative condition code flag */
 259:C:/Users/Lenovo/workspace/dave_workspace/SOLAR_TOWER/Libraries/CMSIS/Include\core_cm0.h ****   } b;                                   /*!< Structure used for bit  access */
 260:C:/Users/Lenovo/workspace/dave_workspace/SOLAR_TOWER/Libraries/CMSIS/Include\core_cm0.h ****   uint32_t w;                            /*!< Type      used for word access */
 261:C:/Users/Lenovo/workspace/dave_workspace/SOLAR_TOWER/Libraries/CMSIS/Include\core_cm0.h **** } xPSR_Type;
 262:C:/Users/Lenovo/workspace/dave_workspace/SOLAR_TOWER/Libraries/CMSIS/Include\core_cm0.h **** 
 263:C:/Users/Lenovo/workspace/dave_workspace/SOLAR_TOWER/Libraries/CMSIS/Include\core_cm0.h **** /* xPSR Register Definitions */
 264:C:/Users/Lenovo/workspace/dave_workspace/SOLAR_TOWER/Libraries/CMSIS/Include\core_cm0.h **** #define xPSR_N_Pos                         31U                                            /*!< xPSR
 265:C:/Users/Lenovo/workspace/dave_workspace/SOLAR_TOWER/Libraries/CMSIS/Include\core_cm0.h **** #define xPSR_N_Msk                         (1UL << xPSR_N_Pos)                            /*!< xPSR
 266:C:/Users/Lenovo/workspace/dave_workspace/SOLAR_TOWER/Libraries/CMSIS/Include\core_cm0.h **** 
 267:C:/Users/Lenovo/workspace/dave_workspace/SOLAR_TOWER/Libraries/CMSIS/Include\core_cm0.h **** #define xPSR_Z_Pos                         30U                                            /*!< xPSR
 268:C:/Users/Lenovo/workspace/dave_workspace/SOLAR_TOWER/Libraries/CMSIS/Include\core_cm0.h **** #define xPSR_Z_Msk                         (1UL << xPSR_Z_Pos)                            /*!< xPSR
 269:C:/Users/Lenovo/workspace/dave_workspace/SOLAR_TOWER/Libraries/CMSIS/Include\core_cm0.h **** 
 270:C:/Users/Lenovo/workspace/dave_workspace/SOLAR_TOWER/Libraries/CMSIS/Include\core_cm0.h **** #define xPSR_C_Pos                         29U                                            /*!< xPSR
 271:C:/Users/Lenovo/workspace/dave_workspace/SOLAR_TOWER/Libraries/CMSIS/Include\core_cm0.h **** #define xPSR_C_Msk                         (1UL << xPSR_C_Pos)                            /*!< xPSR
 272:C:/Users/Lenovo/workspace/dave_workspace/SOLAR_TOWER/Libraries/CMSIS/Include\core_cm0.h **** 
 273:C:/Users/Lenovo/workspace/dave_workspace/SOLAR_TOWER/Libraries/CMSIS/Include\core_cm0.h **** #define xPSR_V_Pos                         28U                                            /*!< xPSR
 274:C:/Users/Lenovo/workspace/dave_workspace/SOLAR_TOWER/Libraries/CMSIS/Include\core_cm0.h **** #define xPSR_V_Msk                         (1UL << xPSR_V_Pos)                            /*!< xPSR
 275:C:/Users/Lenovo/workspace/dave_workspace/SOLAR_TOWER/Libraries/CMSIS/Include\core_cm0.h **** 
 276:C:/Users/Lenovo/workspace/dave_workspace/SOLAR_TOWER/Libraries/CMSIS/Include\core_cm0.h **** #define xPSR_T_Pos                         24U                                            /*!< xPSR
 277:C:/Users/Lenovo/workspace/dave_workspace/SOLAR_TOWER/Libraries/CMSIS/Include\core_cm0.h **** #define xPSR_T_Msk                         (1UL << xPSR_T_Pos)                            /*!< xPSR
 278:C:/Users/Lenovo/workspace/dave_workspace/SOLAR_TOWER/Libraries/CMSIS/Include\core_cm0.h **** 
 279:C:/Users/Lenovo/workspace/dave_workspace/SOLAR_TOWER/Libraries/CMSIS/Include\core_cm0.h **** #define xPSR_ISR_Pos                        0U                                            /*!< xPSR
 280:C:/Users/Lenovo/workspace/dave_workspace/SOLAR_TOWER/Libraries/CMSIS/Include\core_cm0.h **** #define xPSR_ISR_Msk                       (0x1FFUL /*<< xPSR_ISR_Pos*/)                  /*!< xPSR
 281:C:/Users/Lenovo/workspace/dave_workspace/SOLAR_TOWER/Libraries/CMSIS/Include\core_cm0.h **** 
 282:C:/Users/Lenovo/workspace/dave_workspace/SOLAR_TOWER/Libraries/CMSIS/Include\core_cm0.h **** 
 283:C:/Users/Lenovo/workspace/dave_workspace/SOLAR_TOWER/Libraries/CMSIS/Include\core_cm0.h **** /**
 284:C:/Users/Lenovo/workspace/dave_workspace/SOLAR_TOWER/Libraries/CMSIS/Include\core_cm0.h ****   \brief  Union type to access the Control Registers (CONTROL).
 285:C:/Users/Lenovo/workspace/dave_workspace/SOLAR_TOWER/Libraries/CMSIS/Include\core_cm0.h ****  */
 286:C:/Users/Lenovo/workspace/dave_workspace/SOLAR_TOWER/Libraries/CMSIS/Include\core_cm0.h **** typedef union
 287:C:/Users/Lenovo/workspace/dave_workspace/SOLAR_TOWER/Libraries/CMSIS/Include\core_cm0.h **** {
 288:C:/Users/Lenovo/workspace/dave_workspace/SOLAR_TOWER/Libraries/CMSIS/Include\core_cm0.h ****   struct
 289:C:/Users/Lenovo/workspace/dave_workspace/SOLAR_TOWER/Libraries/CMSIS/Include\core_cm0.h ****   {
 290:C:/Users/Lenovo/workspace/dave_workspace/SOLAR_TOWER/Libraries/CMSIS/Include\core_cm0.h ****     uint32_t _reserved0:1;               /*!< bit:      0  Reserved */
 291:C:/Users/Lenovo/workspace/dave_workspace/SOLAR_TOWER/Libraries/CMSIS/Include\core_cm0.h ****     uint32_t SPSEL:1;                    /*!< bit:      1  Stack to be used */
 292:C:/Users/Lenovo/workspace/dave_workspace/SOLAR_TOWER/Libraries/CMSIS/Include\core_cm0.h ****     uint32_t _reserved1:30;              /*!< bit:  2..31  Reserved */
 293:C:/Users/Lenovo/workspace/dave_workspace/SOLAR_TOWER/Libraries/CMSIS/Include\core_cm0.h ****   } b;                                   /*!< Structure used for bit  access */
 294:C:/Users/Lenovo/workspace/dave_workspace/SOLAR_TOWER/Libraries/CMSIS/Include\core_cm0.h ****   uint32_t w;                            /*!< Type      used for word access */
 295:C:/Users/Lenovo/workspace/dave_workspace/SOLAR_TOWER/Libraries/CMSIS/Include\core_cm0.h **** } CONTROL_Type;
 296:C:/Users/Lenovo/workspace/dave_workspace/SOLAR_TOWER/Libraries/CMSIS/Include\core_cm0.h **** 
 297:C:/Users/Lenovo/workspace/dave_workspace/SOLAR_TOWER/Libraries/CMSIS/Include\core_cm0.h **** /* CONTROL Register Definitions */
 298:C:/Users/Lenovo/workspace/dave_workspace/SOLAR_TOWER/Libraries/CMSIS/Include\core_cm0.h **** #define CONTROL_SPSEL_Pos                   1U                                            /*!< CONT
 299:C:/Users/Lenovo/workspace/dave_workspace/SOLAR_TOWER/Libraries/CMSIS/Include\core_cm0.h **** #define CONTROL_SPSEL_Msk                  (1UL << CONTROL_SPSEL_Pos)                     /*!< CONT
 300:C:/Users/Lenovo/workspace/dave_workspace/SOLAR_TOWER/Libraries/CMSIS/Include\core_cm0.h **** 
 301:C:/Users/Lenovo/workspace/dave_workspace/SOLAR_TOWER/Libraries/CMSIS/Include\core_cm0.h **** /*@} end of group CMSIS_CORE */
 302:C:/Users/Lenovo/workspace/dave_workspace/SOLAR_TOWER/Libraries/CMSIS/Include\core_cm0.h **** 
 303:C:/Users/Lenovo/workspace/dave_workspace/SOLAR_TOWER/Libraries/CMSIS/Include\core_cm0.h **** 
 304:C:/Users/Lenovo/workspace/dave_workspace/SOLAR_TOWER/Libraries/CMSIS/Include\core_cm0.h **** /**
 305:C:/Users/Lenovo/workspace/dave_workspace/SOLAR_TOWER/Libraries/CMSIS/Include\core_cm0.h ****   \ingroup    CMSIS_core_register
 306:C:/Users/Lenovo/workspace/dave_workspace/SOLAR_TOWER/Libraries/CMSIS/Include\core_cm0.h ****   \defgroup   CMSIS_NVIC  Nested Vectored Interrupt Controller (NVIC)
 307:C:/Users/Lenovo/workspace/dave_workspace/SOLAR_TOWER/Libraries/CMSIS/Include\core_cm0.h ****   \brief      Type definitions for the NVIC Registers
 308:C:/Users/Lenovo/workspace/dave_workspace/SOLAR_TOWER/Libraries/CMSIS/Include\core_cm0.h ****   @{
 309:C:/Users/Lenovo/workspace/dave_workspace/SOLAR_TOWER/Libraries/CMSIS/Include\core_cm0.h ****  */
 310:C:/Users/Lenovo/workspace/dave_workspace/SOLAR_TOWER/Libraries/CMSIS/Include\core_cm0.h **** 
 311:C:/Users/Lenovo/workspace/dave_workspace/SOLAR_TOWER/Libraries/CMSIS/Include\core_cm0.h **** /**
 312:C:/Users/Lenovo/workspace/dave_workspace/SOLAR_TOWER/Libraries/CMSIS/Include\core_cm0.h ****   \brief  Structure type to access the Nested Vectored Interrupt Controller (NVIC).
 313:C:/Users/Lenovo/workspace/dave_workspace/SOLAR_TOWER/Libraries/CMSIS/Include\core_cm0.h ****  */
 314:C:/Users/Lenovo/workspace/dave_workspace/SOLAR_TOWER/Libraries/CMSIS/Include\core_cm0.h **** typedef struct
 315:C:/Users/Lenovo/workspace/dave_workspace/SOLAR_TOWER/Libraries/CMSIS/Include\core_cm0.h **** {
 316:C:/Users/Lenovo/workspace/dave_workspace/SOLAR_TOWER/Libraries/CMSIS/Include\core_cm0.h ****   __IOM uint32_t ISER[1U];               /*!< Offset: 0x000 (R/W)  Interrupt Set Enable Register */
 317:C:/Users/Lenovo/workspace/dave_workspace/SOLAR_TOWER/Libraries/CMSIS/Include\core_cm0.h ****         uint32_t RESERVED0[31U];
 318:C:/Users/Lenovo/workspace/dave_workspace/SOLAR_TOWER/Libraries/CMSIS/Include\core_cm0.h ****   __IOM uint32_t ICER[1U];               /*!< Offset: 0x080 (R/W)  Interrupt Clear Enable Register 
 319:C:/Users/Lenovo/workspace/dave_workspace/SOLAR_TOWER/Libraries/CMSIS/Include\core_cm0.h ****         uint32_t RSERVED1[31U];
 320:C:/Users/Lenovo/workspace/dave_workspace/SOLAR_TOWER/Libraries/CMSIS/Include\core_cm0.h ****   __IOM uint32_t ISPR[1U];               /*!< Offset: 0x100 (R/W)  Interrupt Set Pending Register *
 321:C:/Users/Lenovo/workspace/dave_workspace/SOLAR_TOWER/Libraries/CMSIS/Include\core_cm0.h ****         uint32_t RESERVED2[31U];
 322:C:/Users/Lenovo/workspace/dave_workspace/SOLAR_TOWER/Libraries/CMSIS/Include\core_cm0.h ****   __IOM uint32_t ICPR[1U];               /*!< Offset: 0x180 (R/W)  Interrupt Clear Pending Register
 323:C:/Users/Lenovo/workspace/dave_workspace/SOLAR_TOWER/Libraries/CMSIS/Include\core_cm0.h ****         uint32_t RESERVED3[31U];
 324:C:/Users/Lenovo/workspace/dave_workspace/SOLAR_TOWER/Libraries/CMSIS/Include\core_cm0.h ****         uint32_t RESERVED4[64U];
 325:C:/Users/Lenovo/workspace/dave_workspace/SOLAR_TOWER/Libraries/CMSIS/Include\core_cm0.h ****   __IOM uint32_t IP[8U];                 /*!< Offset: 0x300 (R/W)  Interrupt Priority Register */
 326:C:/Users/Lenovo/workspace/dave_workspace/SOLAR_TOWER/Libraries/CMSIS/Include\core_cm0.h **** }  NVIC_Type;
 327:C:/Users/Lenovo/workspace/dave_workspace/SOLAR_TOWER/Libraries/CMSIS/Include\core_cm0.h **** 
 328:C:/Users/Lenovo/workspace/dave_workspace/SOLAR_TOWER/Libraries/CMSIS/Include\core_cm0.h **** /*@} end of group CMSIS_NVIC */
 329:C:/Users/Lenovo/workspace/dave_workspace/SOLAR_TOWER/Libraries/CMSIS/Include\core_cm0.h **** 
 330:C:/Users/Lenovo/workspace/dave_workspace/SOLAR_TOWER/Libraries/CMSIS/Include\core_cm0.h **** 
 331:C:/Users/Lenovo/workspace/dave_workspace/SOLAR_TOWER/Libraries/CMSIS/Include\core_cm0.h **** /**
 332:C:/Users/Lenovo/workspace/dave_workspace/SOLAR_TOWER/Libraries/CMSIS/Include\core_cm0.h ****   \ingroup  CMSIS_core_register
 333:C:/Users/Lenovo/workspace/dave_workspace/SOLAR_TOWER/Libraries/CMSIS/Include\core_cm0.h ****   \defgroup CMSIS_SCB     System Control Block (SCB)
 334:C:/Users/Lenovo/workspace/dave_workspace/SOLAR_TOWER/Libraries/CMSIS/Include\core_cm0.h ****   \brief    Type definitions for the System Control Block Registers
 335:C:/Users/Lenovo/workspace/dave_workspace/SOLAR_TOWER/Libraries/CMSIS/Include\core_cm0.h ****   @{
 336:C:/Users/Lenovo/workspace/dave_workspace/SOLAR_TOWER/Libraries/CMSIS/Include\core_cm0.h ****  */
 337:C:/Users/Lenovo/workspace/dave_workspace/SOLAR_TOWER/Libraries/CMSIS/Include\core_cm0.h **** 
 338:C:/Users/Lenovo/workspace/dave_workspace/SOLAR_TOWER/Libraries/CMSIS/Include\core_cm0.h **** /**
 339:C:/Users/Lenovo/workspace/dave_workspace/SOLAR_TOWER/Libraries/CMSIS/Include\core_cm0.h ****   \brief  Structure type to access the System Control Block (SCB).
 340:C:/Users/Lenovo/workspace/dave_workspace/SOLAR_TOWER/Libraries/CMSIS/Include\core_cm0.h ****  */
 341:C:/Users/Lenovo/workspace/dave_workspace/SOLAR_TOWER/Libraries/CMSIS/Include\core_cm0.h **** typedef struct
 342:C:/Users/Lenovo/workspace/dave_workspace/SOLAR_TOWER/Libraries/CMSIS/Include\core_cm0.h **** {
 343:C:/Users/Lenovo/workspace/dave_workspace/SOLAR_TOWER/Libraries/CMSIS/Include\core_cm0.h ****   __IM  uint32_t CPUID;                  /*!< Offset: 0x000 (R/ )  CPUID Base Register */
 344:C:/Users/Lenovo/workspace/dave_workspace/SOLAR_TOWER/Libraries/CMSIS/Include\core_cm0.h ****   __IOM uint32_t ICSR;                   /*!< Offset: 0x004 (R/W)  Interrupt Control and State Regi
 345:C:/Users/Lenovo/workspace/dave_workspace/SOLAR_TOWER/Libraries/CMSIS/Include\core_cm0.h ****         uint32_t RESERVED0;
 346:C:/Users/Lenovo/workspace/dave_workspace/SOLAR_TOWER/Libraries/CMSIS/Include\core_cm0.h ****   __IOM uint32_t AIRCR;                  /*!< Offset: 0x00C (R/W)  Application Interrupt and Reset 
 347:C:/Users/Lenovo/workspace/dave_workspace/SOLAR_TOWER/Libraries/CMSIS/Include\core_cm0.h ****   __IOM uint32_t SCR;                    /*!< Offset: 0x010 (R/W)  System Control Register */
 348:C:/Users/Lenovo/workspace/dave_workspace/SOLAR_TOWER/Libraries/CMSIS/Include\core_cm0.h ****   __IOM uint32_t CCR;                    /*!< Offset: 0x014 (R/W)  Configuration Control Register *
 349:C:/Users/Lenovo/workspace/dave_workspace/SOLAR_TOWER/Libraries/CMSIS/Include\core_cm0.h ****         uint32_t RESERVED1;
 350:C:/Users/Lenovo/workspace/dave_workspace/SOLAR_TOWER/Libraries/CMSIS/Include\core_cm0.h ****   __IOM uint32_t SHP[2U];                /*!< Offset: 0x01C (R/W)  System Handlers Priority Registe
 351:C:/Users/Lenovo/workspace/dave_workspace/SOLAR_TOWER/Libraries/CMSIS/Include\core_cm0.h ****   __IOM uint32_t SHCSR;                  /*!< Offset: 0x024 (R/W)  System Handler Control and State
 352:C:/Users/Lenovo/workspace/dave_workspace/SOLAR_TOWER/Libraries/CMSIS/Include\core_cm0.h **** } SCB_Type;
 353:C:/Users/Lenovo/workspace/dave_workspace/SOLAR_TOWER/Libraries/CMSIS/Include\core_cm0.h **** 
 354:C:/Users/Lenovo/workspace/dave_workspace/SOLAR_TOWER/Libraries/CMSIS/Include\core_cm0.h **** /* SCB CPUID Register Definitions */
 355:C:/Users/Lenovo/workspace/dave_workspace/SOLAR_TOWER/Libraries/CMSIS/Include\core_cm0.h **** #define SCB_CPUID_IMPLEMENTER_Pos          24U                                            /*!< SCB 
 356:C:/Users/Lenovo/workspace/dave_workspace/SOLAR_TOWER/Libraries/CMSIS/Include\core_cm0.h **** #define SCB_CPUID_IMPLEMENTER_Msk          (0xFFUL << SCB_CPUID_IMPLEMENTER_Pos)          /*!< SCB 
 357:C:/Users/Lenovo/workspace/dave_workspace/SOLAR_TOWER/Libraries/CMSIS/Include\core_cm0.h **** 
 358:C:/Users/Lenovo/workspace/dave_workspace/SOLAR_TOWER/Libraries/CMSIS/Include\core_cm0.h **** #define SCB_CPUID_VARIANT_Pos              20U                                            /*!< SCB 
 359:C:/Users/Lenovo/workspace/dave_workspace/SOLAR_TOWER/Libraries/CMSIS/Include\core_cm0.h **** #define SCB_CPUID_VARIANT_Msk              (0xFUL << SCB_CPUID_VARIANT_Pos)               /*!< SCB 
 360:C:/Users/Lenovo/workspace/dave_workspace/SOLAR_TOWER/Libraries/CMSIS/Include\core_cm0.h **** 
 361:C:/Users/Lenovo/workspace/dave_workspace/SOLAR_TOWER/Libraries/CMSIS/Include\core_cm0.h **** #define SCB_CPUID_ARCHITECTURE_Pos         16U                                            /*!< SCB 
 362:C:/Users/Lenovo/workspace/dave_workspace/SOLAR_TOWER/Libraries/CMSIS/Include\core_cm0.h **** #define SCB_CPUID_ARCHITECTURE_Msk         (0xFUL << SCB_CPUID_ARCHITECTURE_Pos)          /*!< SCB 
 363:C:/Users/Lenovo/workspace/dave_workspace/SOLAR_TOWER/Libraries/CMSIS/Include\core_cm0.h **** 
 364:C:/Users/Lenovo/workspace/dave_workspace/SOLAR_TOWER/Libraries/CMSIS/Include\core_cm0.h **** #define SCB_CPUID_PARTNO_Pos                4U                                            /*!< SCB 
 365:C:/Users/Lenovo/workspace/dave_workspace/SOLAR_TOWER/Libraries/CMSIS/Include\core_cm0.h **** #define SCB_CPUID_PARTNO_Msk               (0xFFFUL << SCB_CPUID_PARTNO_Pos)              /*!< SCB 
 366:C:/Users/Lenovo/workspace/dave_workspace/SOLAR_TOWER/Libraries/CMSIS/Include\core_cm0.h **** 
 367:C:/Users/Lenovo/workspace/dave_workspace/SOLAR_TOWER/Libraries/CMSIS/Include\core_cm0.h **** #define SCB_CPUID_REVISION_Pos              0U                                            /*!< SCB 
 368:C:/Users/Lenovo/workspace/dave_workspace/SOLAR_TOWER/Libraries/CMSIS/Include\core_cm0.h **** #define SCB_CPUID_REVISION_Msk             (0xFUL /*<< SCB_CPUID_REVISION_Pos*/)          /*!< SCB 
 369:C:/Users/Lenovo/workspace/dave_workspace/SOLAR_TOWER/Libraries/CMSIS/Include\core_cm0.h **** 
 370:C:/Users/Lenovo/workspace/dave_workspace/SOLAR_TOWER/Libraries/CMSIS/Include\core_cm0.h **** /* SCB Interrupt Control State Register Definitions */
 371:C:/Users/Lenovo/workspace/dave_workspace/SOLAR_TOWER/Libraries/CMSIS/Include\core_cm0.h **** #define SCB_ICSR_NMIPENDSET_Pos            31U                                            /*!< SCB 
 372:C:/Users/Lenovo/workspace/dave_workspace/SOLAR_TOWER/Libraries/CMSIS/Include\core_cm0.h **** #define SCB_ICSR_NMIPENDSET_Msk            (1UL << SCB_ICSR_NMIPENDSET_Pos)               /*!< SCB 
 373:C:/Users/Lenovo/workspace/dave_workspace/SOLAR_TOWER/Libraries/CMSIS/Include\core_cm0.h **** 
 374:C:/Users/Lenovo/workspace/dave_workspace/SOLAR_TOWER/Libraries/CMSIS/Include\core_cm0.h **** #define SCB_ICSR_PENDSVSET_Pos             28U                                            /*!< SCB 
 375:C:/Users/Lenovo/workspace/dave_workspace/SOLAR_TOWER/Libraries/CMSIS/Include\core_cm0.h **** #define SCB_ICSR_PENDSVSET_Msk             (1UL << SCB_ICSR_PENDSVSET_Pos)                /*!< SCB 
 376:C:/Users/Lenovo/workspace/dave_workspace/SOLAR_TOWER/Libraries/CMSIS/Include\core_cm0.h **** 
 377:C:/Users/Lenovo/workspace/dave_workspace/SOLAR_TOWER/Libraries/CMSIS/Include\core_cm0.h **** #define SCB_ICSR_PENDSVCLR_Pos             27U                                            /*!< SCB 
 378:C:/Users/Lenovo/workspace/dave_workspace/SOLAR_TOWER/Libraries/CMSIS/Include\core_cm0.h **** #define SCB_ICSR_PENDSVCLR_Msk             (1UL << SCB_ICSR_PENDSVCLR_Pos)                /*!< SCB 
 379:C:/Users/Lenovo/workspace/dave_workspace/SOLAR_TOWER/Libraries/CMSIS/Include\core_cm0.h **** 
 380:C:/Users/Lenovo/workspace/dave_workspace/SOLAR_TOWER/Libraries/CMSIS/Include\core_cm0.h **** #define SCB_ICSR_PENDSTSET_Pos             26U                                            /*!< SCB 
 381:C:/Users/Lenovo/workspace/dave_workspace/SOLAR_TOWER/Libraries/CMSIS/Include\core_cm0.h **** #define SCB_ICSR_PENDSTSET_Msk             (1UL << SCB_ICSR_PENDSTSET_Pos)                /*!< SCB 
 382:C:/Users/Lenovo/workspace/dave_workspace/SOLAR_TOWER/Libraries/CMSIS/Include\core_cm0.h **** 
 383:C:/Users/Lenovo/workspace/dave_workspace/SOLAR_TOWER/Libraries/CMSIS/Include\core_cm0.h **** #define SCB_ICSR_PENDSTCLR_Pos             25U                                            /*!< SCB 
 384:C:/Users/Lenovo/workspace/dave_workspace/SOLAR_TOWER/Libraries/CMSIS/Include\core_cm0.h **** #define SCB_ICSR_PENDSTCLR_Msk             (1UL << SCB_ICSR_PENDSTCLR_Pos)                /*!< SCB 
 385:C:/Users/Lenovo/workspace/dave_workspace/SOLAR_TOWER/Libraries/CMSIS/Include\core_cm0.h **** 
 386:C:/Users/Lenovo/workspace/dave_workspace/SOLAR_TOWER/Libraries/CMSIS/Include\core_cm0.h **** #define SCB_ICSR_ISRPREEMPT_Pos            23U                                            /*!< SCB 
 387:C:/Users/Lenovo/workspace/dave_workspace/SOLAR_TOWER/Libraries/CMSIS/Include\core_cm0.h **** #define SCB_ICSR_ISRPREEMPT_Msk            (1UL << SCB_ICSR_ISRPREEMPT_Pos)               /*!< SCB 
 388:C:/Users/Lenovo/workspace/dave_workspace/SOLAR_TOWER/Libraries/CMSIS/Include\core_cm0.h **** 
 389:C:/Users/Lenovo/workspace/dave_workspace/SOLAR_TOWER/Libraries/CMSIS/Include\core_cm0.h **** #define SCB_ICSR_ISRPENDING_Pos            22U                                            /*!< SCB 
 390:C:/Users/Lenovo/workspace/dave_workspace/SOLAR_TOWER/Libraries/CMSIS/Include\core_cm0.h **** #define SCB_ICSR_ISRPENDING_Msk            (1UL << SCB_ICSR_ISRPENDING_Pos)               /*!< SCB 
 391:C:/Users/Lenovo/workspace/dave_workspace/SOLAR_TOWER/Libraries/CMSIS/Include\core_cm0.h **** 
 392:C:/Users/Lenovo/workspace/dave_workspace/SOLAR_TOWER/Libraries/CMSIS/Include\core_cm0.h **** #define SCB_ICSR_VECTPENDING_Pos           12U                                            /*!< SCB 
 393:C:/Users/Lenovo/workspace/dave_workspace/SOLAR_TOWER/Libraries/CMSIS/Include\core_cm0.h **** #define SCB_ICSR_VECTPENDING_Msk           (0x1FFUL << SCB_ICSR_VECTPENDING_Pos)          /*!< SCB 
 394:C:/Users/Lenovo/workspace/dave_workspace/SOLAR_TOWER/Libraries/CMSIS/Include\core_cm0.h **** 
 395:C:/Users/Lenovo/workspace/dave_workspace/SOLAR_TOWER/Libraries/CMSIS/Include\core_cm0.h **** #define SCB_ICSR_VECTACTIVE_Pos             0U                                            /*!< SCB 
 396:C:/Users/Lenovo/workspace/dave_workspace/SOLAR_TOWER/Libraries/CMSIS/Include\core_cm0.h **** #define SCB_ICSR_VECTACTIVE_Msk            (0x1FFUL /*<< SCB_ICSR_VECTACTIVE_Pos*/)       /*!< SCB 
 397:C:/Users/Lenovo/workspace/dave_workspace/SOLAR_TOWER/Libraries/CMSIS/Include\core_cm0.h **** 
 398:C:/Users/Lenovo/workspace/dave_workspace/SOLAR_TOWER/Libraries/CMSIS/Include\core_cm0.h **** /* SCB Application Interrupt and Reset Control Register Definitions */
 399:C:/Users/Lenovo/workspace/dave_workspace/SOLAR_TOWER/Libraries/CMSIS/Include\core_cm0.h **** #define SCB_AIRCR_VECTKEY_Pos              16U                                            /*!< SCB 
 400:C:/Users/Lenovo/workspace/dave_workspace/SOLAR_TOWER/Libraries/CMSIS/Include\core_cm0.h **** #define SCB_AIRCR_VECTKEY_Msk              (0xFFFFUL << SCB_AIRCR_VECTKEY_Pos)            /*!< SCB 
 401:C:/Users/Lenovo/workspace/dave_workspace/SOLAR_TOWER/Libraries/CMSIS/Include\core_cm0.h **** 
 402:C:/Users/Lenovo/workspace/dave_workspace/SOLAR_TOWER/Libraries/CMSIS/Include\core_cm0.h **** #define SCB_AIRCR_VECTKEYSTAT_Pos          16U                                            /*!< SCB 
 403:C:/Users/Lenovo/workspace/dave_workspace/SOLAR_TOWER/Libraries/CMSIS/Include\core_cm0.h **** #define SCB_AIRCR_VECTKEYSTAT_Msk          (0xFFFFUL << SCB_AIRCR_VECTKEYSTAT_Pos)        /*!< SCB 
 404:C:/Users/Lenovo/workspace/dave_workspace/SOLAR_TOWER/Libraries/CMSIS/Include\core_cm0.h **** 
 405:C:/Users/Lenovo/workspace/dave_workspace/SOLAR_TOWER/Libraries/CMSIS/Include\core_cm0.h **** #define SCB_AIRCR_ENDIANESS_Pos            15U                                            /*!< SCB 
 406:C:/Users/Lenovo/workspace/dave_workspace/SOLAR_TOWER/Libraries/CMSIS/Include\core_cm0.h **** #define SCB_AIRCR_ENDIANESS_Msk            (1UL << SCB_AIRCR_ENDIANESS_Pos)               /*!< SCB 
 407:C:/Users/Lenovo/workspace/dave_workspace/SOLAR_TOWER/Libraries/CMSIS/Include\core_cm0.h **** 
 408:C:/Users/Lenovo/workspace/dave_workspace/SOLAR_TOWER/Libraries/CMSIS/Include\core_cm0.h **** #define SCB_AIRCR_SYSRESETREQ_Pos           2U                                            /*!< SCB 
 409:C:/Users/Lenovo/workspace/dave_workspace/SOLAR_TOWER/Libraries/CMSIS/Include\core_cm0.h **** #define SCB_AIRCR_SYSRESETREQ_Msk          (1UL << SCB_AIRCR_SYSRESETREQ_Pos)             /*!< SCB 
 410:C:/Users/Lenovo/workspace/dave_workspace/SOLAR_TOWER/Libraries/CMSIS/Include\core_cm0.h **** 
 411:C:/Users/Lenovo/workspace/dave_workspace/SOLAR_TOWER/Libraries/CMSIS/Include\core_cm0.h **** #define SCB_AIRCR_VECTCLRACTIVE_Pos         1U                                            /*!< SCB 
 412:C:/Users/Lenovo/workspace/dave_workspace/SOLAR_TOWER/Libraries/CMSIS/Include\core_cm0.h **** #define SCB_AIRCR_VECTCLRACTIVE_Msk        (1UL << SCB_AIRCR_VECTCLRACTIVE_Pos)           /*!< SCB 
 413:C:/Users/Lenovo/workspace/dave_workspace/SOLAR_TOWER/Libraries/CMSIS/Include\core_cm0.h **** 
 414:C:/Users/Lenovo/workspace/dave_workspace/SOLAR_TOWER/Libraries/CMSIS/Include\core_cm0.h **** /* SCB System Control Register Definitions */
 415:C:/Users/Lenovo/workspace/dave_workspace/SOLAR_TOWER/Libraries/CMSIS/Include\core_cm0.h **** #define SCB_SCR_SEVONPEND_Pos               4U                                            /*!< SCB 
 416:C:/Users/Lenovo/workspace/dave_workspace/SOLAR_TOWER/Libraries/CMSIS/Include\core_cm0.h **** #define SCB_SCR_SEVONPEND_Msk              (1UL << SCB_SCR_SEVONPEND_Pos)                 /*!< SCB 
 417:C:/Users/Lenovo/workspace/dave_workspace/SOLAR_TOWER/Libraries/CMSIS/Include\core_cm0.h **** 
 418:C:/Users/Lenovo/workspace/dave_workspace/SOLAR_TOWER/Libraries/CMSIS/Include\core_cm0.h **** #define SCB_SCR_SLEEPDEEP_Pos               2U                                            /*!< SCB 
 419:C:/Users/Lenovo/workspace/dave_workspace/SOLAR_TOWER/Libraries/CMSIS/Include\core_cm0.h **** #define SCB_SCR_SLEEPDEEP_Msk              (1UL << SCB_SCR_SLEEPDEEP_Pos)                 /*!< SCB 
 420:C:/Users/Lenovo/workspace/dave_workspace/SOLAR_TOWER/Libraries/CMSIS/Include\core_cm0.h **** 
 421:C:/Users/Lenovo/workspace/dave_workspace/SOLAR_TOWER/Libraries/CMSIS/Include\core_cm0.h **** #define SCB_SCR_SLEEPONEXIT_Pos             1U                                            /*!< SCB 
 422:C:/Users/Lenovo/workspace/dave_workspace/SOLAR_TOWER/Libraries/CMSIS/Include\core_cm0.h **** #define SCB_SCR_SLEEPONEXIT_Msk            (1UL << SCB_SCR_SLEEPONEXIT_Pos)               /*!< SCB 
 423:C:/Users/Lenovo/workspace/dave_workspace/SOLAR_TOWER/Libraries/CMSIS/Include\core_cm0.h **** 
 424:C:/Users/Lenovo/workspace/dave_workspace/SOLAR_TOWER/Libraries/CMSIS/Include\core_cm0.h **** /* SCB Configuration Control Register Definitions */
 425:C:/Users/Lenovo/workspace/dave_workspace/SOLAR_TOWER/Libraries/CMSIS/Include\core_cm0.h **** #define SCB_CCR_STKALIGN_Pos                9U                                            /*!< SCB 
 426:C:/Users/Lenovo/workspace/dave_workspace/SOLAR_TOWER/Libraries/CMSIS/Include\core_cm0.h **** #define SCB_CCR_STKALIGN_Msk               (1UL << SCB_CCR_STKALIGN_Pos)                  /*!< SCB 
 427:C:/Users/Lenovo/workspace/dave_workspace/SOLAR_TOWER/Libraries/CMSIS/Include\core_cm0.h **** 
 428:C:/Users/Lenovo/workspace/dave_workspace/SOLAR_TOWER/Libraries/CMSIS/Include\core_cm0.h **** #define SCB_CCR_UNALIGN_TRP_Pos             3U                                            /*!< SCB 
 429:C:/Users/Lenovo/workspace/dave_workspace/SOLAR_TOWER/Libraries/CMSIS/Include\core_cm0.h **** #define SCB_CCR_UNALIGN_TRP_Msk            (1UL << SCB_CCR_UNALIGN_TRP_Pos)               /*!< SCB 
 430:C:/Users/Lenovo/workspace/dave_workspace/SOLAR_TOWER/Libraries/CMSIS/Include\core_cm0.h **** 
 431:C:/Users/Lenovo/workspace/dave_workspace/SOLAR_TOWER/Libraries/CMSIS/Include\core_cm0.h **** /* SCB System Handler Control and State Register Definitions */
 432:C:/Users/Lenovo/workspace/dave_workspace/SOLAR_TOWER/Libraries/CMSIS/Include\core_cm0.h **** #define SCB_SHCSR_SVCALLPENDED_Pos         15U                                            /*!< SCB 
 433:C:/Users/Lenovo/workspace/dave_workspace/SOLAR_TOWER/Libraries/CMSIS/Include\core_cm0.h **** #define SCB_SHCSR_SVCALLPENDED_Msk         (1UL << SCB_SHCSR_SVCALLPENDED_Pos)            /*!< SCB 
 434:C:/Users/Lenovo/workspace/dave_workspace/SOLAR_TOWER/Libraries/CMSIS/Include\core_cm0.h **** 
 435:C:/Users/Lenovo/workspace/dave_workspace/SOLAR_TOWER/Libraries/CMSIS/Include\core_cm0.h **** /*@} end of group CMSIS_SCB */
 436:C:/Users/Lenovo/workspace/dave_workspace/SOLAR_TOWER/Libraries/CMSIS/Include\core_cm0.h **** 
 437:C:/Users/Lenovo/workspace/dave_workspace/SOLAR_TOWER/Libraries/CMSIS/Include\core_cm0.h **** 
 438:C:/Users/Lenovo/workspace/dave_workspace/SOLAR_TOWER/Libraries/CMSIS/Include\core_cm0.h **** /**
 439:C:/Users/Lenovo/workspace/dave_workspace/SOLAR_TOWER/Libraries/CMSIS/Include\core_cm0.h ****   \ingroup  CMSIS_core_register
 440:C:/Users/Lenovo/workspace/dave_workspace/SOLAR_TOWER/Libraries/CMSIS/Include\core_cm0.h ****   \defgroup CMSIS_SysTick     System Tick Timer (SysTick)
 441:C:/Users/Lenovo/workspace/dave_workspace/SOLAR_TOWER/Libraries/CMSIS/Include\core_cm0.h ****   \brief    Type definitions for the System Timer Registers.
 442:C:/Users/Lenovo/workspace/dave_workspace/SOLAR_TOWER/Libraries/CMSIS/Include\core_cm0.h ****   @{
 443:C:/Users/Lenovo/workspace/dave_workspace/SOLAR_TOWER/Libraries/CMSIS/Include\core_cm0.h ****  */
 444:C:/Users/Lenovo/workspace/dave_workspace/SOLAR_TOWER/Libraries/CMSIS/Include\core_cm0.h **** 
 445:C:/Users/Lenovo/workspace/dave_workspace/SOLAR_TOWER/Libraries/CMSIS/Include\core_cm0.h **** /**
 446:C:/Users/Lenovo/workspace/dave_workspace/SOLAR_TOWER/Libraries/CMSIS/Include\core_cm0.h ****   \brief  Structure type to access the System Timer (SysTick).
 447:C:/Users/Lenovo/workspace/dave_workspace/SOLAR_TOWER/Libraries/CMSIS/Include\core_cm0.h ****  */
 448:C:/Users/Lenovo/workspace/dave_workspace/SOLAR_TOWER/Libraries/CMSIS/Include\core_cm0.h **** typedef struct
 449:C:/Users/Lenovo/workspace/dave_workspace/SOLAR_TOWER/Libraries/CMSIS/Include\core_cm0.h **** {
 450:C:/Users/Lenovo/workspace/dave_workspace/SOLAR_TOWER/Libraries/CMSIS/Include\core_cm0.h ****   __IOM uint32_t CTRL;                   /*!< Offset: 0x000 (R/W)  SysTick Control and Status Regis
 451:C:/Users/Lenovo/workspace/dave_workspace/SOLAR_TOWER/Libraries/CMSIS/Include\core_cm0.h ****   __IOM uint32_t LOAD;                   /*!< Offset: 0x004 (R/W)  SysTick Reload Value Register */
 452:C:/Users/Lenovo/workspace/dave_workspace/SOLAR_TOWER/Libraries/CMSIS/Include\core_cm0.h ****   __IOM uint32_t VAL;                    /*!< Offset: 0x008 (R/W)  SysTick Current Value Register *
 453:C:/Users/Lenovo/workspace/dave_workspace/SOLAR_TOWER/Libraries/CMSIS/Include\core_cm0.h ****   __IM  uint32_t CALIB;                  /*!< Offset: 0x00C (R/ )  SysTick Calibration Register */
 454:C:/Users/Lenovo/workspace/dave_workspace/SOLAR_TOWER/Libraries/CMSIS/Include\core_cm0.h **** } SysTick_Type;
 455:C:/Users/Lenovo/workspace/dave_workspace/SOLAR_TOWER/Libraries/CMSIS/Include\core_cm0.h **** 
 456:C:/Users/Lenovo/workspace/dave_workspace/SOLAR_TOWER/Libraries/CMSIS/Include\core_cm0.h **** /* SysTick Control / Status Register Definitions */
 457:C:/Users/Lenovo/workspace/dave_workspace/SOLAR_TOWER/Libraries/CMSIS/Include\core_cm0.h **** #define SysTick_CTRL_COUNTFLAG_Pos         16U                                            /*!< SysT
 458:C:/Users/Lenovo/workspace/dave_workspace/SOLAR_TOWER/Libraries/CMSIS/Include\core_cm0.h **** #define SysTick_CTRL_COUNTFLAG_Msk         (1UL << SysTick_CTRL_COUNTFLAG_Pos)            /*!< SysT
 459:C:/Users/Lenovo/workspace/dave_workspace/SOLAR_TOWER/Libraries/CMSIS/Include\core_cm0.h **** 
 460:C:/Users/Lenovo/workspace/dave_workspace/SOLAR_TOWER/Libraries/CMSIS/Include\core_cm0.h **** #define SysTick_CTRL_CLKSOURCE_Pos          2U                                            /*!< SysT
 461:C:/Users/Lenovo/workspace/dave_workspace/SOLAR_TOWER/Libraries/CMSIS/Include\core_cm0.h **** #define SysTick_CTRL_CLKSOURCE_Msk         (1UL << SysTick_CTRL_CLKSOURCE_Pos)            /*!< SysT
 462:C:/Users/Lenovo/workspace/dave_workspace/SOLAR_TOWER/Libraries/CMSIS/Include\core_cm0.h **** 
 463:C:/Users/Lenovo/workspace/dave_workspace/SOLAR_TOWER/Libraries/CMSIS/Include\core_cm0.h **** #define SysTick_CTRL_TICKINT_Pos            1U                                            /*!< SysT
 464:C:/Users/Lenovo/workspace/dave_workspace/SOLAR_TOWER/Libraries/CMSIS/Include\core_cm0.h **** #define SysTick_CTRL_TICKINT_Msk           (1UL << SysTick_CTRL_TICKINT_Pos)              /*!< SysT
 465:C:/Users/Lenovo/workspace/dave_workspace/SOLAR_TOWER/Libraries/CMSIS/Include\core_cm0.h **** 
 466:C:/Users/Lenovo/workspace/dave_workspace/SOLAR_TOWER/Libraries/CMSIS/Include\core_cm0.h **** #define SysTick_CTRL_ENABLE_Pos             0U                                            /*!< SysT
 467:C:/Users/Lenovo/workspace/dave_workspace/SOLAR_TOWER/Libraries/CMSIS/Include\core_cm0.h **** #define SysTick_CTRL_ENABLE_Msk            (1UL /*<< SysTick_CTRL_ENABLE_Pos*/)           /*!< SysT
 468:C:/Users/Lenovo/workspace/dave_workspace/SOLAR_TOWER/Libraries/CMSIS/Include\core_cm0.h **** 
 469:C:/Users/Lenovo/workspace/dave_workspace/SOLAR_TOWER/Libraries/CMSIS/Include\core_cm0.h **** /* SysTick Reload Register Definitions */
 470:C:/Users/Lenovo/workspace/dave_workspace/SOLAR_TOWER/Libraries/CMSIS/Include\core_cm0.h **** #define SysTick_LOAD_RELOAD_Pos             0U                                            /*!< SysT
 471:C:/Users/Lenovo/workspace/dave_workspace/SOLAR_TOWER/Libraries/CMSIS/Include\core_cm0.h **** #define SysTick_LOAD_RELOAD_Msk            (0xFFFFFFUL /*<< SysTick_LOAD_RELOAD_Pos*/)    /*!< SysT
 472:C:/Users/Lenovo/workspace/dave_workspace/SOLAR_TOWER/Libraries/CMSIS/Include\core_cm0.h **** 
 473:C:/Users/Lenovo/workspace/dave_workspace/SOLAR_TOWER/Libraries/CMSIS/Include\core_cm0.h **** /* SysTick Current Register Definitions */
 474:C:/Users/Lenovo/workspace/dave_workspace/SOLAR_TOWER/Libraries/CMSIS/Include\core_cm0.h **** #define SysTick_VAL_CURRENT_Pos             0U                                            /*!< SysT
 475:C:/Users/Lenovo/workspace/dave_workspace/SOLAR_TOWER/Libraries/CMSIS/Include\core_cm0.h **** #define SysTick_VAL_CURRENT_Msk            (0xFFFFFFUL /*<< SysTick_VAL_CURRENT_Pos*/)    /*!< SysT
 476:C:/Users/Lenovo/workspace/dave_workspace/SOLAR_TOWER/Libraries/CMSIS/Include\core_cm0.h **** 
 477:C:/Users/Lenovo/workspace/dave_workspace/SOLAR_TOWER/Libraries/CMSIS/Include\core_cm0.h **** /* SysTick Calibration Register Definitions */
 478:C:/Users/Lenovo/workspace/dave_workspace/SOLAR_TOWER/Libraries/CMSIS/Include\core_cm0.h **** #define SysTick_CALIB_NOREF_Pos            31U                                            /*!< SysT
 479:C:/Users/Lenovo/workspace/dave_workspace/SOLAR_TOWER/Libraries/CMSIS/Include\core_cm0.h **** #define SysTick_CALIB_NOREF_Msk            (1UL << SysTick_CALIB_NOREF_Pos)               /*!< SysT
 480:C:/Users/Lenovo/workspace/dave_workspace/SOLAR_TOWER/Libraries/CMSIS/Include\core_cm0.h **** 
 481:C:/Users/Lenovo/workspace/dave_workspace/SOLAR_TOWER/Libraries/CMSIS/Include\core_cm0.h **** #define SysTick_CALIB_SKEW_Pos             30U                                            /*!< SysT
 482:C:/Users/Lenovo/workspace/dave_workspace/SOLAR_TOWER/Libraries/CMSIS/Include\core_cm0.h **** #define SysTick_CALIB_SKEW_Msk             (1UL << SysTick_CALIB_SKEW_Pos)                /*!< SysT
 483:C:/Users/Lenovo/workspace/dave_workspace/SOLAR_TOWER/Libraries/CMSIS/Include\core_cm0.h **** 
 484:C:/Users/Lenovo/workspace/dave_workspace/SOLAR_TOWER/Libraries/CMSIS/Include\core_cm0.h **** #define SysTick_CALIB_TENMS_Pos             0U                                            /*!< SysT
 485:C:/Users/Lenovo/workspace/dave_workspace/SOLAR_TOWER/Libraries/CMSIS/Include\core_cm0.h **** #define SysTick_CALIB_TENMS_Msk            (0xFFFFFFUL /*<< SysTick_CALIB_TENMS_Pos*/)    /*!< SysT
 486:C:/Users/Lenovo/workspace/dave_workspace/SOLAR_TOWER/Libraries/CMSIS/Include\core_cm0.h **** 
 487:C:/Users/Lenovo/workspace/dave_workspace/SOLAR_TOWER/Libraries/CMSIS/Include\core_cm0.h **** /*@} end of group CMSIS_SysTick */
 488:C:/Users/Lenovo/workspace/dave_workspace/SOLAR_TOWER/Libraries/CMSIS/Include\core_cm0.h **** 
 489:C:/Users/Lenovo/workspace/dave_workspace/SOLAR_TOWER/Libraries/CMSIS/Include\core_cm0.h **** 
 490:C:/Users/Lenovo/workspace/dave_workspace/SOLAR_TOWER/Libraries/CMSIS/Include\core_cm0.h **** /**
 491:C:/Users/Lenovo/workspace/dave_workspace/SOLAR_TOWER/Libraries/CMSIS/Include\core_cm0.h ****   \ingroup  CMSIS_core_register
 492:C:/Users/Lenovo/workspace/dave_workspace/SOLAR_TOWER/Libraries/CMSIS/Include\core_cm0.h ****   \defgroup CMSIS_CoreDebug       Core Debug Registers (CoreDebug)
 493:C:/Users/Lenovo/workspace/dave_workspace/SOLAR_TOWER/Libraries/CMSIS/Include\core_cm0.h ****   \brief    Cortex-M0 Core Debug Registers (DCB registers, SHCSR, and DFSR) are only accessible ove
 494:C:/Users/Lenovo/workspace/dave_workspace/SOLAR_TOWER/Libraries/CMSIS/Include\core_cm0.h ****             Therefore they are not covered by the Cortex-M0 header file.
 495:C:/Users/Lenovo/workspace/dave_workspace/SOLAR_TOWER/Libraries/CMSIS/Include\core_cm0.h ****   @{
 496:C:/Users/Lenovo/workspace/dave_workspace/SOLAR_TOWER/Libraries/CMSIS/Include\core_cm0.h ****  */
 497:C:/Users/Lenovo/workspace/dave_workspace/SOLAR_TOWER/Libraries/CMSIS/Include\core_cm0.h **** /*@} end of group CMSIS_CoreDebug */
 498:C:/Users/Lenovo/workspace/dave_workspace/SOLAR_TOWER/Libraries/CMSIS/Include\core_cm0.h **** 
 499:C:/Users/Lenovo/workspace/dave_workspace/SOLAR_TOWER/Libraries/CMSIS/Include\core_cm0.h **** 
 500:C:/Users/Lenovo/workspace/dave_workspace/SOLAR_TOWER/Libraries/CMSIS/Include\core_cm0.h **** /**
 501:C:/Users/Lenovo/workspace/dave_workspace/SOLAR_TOWER/Libraries/CMSIS/Include\core_cm0.h ****   \ingroup    CMSIS_core_register
 502:C:/Users/Lenovo/workspace/dave_workspace/SOLAR_TOWER/Libraries/CMSIS/Include\core_cm0.h ****   \defgroup   CMSIS_core_bitfield     Core register bit field macros
 503:C:/Users/Lenovo/workspace/dave_workspace/SOLAR_TOWER/Libraries/CMSIS/Include\core_cm0.h ****   \brief      Macros for use with bit field definitions (xxx_Pos, xxx_Msk).
 504:C:/Users/Lenovo/workspace/dave_workspace/SOLAR_TOWER/Libraries/CMSIS/Include\core_cm0.h ****   @{
 505:C:/Users/Lenovo/workspace/dave_workspace/SOLAR_TOWER/Libraries/CMSIS/Include\core_cm0.h ****  */
 506:C:/Users/Lenovo/workspace/dave_workspace/SOLAR_TOWER/Libraries/CMSIS/Include\core_cm0.h **** 
 507:C:/Users/Lenovo/workspace/dave_workspace/SOLAR_TOWER/Libraries/CMSIS/Include\core_cm0.h **** /**
 508:C:/Users/Lenovo/workspace/dave_workspace/SOLAR_TOWER/Libraries/CMSIS/Include\core_cm0.h ****   \brief   Mask and shift a bit field value for use in a register bit range.
 509:C:/Users/Lenovo/workspace/dave_workspace/SOLAR_TOWER/Libraries/CMSIS/Include\core_cm0.h ****   \param[in] field  Name of the register bit field.
 510:C:/Users/Lenovo/workspace/dave_workspace/SOLAR_TOWER/Libraries/CMSIS/Include\core_cm0.h ****   \param[in] value  Value of the bit field. This parameter is interpreted as an uint32_t type.
 511:C:/Users/Lenovo/workspace/dave_workspace/SOLAR_TOWER/Libraries/CMSIS/Include\core_cm0.h ****   \return           Masked and shifted value.
 512:C:/Users/Lenovo/workspace/dave_workspace/SOLAR_TOWER/Libraries/CMSIS/Include\core_cm0.h **** */
 513:C:/Users/Lenovo/workspace/dave_workspace/SOLAR_TOWER/Libraries/CMSIS/Include\core_cm0.h **** #define _VAL2FLD(field, value)    (((uint32_t)(value) << field ## _Pos) & field ## _Msk)
 514:C:/Users/Lenovo/workspace/dave_workspace/SOLAR_TOWER/Libraries/CMSIS/Include\core_cm0.h **** 
 515:C:/Users/Lenovo/workspace/dave_workspace/SOLAR_TOWER/Libraries/CMSIS/Include\core_cm0.h **** /**
 516:C:/Users/Lenovo/workspace/dave_workspace/SOLAR_TOWER/Libraries/CMSIS/Include\core_cm0.h ****   \brief     Mask and shift a register value to extract a bit filed value.
 517:C:/Users/Lenovo/workspace/dave_workspace/SOLAR_TOWER/Libraries/CMSIS/Include\core_cm0.h ****   \param[in] field  Name of the register bit field.
 518:C:/Users/Lenovo/workspace/dave_workspace/SOLAR_TOWER/Libraries/CMSIS/Include\core_cm0.h ****   \param[in] value  Value of register. This parameter is interpreted as an uint32_t type.
 519:C:/Users/Lenovo/workspace/dave_workspace/SOLAR_TOWER/Libraries/CMSIS/Include\core_cm0.h ****   \return           Masked and shifted bit field value.
 520:C:/Users/Lenovo/workspace/dave_workspace/SOLAR_TOWER/Libraries/CMSIS/Include\core_cm0.h **** */
 521:C:/Users/Lenovo/workspace/dave_workspace/SOLAR_TOWER/Libraries/CMSIS/Include\core_cm0.h **** #define _FLD2VAL(field, value)    (((uint32_t)(value) & field ## _Msk) >> field ## _Pos)
 522:C:/Users/Lenovo/workspace/dave_workspace/SOLAR_TOWER/Libraries/CMSIS/Include\core_cm0.h **** 
 523:C:/Users/Lenovo/workspace/dave_workspace/SOLAR_TOWER/Libraries/CMSIS/Include\core_cm0.h **** /*@} end of group CMSIS_core_bitfield */
 524:C:/Users/Lenovo/workspace/dave_workspace/SOLAR_TOWER/Libraries/CMSIS/Include\core_cm0.h **** 
 525:C:/Users/Lenovo/workspace/dave_workspace/SOLAR_TOWER/Libraries/CMSIS/Include\core_cm0.h **** 
 526:C:/Users/Lenovo/workspace/dave_workspace/SOLAR_TOWER/Libraries/CMSIS/Include\core_cm0.h **** /**
 527:C:/Users/Lenovo/workspace/dave_workspace/SOLAR_TOWER/Libraries/CMSIS/Include\core_cm0.h ****   \ingroup    CMSIS_core_register
 528:C:/Users/Lenovo/workspace/dave_workspace/SOLAR_TOWER/Libraries/CMSIS/Include\core_cm0.h ****   \defgroup   CMSIS_core_base     Core Definitions
 529:C:/Users/Lenovo/workspace/dave_workspace/SOLAR_TOWER/Libraries/CMSIS/Include\core_cm0.h ****   \brief      Definitions for base addresses, unions, and structures.
 530:C:/Users/Lenovo/workspace/dave_workspace/SOLAR_TOWER/Libraries/CMSIS/Include\core_cm0.h ****   @{
 531:C:/Users/Lenovo/workspace/dave_workspace/SOLAR_TOWER/Libraries/CMSIS/Include\core_cm0.h ****  */
 532:C:/Users/Lenovo/workspace/dave_workspace/SOLAR_TOWER/Libraries/CMSIS/Include\core_cm0.h **** 
 533:C:/Users/Lenovo/workspace/dave_workspace/SOLAR_TOWER/Libraries/CMSIS/Include\core_cm0.h **** /* Memory mapping of Core Hardware */
 534:C:/Users/Lenovo/workspace/dave_workspace/SOLAR_TOWER/Libraries/CMSIS/Include\core_cm0.h **** #define SCS_BASE            (0xE000E000UL)                            /*!< System Control Space Bas
 535:C:/Users/Lenovo/workspace/dave_workspace/SOLAR_TOWER/Libraries/CMSIS/Include\core_cm0.h **** #define SysTick_BASE        (SCS_BASE +  0x0010UL)                    /*!< SysTick Base Address */
 536:C:/Users/Lenovo/workspace/dave_workspace/SOLAR_TOWER/Libraries/CMSIS/Include\core_cm0.h **** #define NVIC_BASE           (SCS_BASE +  0x0100UL)                    /*!< NVIC Base Address */
 537:C:/Users/Lenovo/workspace/dave_workspace/SOLAR_TOWER/Libraries/CMSIS/Include\core_cm0.h **** #define SCB_BASE            (SCS_BASE +  0x0D00UL)                    /*!< System Control Block Bas
 538:C:/Users/Lenovo/workspace/dave_workspace/SOLAR_TOWER/Libraries/CMSIS/Include\core_cm0.h **** 
 539:C:/Users/Lenovo/workspace/dave_workspace/SOLAR_TOWER/Libraries/CMSIS/Include\core_cm0.h **** #define SCB                 ((SCB_Type       *)     SCB_BASE      )   /*!< SCB configuration struct
 540:C:/Users/Lenovo/workspace/dave_workspace/SOLAR_TOWER/Libraries/CMSIS/Include\core_cm0.h **** #define SysTick             ((SysTick_Type   *)     SysTick_BASE  )   /*!< SysTick configuration st
 541:C:/Users/Lenovo/workspace/dave_workspace/SOLAR_TOWER/Libraries/CMSIS/Include\core_cm0.h **** #define NVIC                ((NVIC_Type      *)     NVIC_BASE     )   /*!< NVIC configuration struc
 542:C:/Users/Lenovo/workspace/dave_workspace/SOLAR_TOWER/Libraries/CMSIS/Include\core_cm0.h **** 
 543:C:/Users/Lenovo/workspace/dave_workspace/SOLAR_TOWER/Libraries/CMSIS/Include\core_cm0.h **** 
 544:C:/Users/Lenovo/workspace/dave_workspace/SOLAR_TOWER/Libraries/CMSIS/Include\core_cm0.h **** /*@} */
 545:C:/Users/Lenovo/workspace/dave_workspace/SOLAR_TOWER/Libraries/CMSIS/Include\core_cm0.h **** 
 546:C:/Users/Lenovo/workspace/dave_workspace/SOLAR_TOWER/Libraries/CMSIS/Include\core_cm0.h **** 
 547:C:/Users/Lenovo/workspace/dave_workspace/SOLAR_TOWER/Libraries/CMSIS/Include\core_cm0.h **** 
 548:C:/Users/Lenovo/workspace/dave_workspace/SOLAR_TOWER/Libraries/CMSIS/Include\core_cm0.h **** /*******************************************************************************
 549:C:/Users/Lenovo/workspace/dave_workspace/SOLAR_TOWER/Libraries/CMSIS/Include\core_cm0.h ****  *                Hardware Abstraction Layer
 550:C:/Users/Lenovo/workspace/dave_workspace/SOLAR_TOWER/Libraries/CMSIS/Include\core_cm0.h ****   Core Function Interface contains:
 551:C:/Users/Lenovo/workspace/dave_workspace/SOLAR_TOWER/Libraries/CMSIS/Include\core_cm0.h ****   - Core NVIC Functions
 552:C:/Users/Lenovo/workspace/dave_workspace/SOLAR_TOWER/Libraries/CMSIS/Include\core_cm0.h ****   - Core SysTick Functions
 553:C:/Users/Lenovo/workspace/dave_workspace/SOLAR_TOWER/Libraries/CMSIS/Include\core_cm0.h ****   - Core Register Access Functions
 554:C:/Users/Lenovo/workspace/dave_workspace/SOLAR_TOWER/Libraries/CMSIS/Include\core_cm0.h ****  ******************************************************************************/
 555:C:/Users/Lenovo/workspace/dave_workspace/SOLAR_TOWER/Libraries/CMSIS/Include\core_cm0.h **** /**
 556:C:/Users/Lenovo/workspace/dave_workspace/SOLAR_TOWER/Libraries/CMSIS/Include\core_cm0.h ****   \defgroup CMSIS_Core_FunctionInterface Functions and Instructions Reference
 557:C:/Users/Lenovo/workspace/dave_workspace/SOLAR_TOWER/Libraries/CMSIS/Include\core_cm0.h **** */
 558:C:/Users/Lenovo/workspace/dave_workspace/SOLAR_TOWER/Libraries/CMSIS/Include\core_cm0.h **** 
 559:C:/Users/Lenovo/workspace/dave_workspace/SOLAR_TOWER/Libraries/CMSIS/Include\core_cm0.h **** 
 560:C:/Users/Lenovo/workspace/dave_workspace/SOLAR_TOWER/Libraries/CMSIS/Include\core_cm0.h **** 
 561:C:/Users/Lenovo/workspace/dave_workspace/SOLAR_TOWER/Libraries/CMSIS/Include\core_cm0.h **** /* ##########################   NVIC functions  #################################### */
 562:C:/Users/Lenovo/workspace/dave_workspace/SOLAR_TOWER/Libraries/CMSIS/Include\core_cm0.h **** /**
 563:C:/Users/Lenovo/workspace/dave_workspace/SOLAR_TOWER/Libraries/CMSIS/Include\core_cm0.h ****   \ingroup  CMSIS_Core_FunctionInterface
 564:C:/Users/Lenovo/workspace/dave_workspace/SOLAR_TOWER/Libraries/CMSIS/Include\core_cm0.h ****   \defgroup CMSIS_Core_NVICFunctions NVIC Functions
 565:C:/Users/Lenovo/workspace/dave_workspace/SOLAR_TOWER/Libraries/CMSIS/Include\core_cm0.h ****   \brief    Functions that manage interrupts and exceptions via the NVIC.
 566:C:/Users/Lenovo/workspace/dave_workspace/SOLAR_TOWER/Libraries/CMSIS/Include\core_cm0.h ****   @{
 567:C:/Users/Lenovo/workspace/dave_workspace/SOLAR_TOWER/Libraries/CMSIS/Include\core_cm0.h ****  */
 568:C:/Users/Lenovo/workspace/dave_workspace/SOLAR_TOWER/Libraries/CMSIS/Include\core_cm0.h **** 
 569:C:/Users/Lenovo/workspace/dave_workspace/SOLAR_TOWER/Libraries/CMSIS/Include\core_cm0.h **** #ifdef CMSIS_NVIC_VIRTUAL
 570:C:/Users/Lenovo/workspace/dave_workspace/SOLAR_TOWER/Libraries/CMSIS/Include\core_cm0.h ****   #ifndef CMSIS_NVIC_VIRTUAL_HEADER_FILE
 571:C:/Users/Lenovo/workspace/dave_workspace/SOLAR_TOWER/Libraries/CMSIS/Include\core_cm0.h ****     #define CMSIS_NVIC_VIRTUAL_HEADER_FILE "cmsis_nvic_virtual.h"
 572:C:/Users/Lenovo/workspace/dave_workspace/SOLAR_TOWER/Libraries/CMSIS/Include\core_cm0.h ****   #endif
 573:C:/Users/Lenovo/workspace/dave_workspace/SOLAR_TOWER/Libraries/CMSIS/Include\core_cm0.h ****   #include CMSIS_NVIC_VIRTUAL_HEADER_FILE
 574:C:/Users/Lenovo/workspace/dave_workspace/SOLAR_TOWER/Libraries/CMSIS/Include\core_cm0.h **** #else
 575:C:/Users/Lenovo/workspace/dave_workspace/SOLAR_TOWER/Libraries/CMSIS/Include\core_cm0.h **** /*#define NVIC_SetPriorityGrouping    __NVIC_SetPriorityGrouping   not available for Cortex-M0 */
 576:C:/Users/Lenovo/workspace/dave_workspace/SOLAR_TOWER/Libraries/CMSIS/Include\core_cm0.h **** /*#define NVIC_GetPriorityGrouping    __NVIC_GetPriorityGrouping   not available for Cortex-M0 */
 577:C:/Users/Lenovo/workspace/dave_workspace/SOLAR_TOWER/Libraries/CMSIS/Include\core_cm0.h ****   #define NVIC_EnableIRQ              __NVIC_EnableIRQ
 578:C:/Users/Lenovo/workspace/dave_workspace/SOLAR_TOWER/Libraries/CMSIS/Include\core_cm0.h ****   #define NVIC_GetEnableIRQ           __NVIC_GetEnableIRQ
 579:C:/Users/Lenovo/workspace/dave_workspace/SOLAR_TOWER/Libraries/CMSIS/Include\core_cm0.h ****   #define NVIC_DisableIRQ             __NVIC_DisableIRQ
 580:C:/Users/Lenovo/workspace/dave_workspace/SOLAR_TOWER/Libraries/CMSIS/Include\core_cm0.h ****   #define NVIC_GetPendingIRQ          __NVIC_GetPendingIRQ
 581:C:/Users/Lenovo/workspace/dave_workspace/SOLAR_TOWER/Libraries/CMSIS/Include\core_cm0.h ****   #define NVIC_SetPendingIRQ          __NVIC_SetPendingIRQ
 582:C:/Users/Lenovo/workspace/dave_workspace/SOLAR_TOWER/Libraries/CMSIS/Include\core_cm0.h ****   #define NVIC_ClearPendingIRQ        __NVIC_ClearPendingIRQ
 583:C:/Users/Lenovo/workspace/dave_workspace/SOLAR_TOWER/Libraries/CMSIS/Include\core_cm0.h **** /*#define NVIC_GetActive              __NVIC_GetActive             not available for Cortex-M0 */
 584:C:/Users/Lenovo/workspace/dave_workspace/SOLAR_TOWER/Libraries/CMSIS/Include\core_cm0.h ****   #define NVIC_SetPriority            __NVIC_SetPriority
 585:C:/Users/Lenovo/workspace/dave_workspace/SOLAR_TOWER/Libraries/CMSIS/Include\core_cm0.h ****   #define NVIC_GetPriority            __NVIC_GetPriority
 586:C:/Users/Lenovo/workspace/dave_workspace/SOLAR_TOWER/Libraries/CMSIS/Include\core_cm0.h ****   #define NVIC_SystemReset            __NVIC_SystemReset
 587:C:/Users/Lenovo/workspace/dave_workspace/SOLAR_TOWER/Libraries/CMSIS/Include\core_cm0.h **** #endif /* CMSIS_NVIC_VIRTUAL */
 588:C:/Users/Lenovo/workspace/dave_workspace/SOLAR_TOWER/Libraries/CMSIS/Include\core_cm0.h **** 
 589:C:/Users/Lenovo/workspace/dave_workspace/SOLAR_TOWER/Libraries/CMSIS/Include\core_cm0.h **** #ifdef CMSIS_VECTAB_VIRTUAL
 590:C:/Users/Lenovo/workspace/dave_workspace/SOLAR_TOWER/Libraries/CMSIS/Include\core_cm0.h ****   #ifndef CMSIS_VECTAB_VIRTUAL_HEADER_FILE
 591:C:/Users/Lenovo/workspace/dave_workspace/SOLAR_TOWER/Libraries/CMSIS/Include\core_cm0.h ****     #define CMSIS_VECTAB_VIRTUAL_HEADER_FILE "cmsis_vectab_virtual.h"
 592:C:/Users/Lenovo/workspace/dave_workspace/SOLAR_TOWER/Libraries/CMSIS/Include\core_cm0.h ****   #endif
 593:C:/Users/Lenovo/workspace/dave_workspace/SOLAR_TOWER/Libraries/CMSIS/Include\core_cm0.h ****   #include CMSIS_VECTAB_VIRTUAL_HEADER_FILE
 594:C:/Users/Lenovo/workspace/dave_workspace/SOLAR_TOWER/Libraries/CMSIS/Include\core_cm0.h **** #else
 595:C:/Users/Lenovo/workspace/dave_workspace/SOLAR_TOWER/Libraries/CMSIS/Include\core_cm0.h ****   #define NVIC_SetVector              __NVIC_SetVector
 596:C:/Users/Lenovo/workspace/dave_workspace/SOLAR_TOWER/Libraries/CMSIS/Include\core_cm0.h ****   #define NVIC_GetVector              __NVIC_GetVector
 597:C:/Users/Lenovo/workspace/dave_workspace/SOLAR_TOWER/Libraries/CMSIS/Include\core_cm0.h **** #endif  /* (CMSIS_VECTAB_VIRTUAL) */
 598:C:/Users/Lenovo/workspace/dave_workspace/SOLAR_TOWER/Libraries/CMSIS/Include\core_cm0.h **** 
 599:C:/Users/Lenovo/workspace/dave_workspace/SOLAR_TOWER/Libraries/CMSIS/Include\core_cm0.h **** #define NVIC_USER_IRQ_OFFSET          16
 600:C:/Users/Lenovo/workspace/dave_workspace/SOLAR_TOWER/Libraries/CMSIS/Include\core_cm0.h **** 
 601:C:/Users/Lenovo/workspace/dave_workspace/SOLAR_TOWER/Libraries/CMSIS/Include\core_cm0.h **** 
 602:C:/Users/Lenovo/workspace/dave_workspace/SOLAR_TOWER/Libraries/CMSIS/Include\core_cm0.h **** /* Interrupt Priorities are WORD accessible only under ARMv6M                   */
 603:C:/Users/Lenovo/workspace/dave_workspace/SOLAR_TOWER/Libraries/CMSIS/Include\core_cm0.h **** /* The following MACROS handle generation of the register offset and byte masks */
 604:C:/Users/Lenovo/workspace/dave_workspace/SOLAR_TOWER/Libraries/CMSIS/Include\core_cm0.h **** #define _BIT_SHIFT(IRQn)         (  ((((uint32_t)(int32_t)(IRQn))         )      &  0x03UL) * 8UL)
 605:C:/Users/Lenovo/workspace/dave_workspace/SOLAR_TOWER/Libraries/CMSIS/Include\core_cm0.h **** #define _SHP_IDX(IRQn)           ( (((((uint32_t)(int32_t)(IRQn)) & 0x0FUL)-8UL) >>    2UL)      )
 606:C:/Users/Lenovo/workspace/dave_workspace/SOLAR_TOWER/Libraries/CMSIS/Include\core_cm0.h **** #define _IP_IDX(IRQn)            (   (((uint32_t)(int32_t)(IRQn))                >>    2UL)      )
 607:C:/Users/Lenovo/workspace/dave_workspace/SOLAR_TOWER/Libraries/CMSIS/Include\core_cm0.h **** 
 608:C:/Users/Lenovo/workspace/dave_workspace/SOLAR_TOWER/Libraries/CMSIS/Include\core_cm0.h **** 
 609:C:/Users/Lenovo/workspace/dave_workspace/SOLAR_TOWER/Libraries/CMSIS/Include\core_cm0.h **** /**
 610:C:/Users/Lenovo/workspace/dave_workspace/SOLAR_TOWER/Libraries/CMSIS/Include\core_cm0.h ****   \brief   Enable Interrupt
 611:C:/Users/Lenovo/workspace/dave_workspace/SOLAR_TOWER/Libraries/CMSIS/Include\core_cm0.h ****   \details Enables a device specific interrupt in the NVIC interrupt controller.
 612:C:/Users/Lenovo/workspace/dave_workspace/SOLAR_TOWER/Libraries/CMSIS/Include\core_cm0.h ****   \param [in]      IRQn  Device specific interrupt number.
 613:C:/Users/Lenovo/workspace/dave_workspace/SOLAR_TOWER/Libraries/CMSIS/Include\core_cm0.h ****   \note    IRQn must not be negative.
 614:C:/Users/Lenovo/workspace/dave_workspace/SOLAR_TOWER/Libraries/CMSIS/Include\core_cm0.h ****  */
 615:C:/Users/Lenovo/workspace/dave_workspace/SOLAR_TOWER/Libraries/CMSIS/Include\core_cm0.h **** __STATIC_INLINE void __NVIC_EnableIRQ(IRQn_Type IRQn)
 616:C:/Users/Lenovo/workspace/dave_workspace/SOLAR_TOWER/Libraries/CMSIS/Include\core_cm0.h **** {
  25              	 .loc 1 616 0
  26              	 .cfi_startproc
  27 0000 80B5     	 push {r7,lr}
  28              	.LCFI0:
  29              	 .cfi_def_cfa_offset 8
  30              	 .cfi_offset 7,-8
  31              	 .cfi_offset 14,-4
  32 0002 82B0     	 sub sp,sp,#8
  33              	.LCFI1:
  34              	 .cfi_def_cfa_offset 16
  35 0004 00AF     	 add r7,sp,#0
  36              	.LCFI2:
  37              	 .cfi_def_cfa_register 7
  38 0006 021C     	 mov r2,r0
  39 0008 FB1D     	 add r3,r7,#7
  40 000a 1A70     	 strb r2,[r3]
 617:C:/Users/Lenovo/workspace/dave_workspace/SOLAR_TOWER/Libraries/CMSIS/Include\core_cm0.h ****   if ((int32_t)(IRQn) >= 0)
  41              	 .loc 1 617 0
  42 000c FB1D     	 add r3,r7,#7
  43 000e 1B78     	 ldrb r3,[r3]
  44 0010 7F2B     	 cmp r3,#127
  45 0012 09D8     	 bhi .L1
 618:C:/Users/Lenovo/workspace/dave_workspace/SOLAR_TOWER/Libraries/CMSIS/Include\core_cm0.h ****   {
 619:C:/Users/Lenovo/workspace/dave_workspace/SOLAR_TOWER/Libraries/CMSIS/Include\core_cm0.h ****     NVIC->ISER[0U] = (uint32_t)(1UL << (((uint32_t)(int32_t)IRQn) & 0x1FUL));
  46              	 .loc 1 619 0
  47 0014 064B     	 ldr r3,.L3
  48 0016 FA1D     	 add r2,r7,#7
  49 0018 1278     	 ldrb r2,[r2]
  50 001a 111C     	 mov r1,r2
  51 001c 1F22     	 mov r2,#31
  52 001e 0A40     	 and r2,r1
  53 0020 0121     	 mov r1,#1
  54 0022 9140     	 lsl r1,r1,r2
  55 0024 0A1C     	 mov r2,r1
  56 0026 1A60     	 str r2,[r3]
  57              	.L1:
 620:C:/Users/Lenovo/workspace/dave_workspace/SOLAR_TOWER/Libraries/CMSIS/Include\core_cm0.h ****   }
 621:C:/Users/Lenovo/workspace/dave_workspace/SOLAR_TOWER/Libraries/CMSIS/Include\core_cm0.h **** }
  58              	 .loc 1 621 0
  59 0028 BD46     	 mov sp,r7
  60 002a 02B0     	 add sp,sp,#8
  61              	 
  62 002c 80BD     	 pop {r7,pc}
  63              	.L4:
  64 002e C046     	 .align 2
  65              	.L3:
  66 0030 00E100E0 	 .word -536813312
  67              	 .cfi_endproc
  68              	.LFE23:
  70              	 .section .text.__NVIC_SetPriority,"ax",%progbits
  71              	 .align 2
  72              	 .code 16
  73              	 .thumb_func
  75              	__NVIC_SetPriority:
  76              	.LFB29:
 622:C:/Users/Lenovo/workspace/dave_workspace/SOLAR_TOWER/Libraries/CMSIS/Include\core_cm0.h **** 
 623:C:/Users/Lenovo/workspace/dave_workspace/SOLAR_TOWER/Libraries/CMSIS/Include\core_cm0.h **** 
 624:C:/Users/Lenovo/workspace/dave_workspace/SOLAR_TOWER/Libraries/CMSIS/Include\core_cm0.h **** /**
 625:C:/Users/Lenovo/workspace/dave_workspace/SOLAR_TOWER/Libraries/CMSIS/Include\core_cm0.h ****   \brief   Get Interrupt Enable status
 626:C:/Users/Lenovo/workspace/dave_workspace/SOLAR_TOWER/Libraries/CMSIS/Include\core_cm0.h ****   \details Returns a device specific interrupt enable status from the NVIC interrupt controller.
 627:C:/Users/Lenovo/workspace/dave_workspace/SOLAR_TOWER/Libraries/CMSIS/Include\core_cm0.h ****   \param [in]      IRQn  Device specific interrupt number.
 628:C:/Users/Lenovo/workspace/dave_workspace/SOLAR_TOWER/Libraries/CMSIS/Include\core_cm0.h ****   \return             0  Interrupt is not enabled.
 629:C:/Users/Lenovo/workspace/dave_workspace/SOLAR_TOWER/Libraries/CMSIS/Include\core_cm0.h ****   \return             1  Interrupt is enabled.
 630:C:/Users/Lenovo/workspace/dave_workspace/SOLAR_TOWER/Libraries/CMSIS/Include\core_cm0.h ****   \note    IRQn must not be negative.
 631:C:/Users/Lenovo/workspace/dave_workspace/SOLAR_TOWER/Libraries/CMSIS/Include\core_cm0.h ****  */
 632:C:/Users/Lenovo/workspace/dave_workspace/SOLAR_TOWER/Libraries/CMSIS/Include\core_cm0.h **** __STATIC_INLINE uint32_t __NVIC_GetEnableIRQ(IRQn_Type IRQn)
 633:C:/Users/Lenovo/workspace/dave_workspace/SOLAR_TOWER/Libraries/CMSIS/Include\core_cm0.h **** {
 634:C:/Users/Lenovo/workspace/dave_workspace/SOLAR_TOWER/Libraries/CMSIS/Include\core_cm0.h ****   if ((int32_t)(IRQn) >= 0)
 635:C:/Users/Lenovo/workspace/dave_workspace/SOLAR_TOWER/Libraries/CMSIS/Include\core_cm0.h ****   {
 636:C:/Users/Lenovo/workspace/dave_workspace/SOLAR_TOWER/Libraries/CMSIS/Include\core_cm0.h ****     return((uint32_t)(((NVIC->ISER[0U] & (1UL << (((uint32_t)(int32_t)IRQn) & 0x1FUL))) != 0UL) ? 1
 637:C:/Users/Lenovo/workspace/dave_workspace/SOLAR_TOWER/Libraries/CMSIS/Include\core_cm0.h ****   }
 638:C:/Users/Lenovo/workspace/dave_workspace/SOLAR_TOWER/Libraries/CMSIS/Include\core_cm0.h ****   else
 639:C:/Users/Lenovo/workspace/dave_workspace/SOLAR_TOWER/Libraries/CMSIS/Include\core_cm0.h ****   {
 640:C:/Users/Lenovo/workspace/dave_workspace/SOLAR_TOWER/Libraries/CMSIS/Include\core_cm0.h ****     return(0U);
 641:C:/Users/Lenovo/workspace/dave_workspace/SOLAR_TOWER/Libraries/CMSIS/Include\core_cm0.h ****   }
 642:C:/Users/Lenovo/workspace/dave_workspace/SOLAR_TOWER/Libraries/CMSIS/Include\core_cm0.h **** }
 643:C:/Users/Lenovo/workspace/dave_workspace/SOLAR_TOWER/Libraries/CMSIS/Include\core_cm0.h **** 
 644:C:/Users/Lenovo/workspace/dave_workspace/SOLAR_TOWER/Libraries/CMSIS/Include\core_cm0.h **** 
 645:C:/Users/Lenovo/workspace/dave_workspace/SOLAR_TOWER/Libraries/CMSIS/Include\core_cm0.h **** /**
 646:C:/Users/Lenovo/workspace/dave_workspace/SOLAR_TOWER/Libraries/CMSIS/Include\core_cm0.h ****   \brief   Disable Interrupt
 647:C:/Users/Lenovo/workspace/dave_workspace/SOLAR_TOWER/Libraries/CMSIS/Include\core_cm0.h ****   \details Disables a device specific interrupt in the NVIC interrupt controller.
 648:C:/Users/Lenovo/workspace/dave_workspace/SOLAR_TOWER/Libraries/CMSIS/Include\core_cm0.h ****   \param [in]      IRQn  Device specific interrupt number.
 649:C:/Users/Lenovo/workspace/dave_workspace/SOLAR_TOWER/Libraries/CMSIS/Include\core_cm0.h ****   \note    IRQn must not be negative.
 650:C:/Users/Lenovo/workspace/dave_workspace/SOLAR_TOWER/Libraries/CMSIS/Include\core_cm0.h ****  */
 651:C:/Users/Lenovo/workspace/dave_workspace/SOLAR_TOWER/Libraries/CMSIS/Include\core_cm0.h **** __STATIC_INLINE void __NVIC_DisableIRQ(IRQn_Type IRQn)
 652:C:/Users/Lenovo/workspace/dave_workspace/SOLAR_TOWER/Libraries/CMSIS/Include\core_cm0.h **** {
 653:C:/Users/Lenovo/workspace/dave_workspace/SOLAR_TOWER/Libraries/CMSIS/Include\core_cm0.h ****   if ((int32_t)(IRQn) >= 0)
 654:C:/Users/Lenovo/workspace/dave_workspace/SOLAR_TOWER/Libraries/CMSIS/Include\core_cm0.h ****   {
 655:C:/Users/Lenovo/workspace/dave_workspace/SOLAR_TOWER/Libraries/CMSIS/Include\core_cm0.h ****     NVIC->ICER[0U] = (uint32_t)(1UL << (((uint32_t)(int32_t)IRQn) & 0x1FUL));
 656:C:/Users/Lenovo/workspace/dave_workspace/SOLAR_TOWER/Libraries/CMSIS/Include\core_cm0.h ****     __DSB();
 657:C:/Users/Lenovo/workspace/dave_workspace/SOLAR_TOWER/Libraries/CMSIS/Include\core_cm0.h ****     __ISB();
 658:C:/Users/Lenovo/workspace/dave_workspace/SOLAR_TOWER/Libraries/CMSIS/Include\core_cm0.h ****   }
 659:C:/Users/Lenovo/workspace/dave_workspace/SOLAR_TOWER/Libraries/CMSIS/Include\core_cm0.h **** }
 660:C:/Users/Lenovo/workspace/dave_workspace/SOLAR_TOWER/Libraries/CMSIS/Include\core_cm0.h **** 
 661:C:/Users/Lenovo/workspace/dave_workspace/SOLAR_TOWER/Libraries/CMSIS/Include\core_cm0.h **** 
 662:C:/Users/Lenovo/workspace/dave_workspace/SOLAR_TOWER/Libraries/CMSIS/Include\core_cm0.h **** /**
 663:C:/Users/Lenovo/workspace/dave_workspace/SOLAR_TOWER/Libraries/CMSIS/Include\core_cm0.h ****   \brief   Get Pending Interrupt
 664:C:/Users/Lenovo/workspace/dave_workspace/SOLAR_TOWER/Libraries/CMSIS/Include\core_cm0.h ****   \details Reads the NVIC pending register and returns the pending bit for the specified device spe
 665:C:/Users/Lenovo/workspace/dave_workspace/SOLAR_TOWER/Libraries/CMSIS/Include\core_cm0.h ****   \param [in]      IRQn  Device specific interrupt number.
 666:C:/Users/Lenovo/workspace/dave_workspace/SOLAR_TOWER/Libraries/CMSIS/Include\core_cm0.h ****   \return             0  Interrupt status is not pending.
 667:C:/Users/Lenovo/workspace/dave_workspace/SOLAR_TOWER/Libraries/CMSIS/Include\core_cm0.h ****   \return             1  Interrupt status is pending.
 668:C:/Users/Lenovo/workspace/dave_workspace/SOLAR_TOWER/Libraries/CMSIS/Include\core_cm0.h ****   \note    IRQn must not be negative.
 669:C:/Users/Lenovo/workspace/dave_workspace/SOLAR_TOWER/Libraries/CMSIS/Include\core_cm0.h ****  */
 670:C:/Users/Lenovo/workspace/dave_workspace/SOLAR_TOWER/Libraries/CMSIS/Include\core_cm0.h **** __STATIC_INLINE uint32_t __NVIC_GetPendingIRQ(IRQn_Type IRQn)
 671:C:/Users/Lenovo/workspace/dave_workspace/SOLAR_TOWER/Libraries/CMSIS/Include\core_cm0.h **** {
 672:C:/Users/Lenovo/workspace/dave_workspace/SOLAR_TOWER/Libraries/CMSIS/Include\core_cm0.h ****   if ((int32_t)(IRQn) >= 0)
 673:C:/Users/Lenovo/workspace/dave_workspace/SOLAR_TOWER/Libraries/CMSIS/Include\core_cm0.h ****   {
 674:C:/Users/Lenovo/workspace/dave_workspace/SOLAR_TOWER/Libraries/CMSIS/Include\core_cm0.h ****     return((uint32_t)(((NVIC->ISPR[0U] & (1UL << (((uint32_t)(int32_t)IRQn) & 0x1FUL))) != 0UL) ? 1
 675:C:/Users/Lenovo/workspace/dave_workspace/SOLAR_TOWER/Libraries/CMSIS/Include\core_cm0.h ****   }
 676:C:/Users/Lenovo/workspace/dave_workspace/SOLAR_TOWER/Libraries/CMSIS/Include\core_cm0.h ****   else
 677:C:/Users/Lenovo/workspace/dave_workspace/SOLAR_TOWER/Libraries/CMSIS/Include\core_cm0.h ****   {
 678:C:/Users/Lenovo/workspace/dave_workspace/SOLAR_TOWER/Libraries/CMSIS/Include\core_cm0.h ****     return(0U);
 679:C:/Users/Lenovo/workspace/dave_workspace/SOLAR_TOWER/Libraries/CMSIS/Include\core_cm0.h ****   }
 680:C:/Users/Lenovo/workspace/dave_workspace/SOLAR_TOWER/Libraries/CMSIS/Include\core_cm0.h **** }
 681:C:/Users/Lenovo/workspace/dave_workspace/SOLAR_TOWER/Libraries/CMSIS/Include\core_cm0.h **** 
 682:C:/Users/Lenovo/workspace/dave_workspace/SOLAR_TOWER/Libraries/CMSIS/Include\core_cm0.h **** 
 683:C:/Users/Lenovo/workspace/dave_workspace/SOLAR_TOWER/Libraries/CMSIS/Include\core_cm0.h **** /**
 684:C:/Users/Lenovo/workspace/dave_workspace/SOLAR_TOWER/Libraries/CMSIS/Include\core_cm0.h ****   \brief   Set Pending Interrupt
 685:C:/Users/Lenovo/workspace/dave_workspace/SOLAR_TOWER/Libraries/CMSIS/Include\core_cm0.h ****   \details Sets the pending bit of a device specific interrupt in the NVIC pending register.
 686:C:/Users/Lenovo/workspace/dave_workspace/SOLAR_TOWER/Libraries/CMSIS/Include\core_cm0.h ****   \param [in]      IRQn  Device specific interrupt number.
 687:C:/Users/Lenovo/workspace/dave_workspace/SOLAR_TOWER/Libraries/CMSIS/Include\core_cm0.h ****   \note    IRQn must not be negative.
 688:C:/Users/Lenovo/workspace/dave_workspace/SOLAR_TOWER/Libraries/CMSIS/Include\core_cm0.h ****  */
 689:C:/Users/Lenovo/workspace/dave_workspace/SOLAR_TOWER/Libraries/CMSIS/Include\core_cm0.h **** __STATIC_INLINE void __NVIC_SetPendingIRQ(IRQn_Type IRQn)
 690:C:/Users/Lenovo/workspace/dave_workspace/SOLAR_TOWER/Libraries/CMSIS/Include\core_cm0.h **** {
 691:C:/Users/Lenovo/workspace/dave_workspace/SOLAR_TOWER/Libraries/CMSIS/Include\core_cm0.h ****   if ((int32_t)(IRQn) >= 0)
 692:C:/Users/Lenovo/workspace/dave_workspace/SOLAR_TOWER/Libraries/CMSIS/Include\core_cm0.h ****   {
 693:C:/Users/Lenovo/workspace/dave_workspace/SOLAR_TOWER/Libraries/CMSIS/Include\core_cm0.h ****     NVIC->ISPR[0U] = (uint32_t)(1UL << (((uint32_t)(int32_t)IRQn) & 0x1FUL));
 694:C:/Users/Lenovo/workspace/dave_workspace/SOLAR_TOWER/Libraries/CMSIS/Include\core_cm0.h ****   }
 695:C:/Users/Lenovo/workspace/dave_workspace/SOLAR_TOWER/Libraries/CMSIS/Include\core_cm0.h **** }
 696:C:/Users/Lenovo/workspace/dave_workspace/SOLAR_TOWER/Libraries/CMSIS/Include\core_cm0.h **** 
 697:C:/Users/Lenovo/workspace/dave_workspace/SOLAR_TOWER/Libraries/CMSIS/Include\core_cm0.h **** 
 698:C:/Users/Lenovo/workspace/dave_workspace/SOLAR_TOWER/Libraries/CMSIS/Include\core_cm0.h **** /**
 699:C:/Users/Lenovo/workspace/dave_workspace/SOLAR_TOWER/Libraries/CMSIS/Include\core_cm0.h ****   \brief   Clear Pending Interrupt
 700:C:/Users/Lenovo/workspace/dave_workspace/SOLAR_TOWER/Libraries/CMSIS/Include\core_cm0.h ****   \details Clears the pending bit of a device specific interrupt in the NVIC pending register.
 701:C:/Users/Lenovo/workspace/dave_workspace/SOLAR_TOWER/Libraries/CMSIS/Include\core_cm0.h ****   \param [in]      IRQn  Device specific interrupt number.
 702:C:/Users/Lenovo/workspace/dave_workspace/SOLAR_TOWER/Libraries/CMSIS/Include\core_cm0.h ****   \note    IRQn must not be negative.
 703:C:/Users/Lenovo/workspace/dave_workspace/SOLAR_TOWER/Libraries/CMSIS/Include\core_cm0.h ****  */
 704:C:/Users/Lenovo/workspace/dave_workspace/SOLAR_TOWER/Libraries/CMSIS/Include\core_cm0.h **** __STATIC_INLINE void __NVIC_ClearPendingIRQ(IRQn_Type IRQn)
 705:C:/Users/Lenovo/workspace/dave_workspace/SOLAR_TOWER/Libraries/CMSIS/Include\core_cm0.h **** {
 706:C:/Users/Lenovo/workspace/dave_workspace/SOLAR_TOWER/Libraries/CMSIS/Include\core_cm0.h ****   if ((int32_t)(IRQn) >= 0)
 707:C:/Users/Lenovo/workspace/dave_workspace/SOLAR_TOWER/Libraries/CMSIS/Include\core_cm0.h ****   {
 708:C:/Users/Lenovo/workspace/dave_workspace/SOLAR_TOWER/Libraries/CMSIS/Include\core_cm0.h ****     NVIC->ICPR[0U] = (uint32_t)(1UL << (((uint32_t)(int32_t)IRQn) & 0x1FUL));
 709:C:/Users/Lenovo/workspace/dave_workspace/SOLAR_TOWER/Libraries/CMSIS/Include\core_cm0.h ****   }
 710:C:/Users/Lenovo/workspace/dave_workspace/SOLAR_TOWER/Libraries/CMSIS/Include\core_cm0.h **** }
 711:C:/Users/Lenovo/workspace/dave_workspace/SOLAR_TOWER/Libraries/CMSIS/Include\core_cm0.h **** 
 712:C:/Users/Lenovo/workspace/dave_workspace/SOLAR_TOWER/Libraries/CMSIS/Include\core_cm0.h **** 
 713:C:/Users/Lenovo/workspace/dave_workspace/SOLAR_TOWER/Libraries/CMSIS/Include\core_cm0.h **** /**
 714:C:/Users/Lenovo/workspace/dave_workspace/SOLAR_TOWER/Libraries/CMSIS/Include\core_cm0.h ****   \brief   Set Interrupt Priority
 715:C:/Users/Lenovo/workspace/dave_workspace/SOLAR_TOWER/Libraries/CMSIS/Include\core_cm0.h ****   \details Sets the priority of a device specific interrupt or a processor exception.
 716:C:/Users/Lenovo/workspace/dave_workspace/SOLAR_TOWER/Libraries/CMSIS/Include\core_cm0.h ****            The interrupt number can be positive to specify a device specific interrupt,
 717:C:/Users/Lenovo/workspace/dave_workspace/SOLAR_TOWER/Libraries/CMSIS/Include\core_cm0.h ****            or negative to specify a processor exception.
 718:C:/Users/Lenovo/workspace/dave_workspace/SOLAR_TOWER/Libraries/CMSIS/Include\core_cm0.h ****   \param [in]      IRQn  Interrupt number.
 719:C:/Users/Lenovo/workspace/dave_workspace/SOLAR_TOWER/Libraries/CMSIS/Include\core_cm0.h ****   \param [in]  priority  Priority to set.
 720:C:/Users/Lenovo/workspace/dave_workspace/SOLAR_TOWER/Libraries/CMSIS/Include\core_cm0.h ****   \note    The priority cannot be set for every processor exception.
 721:C:/Users/Lenovo/workspace/dave_workspace/SOLAR_TOWER/Libraries/CMSIS/Include\core_cm0.h ****  */
 722:C:/Users/Lenovo/workspace/dave_workspace/SOLAR_TOWER/Libraries/CMSIS/Include\core_cm0.h **** __STATIC_INLINE void __NVIC_SetPriority(IRQn_Type IRQn, uint32_t priority)
 723:C:/Users/Lenovo/workspace/dave_workspace/SOLAR_TOWER/Libraries/CMSIS/Include\core_cm0.h **** {
  77              	 .loc 1 723 0
  78              	 .cfi_startproc
  79 0000 B0B5     	 push {r4,r5,r7,lr}
  80              	.LCFI3:
  81              	 .cfi_def_cfa_offset 16
  82              	 .cfi_offset 4,-16
  83              	 .cfi_offset 5,-12
  84              	 .cfi_offset 7,-8
  85              	 .cfi_offset 14,-4
  86 0002 82B0     	 sub sp,sp,#8
  87              	.LCFI4:
  88              	 .cfi_def_cfa_offset 24
  89 0004 00AF     	 add r7,sp,#0
  90              	.LCFI5:
  91              	 .cfi_def_cfa_register 7
  92 0006 021C     	 mov r2,r0
  93 0008 3960     	 str r1,[r7]
  94 000a FB1D     	 add r3,r7,#7
  95 000c 1A70     	 strb r2,[r3]
 724:C:/Users/Lenovo/workspace/dave_workspace/SOLAR_TOWER/Libraries/CMSIS/Include\core_cm0.h ****   if ((int32_t)(IRQn) >= 0)
  96              	 .loc 1 724 0
  97 000e FB1D     	 add r3,r7,#7
  98 0010 1B78     	 ldrb r3,[r3]
  99 0012 7F2B     	 cmp r3,#127
 100 0014 27D8     	 bhi .L6
 725:C:/Users/Lenovo/workspace/dave_workspace/SOLAR_TOWER/Libraries/CMSIS/Include\core_cm0.h ****   {
 726:C:/Users/Lenovo/workspace/dave_workspace/SOLAR_TOWER/Libraries/CMSIS/Include\core_cm0.h ****     NVIC->IP[_IP_IDX(IRQn)]  = ((uint32_t)(NVIC->IP[_IP_IDX(IRQn)]  & ~(0xFFUL << _BIT_SHIFT(IRQn))
 101              	 .loc 1 726 0
 102 0016 2D4C     	 ldr r4,.L8
 103 0018 FB1D     	 add r3,r7,#7
 104 001a 1B78     	 ldrb r3,[r3]
 105 001c 5BB2     	 sxtb r3,r3
 106 001e 9B08     	 lsr r3,r3,#2
 107 0020 2A49     	 ldr r1,.L8
 108 0022 FA1D     	 add r2,r7,#7
 109 0024 1278     	 ldrb r2,[r2]
 110 0026 52B2     	 sxtb r2,r2
 111 0028 9208     	 lsr r2,r2,#2
 112 002a C032     	 add r2,r2,#192
 113 002c 9200     	 lsl r2,r2,#2
 114 002e 5258     	 ldr r2,[r2,r1]
 115 0030 F91D     	 add r1,r7,#7
 116 0032 0978     	 ldrb r1,[r1]
 117 0034 081C     	 mov r0,r1
 118 0036 0321     	 mov r1,#3
 119 0038 0140     	 and r1,r0
 120 003a C900     	 lsl r1,r1,#3
 121 003c 081C     	 mov r0,r1
 122 003e FF21     	 mov r1,#255
 123 0040 8140     	 lsl r1,r1,r0
 124 0042 C943     	 mvn r1,r1
 125 0044 1140     	 and r1,r2
 727:C:/Users/Lenovo/workspace/dave_workspace/SOLAR_TOWER/Libraries/CMSIS/Include\core_cm0.h ****        (((priority << (8U - __NVIC_PRIO_BITS)) & (uint32_t)0xFFUL) << _BIT_SHIFT(IRQn)));
 126              	 .loc 1 727 0
 127 0046 3A68     	 ldr r2,[r7]
 128 0048 9201     	 lsl r2,r2,#6
 129 004a FF20     	 mov r0,#255
 130 004c 0240     	 and r2,r0
 131 004e F81D     	 add r0,r7,#7
 132 0050 0078     	 ldrb r0,[r0]
 133 0052 051C     	 mov r5,r0
 134 0054 0320     	 mov r0,#3
 135 0056 2840     	 and r0,r5
 136 0058 C000     	 lsl r0,r0,#3
 137 005a 8240     	 lsl r2,r2,r0
 726:C:/Users/Lenovo/workspace/dave_workspace/SOLAR_TOWER/Libraries/CMSIS/Include\core_cm0.h ****        (((priority << (8U - __NVIC_PRIO_BITS)) & (uint32_t)0xFFUL) << _BIT_SHIFT(IRQn)));
 138              	 .loc 1 726 0
 139 005c 0A43     	 orr r2,r1
 140 005e C033     	 add r3,r3,#192
 141 0060 9B00     	 lsl r3,r3,#2
 142 0062 1A51     	 str r2,[r3,r4]
 143 0064 2EE0     	 b .L5
 144              	.L6:
 728:C:/Users/Lenovo/workspace/dave_workspace/SOLAR_TOWER/Libraries/CMSIS/Include\core_cm0.h ****   }
 729:C:/Users/Lenovo/workspace/dave_workspace/SOLAR_TOWER/Libraries/CMSIS/Include\core_cm0.h ****   else
 730:C:/Users/Lenovo/workspace/dave_workspace/SOLAR_TOWER/Libraries/CMSIS/Include\core_cm0.h ****   {
 731:C:/Users/Lenovo/workspace/dave_workspace/SOLAR_TOWER/Libraries/CMSIS/Include\core_cm0.h ****     SCB->SHP[_SHP_IDX(IRQn)] = ((uint32_t)(SCB->SHP[_SHP_IDX(IRQn)] & ~(0xFFUL << _BIT_SHIFT(IRQn))
 145              	 .loc 1 731 0
 146 0066 1A4C     	 ldr r4,.L8+4
 147 0068 FB1D     	 add r3,r7,#7
 148 006a 1B78     	 ldrb r3,[r3]
 149 006c 1A1C     	 mov r2,r3
 150 006e 0F23     	 mov r3,#15
 151 0070 1340     	 and r3,r2
 152 0072 083B     	 sub r3,r3,#8
 153 0074 9908     	 lsr r1,r3,#2
 154 0076 164A     	 ldr r2,.L8+4
 155 0078 FB1D     	 add r3,r7,#7
 156 007a 1B78     	 ldrb r3,[r3]
 157 007c 181C     	 mov r0,r3
 158 007e 0F23     	 mov r3,#15
 159 0080 0340     	 and r3,r0
 160 0082 083B     	 sub r3,r3,#8
 161 0084 9B08     	 lsr r3,r3,#2
 162 0086 0633     	 add r3,r3,#6
 163 0088 9B00     	 lsl r3,r3,#2
 164 008a D318     	 add r3,r2,r3
 165 008c 5B68     	 ldr r3,[r3,#4]
 166 008e FA1D     	 add r2,r7,#7
 167 0090 1278     	 ldrb r2,[r2]
 168 0092 101C     	 mov r0,r2
 169 0094 0322     	 mov r2,#3
 170 0096 0240     	 and r2,r0
 171 0098 D200     	 lsl r2,r2,#3
 172 009a 101C     	 mov r0,r2
 173 009c FF22     	 mov r2,#255
 174 009e 8240     	 lsl r2,r2,r0
 175 00a0 D243     	 mvn r2,r2
 176 00a2 1A40     	 and r2,r3
 732:C:/Users/Lenovo/workspace/dave_workspace/SOLAR_TOWER/Libraries/CMSIS/Include\core_cm0.h ****        (((priority << (8U - __NVIC_PRIO_BITS)) & (uint32_t)0xFFUL) << _BIT_SHIFT(IRQn)));
 177              	 .loc 1 732 0
 178 00a4 3B68     	 ldr r3,[r7]
 179 00a6 9B01     	 lsl r3,r3,#6
 180 00a8 FF20     	 mov r0,#255
 181 00aa 0340     	 and r3,r0
 182 00ac F81D     	 add r0,r7,#7
 183 00ae 0078     	 ldrb r0,[r0]
 184 00b0 051C     	 mov r5,r0
 185 00b2 0320     	 mov r0,#3
 186 00b4 2840     	 and r0,r5
 187 00b6 C000     	 lsl r0,r0,#3
 188 00b8 8340     	 lsl r3,r3,r0
 731:C:/Users/Lenovo/workspace/dave_workspace/SOLAR_TOWER/Libraries/CMSIS/Include\core_cm0.h ****        (((priority << (8U - __NVIC_PRIO_BITS)) & (uint32_t)0xFFUL) << _BIT_SHIFT(IRQn)));
 189              	 .loc 1 731 0
 190 00ba 1A43     	 orr r2,r3
 191 00bc 8B1D     	 add r3,r1,#6
 192 00be 9B00     	 lsl r3,r3,#2
 193 00c0 E318     	 add r3,r4,r3
 194 00c2 5A60     	 str r2,[r3,#4]
 195              	.L5:
 733:C:/Users/Lenovo/workspace/dave_workspace/SOLAR_TOWER/Libraries/CMSIS/Include\core_cm0.h ****   }
 734:C:/Users/Lenovo/workspace/dave_workspace/SOLAR_TOWER/Libraries/CMSIS/Include\core_cm0.h **** }
 196              	 .loc 1 734 0
 197 00c4 BD46     	 mov sp,r7
 198 00c6 02B0     	 add sp,sp,#8
 199              	 
 200 00c8 B0BD     	 pop {r4,r5,r7,pc}
 201              	.L9:
 202 00ca C046     	 .align 2
 203              	.L8:
 204 00cc 00E100E0 	 .word -536813312
 205 00d0 00ED00E0 	 .word -536810240
 206              	 .cfi_endproc
 207              	.LFE29:
 209              	 .section .text.XMC_USIC_CH_SetInputSource,"ax",%progbits
 210              	 .align 2
 211              	 .code 16
 212              	 .thumb_func
 214              	XMC_USIC_CH_SetInputSource:
 215              	.LFB63:
 216              	 .file 2 "C:/Users/Lenovo/workspace/dave_workspace/SOLAR_TOWER/Libraries/XMCLib/inc/xmc_usic.h"
   1:C:/Users/Lenovo/workspace/dave_workspace/SOLAR_TOWER/Libraries/XMCLib/inc\xmc_usic.h **** /**
   2:C:/Users/Lenovo/workspace/dave_workspace/SOLAR_TOWER/Libraries/XMCLib/inc\xmc_usic.h ****  * @file xmc_usic.h
   3:C:/Users/Lenovo/workspace/dave_workspace/SOLAR_TOWER/Libraries/XMCLib/inc\xmc_usic.h ****  * @date 2017-09-08
   4:C:/Users/Lenovo/workspace/dave_workspace/SOLAR_TOWER/Libraries/XMCLib/inc\xmc_usic.h ****  *
   5:C:/Users/Lenovo/workspace/dave_workspace/SOLAR_TOWER/Libraries/XMCLib/inc\xmc_usic.h ****  * @cond
   6:C:/Users/Lenovo/workspace/dave_workspace/SOLAR_TOWER/Libraries/XMCLib/inc\xmc_usic.h ****  **************************************************************************************************
   7:C:/Users/Lenovo/workspace/dave_workspace/SOLAR_TOWER/Libraries/XMCLib/inc\xmc_usic.h ****  * XMClib v2.1.18 - XMC Peripheral Driver Library 
   8:C:/Users/Lenovo/workspace/dave_workspace/SOLAR_TOWER/Libraries/XMCLib/inc\xmc_usic.h ****  *
   9:C:/Users/Lenovo/workspace/dave_workspace/SOLAR_TOWER/Libraries/XMCLib/inc\xmc_usic.h ****  * Copyright (c) 2015-2018, Infineon Technologies AG
  10:C:/Users/Lenovo/workspace/dave_workspace/SOLAR_TOWER/Libraries/XMCLib/inc\xmc_usic.h ****  * All rights reserved.                        
  11:C:/Users/Lenovo/workspace/dave_workspace/SOLAR_TOWER/Libraries/XMCLib/inc\xmc_usic.h ****  *                                             
  12:C:/Users/Lenovo/workspace/dave_workspace/SOLAR_TOWER/Libraries/XMCLib/inc\xmc_usic.h ****  * Redistribution and use in source and binary forms, with or without modification,are permitted pr
  13:C:/Users/Lenovo/workspace/dave_workspace/SOLAR_TOWER/Libraries/XMCLib/inc\xmc_usic.h ****  * following conditions are met:   
  14:C:/Users/Lenovo/workspace/dave_workspace/SOLAR_TOWER/Libraries/XMCLib/inc\xmc_usic.h ****  *                                                                              
  15:C:/Users/Lenovo/workspace/dave_workspace/SOLAR_TOWER/Libraries/XMCLib/inc\xmc_usic.h ****  * Redistributions of source code must retain the above copyright notice, this list of conditions a
  16:C:/Users/Lenovo/workspace/dave_workspace/SOLAR_TOWER/Libraries/XMCLib/inc\xmc_usic.h ****  * disclaimer.                        
  17:C:/Users/Lenovo/workspace/dave_workspace/SOLAR_TOWER/Libraries/XMCLib/inc\xmc_usic.h ****  * 
  18:C:/Users/Lenovo/workspace/dave_workspace/SOLAR_TOWER/Libraries/XMCLib/inc\xmc_usic.h ****  * Redistributions in binary form must reproduce the above copyright notice, this list of condition
  19:C:/Users/Lenovo/workspace/dave_workspace/SOLAR_TOWER/Libraries/XMCLib/inc\xmc_usic.h ****  * disclaimer in the documentation and/or other materials provided with the distribution.          
  20:C:/Users/Lenovo/workspace/dave_workspace/SOLAR_TOWER/Libraries/XMCLib/inc\xmc_usic.h ****  * 
  21:C:/Users/Lenovo/workspace/dave_workspace/SOLAR_TOWER/Libraries/XMCLib/inc\xmc_usic.h ****  * Neither the name of the copyright holders nor the names of its contributors may be used to endor
  22:C:/Users/Lenovo/workspace/dave_workspace/SOLAR_TOWER/Libraries/XMCLib/inc\xmc_usic.h ****  * products derived from this software without specific prior written permission.                  
  23:C:/Users/Lenovo/workspace/dave_workspace/SOLAR_TOWER/Libraries/XMCLib/inc\xmc_usic.h ****  *                                                                              
  24:C:/Users/Lenovo/workspace/dave_workspace/SOLAR_TOWER/Libraries/XMCLib/inc\xmc_usic.h ****  * THIS SOFTWARE IS PROVIDED BY THE COPYRIGHT HOLDERS AND CONTRIBUTORS "AS IS" AND ANY EXPRESS OR I
  25:C:/Users/Lenovo/workspace/dave_workspace/SOLAR_TOWER/Libraries/XMCLib/inc\xmc_usic.h ****  * INCLUDING, BUT NOT LIMITED TO, THE IMPLIED WARRANTIES OF MERCHANTABILITY AND FITNESS FOR A PARTI
  26:C:/Users/Lenovo/workspace/dave_workspace/SOLAR_TOWER/Libraries/XMCLib/inc\xmc_usic.h ****  * DISCLAIMED. IN NO EVENT SHALL THE COPYRIGHT HOLDER OR CONTRIBUTORS BE LIABLE  FOR ANY DIRECT, IN
  27:C:/Users/Lenovo/workspace/dave_workspace/SOLAR_TOWER/Libraries/XMCLib/inc\xmc_usic.h ****  * SPECIAL, EXEMPLARY, OR CONSEQUENTIAL DAMAGES (INCLUDING, BUT NOT LIMITED TO, PROCUREMENT OF SUBS
  28:C:/Users/Lenovo/workspace/dave_workspace/SOLAR_TOWER/Libraries/XMCLib/inc\xmc_usic.h ****  * SERVICES; LOSS OF USE, DATA, OR PROFITS; OR BUSINESS INTERRUPTION) HOWEVER CAUSED AND ON ANY THE
  29:C:/Users/Lenovo/workspace/dave_workspace/SOLAR_TOWER/Libraries/XMCLib/inc\xmc_usic.h ****  * WHETHER IN CONTRACT, STRICT LIABILITY,OR TORT (INCLUDING NEGLIGENCE OR OTHERWISE) ARISING IN ANY
  30:C:/Users/Lenovo/workspace/dave_workspace/SOLAR_TOWER/Libraries/XMCLib/inc\xmc_usic.h ****  * OF THIS SOFTWARE, EVEN IF ADVISED OF THE POSSIBILITY OF SUCH DAMAGE.                            
  31:C:/Users/Lenovo/workspace/dave_workspace/SOLAR_TOWER/Libraries/XMCLib/inc\xmc_usic.h ****  *                                                                              
  32:C:/Users/Lenovo/workspace/dave_workspace/SOLAR_TOWER/Libraries/XMCLib/inc\xmc_usic.h ****  * To improve the quality of the software, users are encouraged to share modifications, enhancement
  33:C:/Users/Lenovo/workspace/dave_workspace/SOLAR_TOWER/Libraries/XMCLib/inc\xmc_usic.h ****  * Infineon Technologies AG dave@infineon.com).                                                    
  34:C:/Users/Lenovo/workspace/dave_workspace/SOLAR_TOWER/Libraries/XMCLib/inc\xmc_usic.h ****  **************************************************************************************************
  35:C:/Users/Lenovo/workspace/dave_workspace/SOLAR_TOWER/Libraries/XMCLib/inc\xmc_usic.h ****  *
  36:C:/Users/Lenovo/workspace/dave_workspace/SOLAR_TOWER/Libraries/XMCLib/inc\xmc_usic.h ****  * Change History
  37:C:/Users/Lenovo/workspace/dave_workspace/SOLAR_TOWER/Libraries/XMCLib/inc\xmc_usic.h ****  * --------------
  38:C:/Users/Lenovo/workspace/dave_workspace/SOLAR_TOWER/Libraries/XMCLib/inc\xmc_usic.h ****  *
  39:C:/Users/Lenovo/workspace/dave_workspace/SOLAR_TOWER/Libraries/XMCLib/inc\xmc_usic.h ****  * 2015-02-20:
  40:C:/Users/Lenovo/workspace/dave_workspace/SOLAR_TOWER/Libraries/XMCLib/inc\xmc_usic.h ****  *     - Initial draft<br>
  41:C:/Users/Lenovo/workspace/dave_workspace/SOLAR_TOWER/Libraries/XMCLib/inc\xmc_usic.h ****  *     - Documentation improved <br>
  42:C:/Users/Lenovo/workspace/dave_workspace/SOLAR_TOWER/Libraries/XMCLib/inc\xmc_usic.h ****  *
  43:C:/Users/Lenovo/workspace/dave_workspace/SOLAR_TOWER/Libraries/XMCLib/inc\xmc_usic.h ****  * 2015-05-08:
  44:C:/Users/Lenovo/workspace/dave_workspace/SOLAR_TOWER/Libraries/XMCLib/inc\xmc_usic.h ****  *     - Added XMC_USIC_CH_SetInputTriggerCombinationMode() and XMC_USIC_CH_SetTransmitBufferStatus
  45:C:/Users/Lenovo/workspace/dave_workspace/SOLAR_TOWER/Libraries/XMCLib/inc\xmc_usic.h ****  *      
  46:C:/Users/Lenovo/workspace/dave_workspace/SOLAR_TOWER/Libraries/XMCLib/inc\xmc_usic.h ****  * 2015-06-20:
  47:C:/Users/Lenovo/workspace/dave_workspace/SOLAR_TOWER/Libraries/XMCLib/inc\xmc_usic.h ****  *     - Removed version macros and declaration of GetDriverVersion API
  48:C:/Users/Lenovo/workspace/dave_workspace/SOLAR_TOWER/Libraries/XMCLib/inc\xmc_usic.h ****  * 
  49:C:/Users/Lenovo/workspace/dave_workspace/SOLAR_TOWER/Libraries/XMCLib/inc\xmc_usic.h ****  * 2015-08-17:
  50:C:/Users/Lenovo/workspace/dave_workspace/SOLAR_TOWER/Libraries/XMCLib/inc\xmc_usic.h ****  *     - Bug fixed in XMC_USIC_CH_SetTransmitBufferStatus API. OR operator removed.
  51:C:/Users/Lenovo/workspace/dave_workspace/SOLAR_TOWER/Libraries/XMCLib/inc\xmc_usic.h ****  *
  52:C:/Users/Lenovo/workspace/dave_workspace/SOLAR_TOWER/Libraries/XMCLib/inc\xmc_usic.h ****  * 2015-08-24:
  53:C:/Users/Lenovo/workspace/dave_workspace/SOLAR_TOWER/Libraries/XMCLib/inc\xmc_usic.h ****  *     - Added APIs for enabling/disabling delay compensation XMC_USIC_CH_DisableDelayCompensation(
  54:C:/Users/Lenovo/workspace/dave_workspace/SOLAR_TOWER/Libraries/XMCLib/inc\xmc_usic.h ****  *       XMC_USIC_CH_DisableDelayCompensation()
  55:C:/Users/Lenovo/workspace/dave_workspace/SOLAR_TOWER/Libraries/XMCLib/inc\xmc_usic.h ****  *
  56:C:/Users/Lenovo/workspace/dave_workspace/SOLAR_TOWER/Libraries/XMCLib/inc\xmc_usic.h ****  * 2015-08-25:
  57:C:/Users/Lenovo/workspace/dave_workspace/SOLAR_TOWER/Libraries/XMCLib/inc\xmc_usic.h ****  *     - Added APIs for defining if the data shift unit input is derived
  58:C:/Users/Lenovo/workspace/dave_workspace/SOLAR_TOWER/Libraries/XMCLib/inc\xmc_usic.h ****  *       from the input data path DXn or from the selected protocol pre-processors: XMC_USIC_CH_Con
  59:C:/Users/Lenovo/workspace/dave_workspace/SOLAR_TOWER/Libraries/XMCLib/inc\xmc_usic.h ****  *       and XMC_USIC_CH_ConnectInputDataShiftToDataInput()
  60:C:/Users/Lenovo/workspace/dave_workspace/SOLAR_TOWER/Libraries/XMCLib/inc\xmc_usic.h ****  *
  61:C:/Users/Lenovo/workspace/dave_workspace/SOLAR_TOWER/Libraries/XMCLib/inc\xmc_usic.h ****  * 2015-08-27:
  62:C:/Users/Lenovo/workspace/dave_workspace/SOLAR_TOWER/Libraries/XMCLib/inc\xmc_usic.h ****  *     - Fixed bug in XMC_USIC_CH_BRG_CLOCK_SOURCE_DX1T value.
  63:C:/Users/Lenovo/workspace/dave_workspace/SOLAR_TOWER/Libraries/XMCLib/inc\xmc_usic.h ****  *     - Added APIs for direct TBUF access: XMC_USIC_CH_WriteToTBUF() and XMC_USIC_CH_WriteToTBUFTC
  64:C:/Users/Lenovo/workspace/dave_workspace/SOLAR_TOWER/Libraries/XMCLib/inc\xmc_usic.h ****  *     - Added APIs for external input for BRG configuration:XMC_USIC_CH_ConfigExternalInputSignalT
  65:C:/Users/Lenovo/workspace/dave_workspace/SOLAR_TOWER/Libraries/XMCLib/inc\xmc_usic.h ****  *
  66:C:/Users/Lenovo/workspace/dave_workspace/SOLAR_TOWER/Libraries/XMCLib/inc\xmc_usic.h ****  * 2015-08-28:
  67:C:/Users/Lenovo/workspace/dave_workspace/SOLAR_TOWER/Libraries/XMCLib/inc\xmc_usic.h ****  *     - Added API for enabling the transfer trigger unit to set bit TCSR.TE if the trigger signal 
  68:C:/Users/Lenovo/workspace/dave_workspace/SOLAR_TOWER/Libraries/XMCLib/inc\xmc_usic.h ****  *       Clear to Send (CTS) signal: XMC_USIC_CH_EnableTBUFDataValidTrigger() and XMC_USIC_CH_Disab
  69:C:/Users/Lenovo/workspace/dave_workspace/SOLAR_TOWER/Libraries/XMCLib/inc\xmc_usic.h ****  *
  70:C:/Users/Lenovo/workspace/dave_workspace/SOLAR_TOWER/Libraries/XMCLib/inc\xmc_usic.h ****  * 2016-03-09:
  71:C:/Users/Lenovo/workspace/dave_workspace/SOLAR_TOWER/Libraries/XMCLib/inc\xmc_usic.h ****  *     - Optimization of write only registers
  72:C:/Users/Lenovo/workspace/dave_workspace/SOLAR_TOWER/Libraries/XMCLib/inc\xmc_usic.h ****  *
  73:C:/Users/Lenovo/workspace/dave_workspace/SOLAR_TOWER/Libraries/XMCLib/inc\xmc_usic.h ****  * 2016-04-10:
  74:C:/Users/Lenovo/workspace/dave_workspace/SOLAR_TOWER/Libraries/XMCLib/inc\xmc_usic.h ****  *     - Added an API to put the data into FIFO when hardware port control is enabled: XMC_USIC_CH_
  75:C:/Users/Lenovo/workspace/dave_workspace/SOLAR_TOWER/Libraries/XMCLib/inc\xmc_usic.h ****  *
  76:C:/Users/Lenovo/workspace/dave_workspace/SOLAR_TOWER/Libraries/XMCLib/inc\xmc_usic.h ****  * 2017-02-10:
  77:C:/Users/Lenovo/workspace/dave_workspace/SOLAR_TOWER/Libraries/XMCLib/inc\xmc_usic.h ****  *     - Added XMC_USIC_CH_SetShiftDirection() to allow selection of shift direction of the data wo
  78:C:/Users/Lenovo/workspace/dave_workspace/SOLAR_TOWER/Libraries/XMCLib/inc\xmc_usic.h ****  *     - Added XMC_USIC_CH_GetCaptureTimerValue() and XMC_USIC_CH_SetFractionalDivider()
  79:C:/Users/Lenovo/workspace/dave_workspace/SOLAR_TOWER/Libraries/XMCLib/inc\xmc_usic.h ****  *
  80:C:/Users/Lenovo/workspace/dave_workspace/SOLAR_TOWER/Libraries/XMCLib/inc\xmc_usic.h ****  * 2017-09-08:
  81:C:/Users/Lenovo/workspace/dave_workspace/SOLAR_TOWER/Libraries/XMCLib/inc\xmc_usic.h ****  *     - Fixed value of macro XMC_USIC_CH_SHIFT_DIRECTION_MSB_FIRST used in XMC_USIC_CH_SetShiftDir
  82:C:/Users/Lenovo/workspace/dave_workspace/SOLAR_TOWER/Libraries/XMCLib/inc\xmc_usic.h ****  *
  83:C:/Users/Lenovo/workspace/dave_workspace/SOLAR_TOWER/Libraries/XMCLib/inc\xmc_usic.h ****  * @endcond
  84:C:/Users/Lenovo/workspace/dave_workspace/SOLAR_TOWER/Libraries/XMCLib/inc\xmc_usic.h ****  *
  85:C:/Users/Lenovo/workspace/dave_workspace/SOLAR_TOWER/Libraries/XMCLib/inc\xmc_usic.h ****  */
  86:C:/Users/Lenovo/workspace/dave_workspace/SOLAR_TOWER/Libraries/XMCLib/inc\xmc_usic.h **** 
  87:C:/Users/Lenovo/workspace/dave_workspace/SOLAR_TOWER/Libraries/XMCLib/inc\xmc_usic.h **** #ifndef XMC_USIC_H
  88:C:/Users/Lenovo/workspace/dave_workspace/SOLAR_TOWER/Libraries/XMCLib/inc\xmc_usic.h **** #define XMC_USIC_H
  89:C:/Users/Lenovo/workspace/dave_workspace/SOLAR_TOWER/Libraries/XMCLib/inc\xmc_usic.h **** /*******************************************************************************
  90:C:/Users/Lenovo/workspace/dave_workspace/SOLAR_TOWER/Libraries/XMCLib/inc\xmc_usic.h ****  * HEADER FILES
  91:C:/Users/Lenovo/workspace/dave_workspace/SOLAR_TOWER/Libraries/XMCLib/inc\xmc_usic.h ****  *******************************************************************************/
  92:C:/Users/Lenovo/workspace/dave_workspace/SOLAR_TOWER/Libraries/XMCLib/inc\xmc_usic.h **** 
  93:C:/Users/Lenovo/workspace/dave_workspace/SOLAR_TOWER/Libraries/XMCLib/inc\xmc_usic.h **** #include "xmc_common.h"
  94:C:/Users/Lenovo/workspace/dave_workspace/SOLAR_TOWER/Libraries/XMCLib/inc\xmc_usic.h **** 
  95:C:/Users/Lenovo/workspace/dave_workspace/SOLAR_TOWER/Libraries/XMCLib/inc\xmc_usic.h **** /**
  96:C:/Users/Lenovo/workspace/dave_workspace/SOLAR_TOWER/Libraries/XMCLib/inc\xmc_usic.h ****  * @addtogroup XMClib XMC Peripheral Library
  97:C:/Users/Lenovo/workspace/dave_workspace/SOLAR_TOWER/Libraries/XMCLib/inc\xmc_usic.h ****  * @{
  98:C:/Users/Lenovo/workspace/dave_workspace/SOLAR_TOWER/Libraries/XMCLib/inc\xmc_usic.h ****  */
  99:C:/Users/Lenovo/workspace/dave_workspace/SOLAR_TOWER/Libraries/XMCLib/inc\xmc_usic.h **** 
 100:C:/Users/Lenovo/workspace/dave_workspace/SOLAR_TOWER/Libraries/XMCLib/inc\xmc_usic.h **** /**
 101:C:/Users/Lenovo/workspace/dave_workspace/SOLAR_TOWER/Libraries/XMCLib/inc\xmc_usic.h ****  * @addtogroup USIC
 102:C:/Users/Lenovo/workspace/dave_workspace/SOLAR_TOWER/Libraries/XMCLib/inc\xmc_usic.h ****  * @brief Universal Serial Interface Channel(USIC) driver for serial communication.
 103:C:/Users/Lenovo/workspace/dave_workspace/SOLAR_TOWER/Libraries/XMCLib/inc\xmc_usic.h ****  *
 104:C:/Users/Lenovo/workspace/dave_workspace/SOLAR_TOWER/Libraries/XMCLib/inc\xmc_usic.h ****  * The Universal Serial Interface Channel(USIC) module is a flexible interface module
 105:C:/Users/Lenovo/workspace/dave_workspace/SOLAR_TOWER/Libraries/XMCLib/inc\xmc_usic.h ****  * covering several serial communication protocols. A USIC module contains two
 106:C:/Users/Lenovo/workspace/dave_workspace/SOLAR_TOWER/Libraries/XMCLib/inc\xmc_usic.h ****  * independent communication channels named USICx_CH0 and USICx_CH1, with x
 107:C:/Users/Lenovo/workspace/dave_workspace/SOLAR_TOWER/Libraries/XMCLib/inc\xmc_usic.h ****  * being the number of the USIC module. The user can program, during run-time, which protocol will 
 108:C:/Users/Lenovo/workspace/dave_workspace/SOLAR_TOWER/Libraries/XMCLib/inc\xmc_usic.h ****  * by each communication channel and which pins are used.
 109:C:/Users/Lenovo/workspace/dave_workspace/SOLAR_TOWER/Libraries/XMCLib/inc\xmc_usic.h ****  * The driver provides APIs, configuration structures and enumerations to configure common features
 110:C:/Users/Lenovo/workspace/dave_workspace/SOLAR_TOWER/Libraries/XMCLib/inc\xmc_usic.h ****  * communication protocols.
 111:C:/Users/Lenovo/workspace/dave_workspace/SOLAR_TOWER/Libraries/XMCLib/inc\xmc_usic.h ****  * 
 112:C:/Users/Lenovo/workspace/dave_workspace/SOLAR_TOWER/Libraries/XMCLib/inc\xmc_usic.h ****  * USIC driver features:
 113:C:/Users/Lenovo/workspace/dave_workspace/SOLAR_TOWER/Libraries/XMCLib/inc\xmc_usic.h ****  * -# Allows configuration of FIFO for transmit and receive functions.
 114:C:/Users/Lenovo/workspace/dave_workspace/SOLAR_TOWER/Libraries/XMCLib/inc\xmc_usic.h ****  * -# Provides a structure type XMC_USIC_CH_t to represent the USIC channel registers in a programm
 115:C:/Users/Lenovo/workspace/dave_workspace/SOLAR_TOWER/Libraries/XMCLib/inc\xmc_usic.h ****  friendly format.
 116:C:/Users/Lenovo/workspace/dave_workspace/SOLAR_TOWER/Libraries/XMCLib/inc\xmc_usic.h ****  * -# Allows configuration of automatic update for frame length, word length, slave select or slave
 117:C:/Users/Lenovo/workspace/dave_workspace/SOLAR_TOWER/Libraries/XMCLib/inc\xmc_usic.h ****  * -# Allows transmission of data to FIFO using XMC_USIC_CH_TXFIFO_PutData() and XMC_USIC_CH_TXFIFO
 118:C:/Users/Lenovo/workspace/dave_workspace/SOLAR_TOWER/Libraries/XMCLib/inc\xmc_usic.h ****  * -# Allows reading of received data in FIFO using XMC_USIC_CH_RXFIFO_GetData()
 119:C:/Users/Lenovo/workspace/dave_workspace/SOLAR_TOWER/Libraries/XMCLib/inc\xmc_usic.h ****  * -# Allows configuration of baudrate using XMC_USIC_CH_SetBaudrate()
 120:C:/Users/Lenovo/workspace/dave_workspace/SOLAR_TOWER/Libraries/XMCLib/inc\xmc_usic.h ****  * -# Provides API to trigger interrupts using XMC_USIC_CH_TriggerServiceRequest()
 121:C:/Users/Lenovo/workspace/dave_workspace/SOLAR_TOWER/Libraries/XMCLib/inc\xmc_usic.h ****  * @{
 122:C:/Users/Lenovo/workspace/dave_workspace/SOLAR_TOWER/Libraries/XMCLib/inc\xmc_usic.h ****  */
 123:C:/Users/Lenovo/workspace/dave_workspace/SOLAR_TOWER/Libraries/XMCLib/inc\xmc_usic.h **** 
 124:C:/Users/Lenovo/workspace/dave_workspace/SOLAR_TOWER/Libraries/XMCLib/inc\xmc_usic.h **** /*******************************************************************************
 125:C:/Users/Lenovo/workspace/dave_workspace/SOLAR_TOWER/Libraries/XMCLib/inc\xmc_usic.h ****  * MACROS
 126:C:/Users/Lenovo/workspace/dave_workspace/SOLAR_TOWER/Libraries/XMCLib/inc\xmc_usic.h ****  *******************************************************************************/
 127:C:/Users/Lenovo/workspace/dave_workspace/SOLAR_TOWER/Libraries/XMCLib/inc\xmc_usic.h **** 
 128:C:/Users/Lenovo/workspace/dave_workspace/SOLAR_TOWER/Libraries/XMCLib/inc\xmc_usic.h **** #define XMC_USIC0 ((XMC_USIC_t *)USIC0_BASE)			/**< USIC0 module base address */
 129:C:/Users/Lenovo/workspace/dave_workspace/SOLAR_TOWER/Libraries/XMCLib/inc\xmc_usic.h **** #define XMC_USIC0_CH0 ((XMC_USIC_CH_t *)USIC0_CH0_BASE)	/**< USIC0 channel 0 base address */
 130:C:/Users/Lenovo/workspace/dave_workspace/SOLAR_TOWER/Libraries/XMCLib/inc\xmc_usic.h **** #define XMC_USIC0_CH1 ((XMC_USIC_CH_t *)USIC0_CH1_BASE)	/**< USIC0 channel 1 base address */
 131:C:/Users/Lenovo/workspace/dave_workspace/SOLAR_TOWER/Libraries/XMCLib/inc\xmc_usic.h **** 
 132:C:/Users/Lenovo/workspace/dave_workspace/SOLAR_TOWER/Libraries/XMCLib/inc\xmc_usic.h **** #if defined(USIC1)
 133:C:/Users/Lenovo/workspace/dave_workspace/SOLAR_TOWER/Libraries/XMCLib/inc\xmc_usic.h **** #define XMC_USIC1 ((XMC_USIC_t *)USIC1_BASE)			/**< USIC1 module base address */
 134:C:/Users/Lenovo/workspace/dave_workspace/SOLAR_TOWER/Libraries/XMCLib/inc\xmc_usic.h **** #define XMC_USIC1_CH0 ((XMC_USIC_CH_t *)USIC1_CH0_BASE)	/**< USIC1 channel 0 base address */
 135:C:/Users/Lenovo/workspace/dave_workspace/SOLAR_TOWER/Libraries/XMCLib/inc\xmc_usic.h **** #define XMC_USIC1_CH1 ((XMC_USIC_CH_t *)USIC1_CH1_BASE)	/**< USIC1 channel 1 base address */
 136:C:/Users/Lenovo/workspace/dave_workspace/SOLAR_TOWER/Libraries/XMCLib/inc\xmc_usic.h **** #endif
 137:C:/Users/Lenovo/workspace/dave_workspace/SOLAR_TOWER/Libraries/XMCLib/inc\xmc_usic.h **** 
 138:C:/Users/Lenovo/workspace/dave_workspace/SOLAR_TOWER/Libraries/XMCLib/inc\xmc_usic.h **** #if defined(USIC2)
 139:C:/Users/Lenovo/workspace/dave_workspace/SOLAR_TOWER/Libraries/XMCLib/inc\xmc_usic.h **** #define XMC_USIC2 ((XMC_USIC_t *)USIC2_BASE)			/**< USIC2 module base address */
 140:C:/Users/Lenovo/workspace/dave_workspace/SOLAR_TOWER/Libraries/XMCLib/inc\xmc_usic.h **** #define XMC_USIC2_CH0 ((XMC_USIC_CH_t *)USIC2_CH0_BASE)	/**< USIC2 channel 0 base address */
 141:C:/Users/Lenovo/workspace/dave_workspace/SOLAR_TOWER/Libraries/XMCLib/inc\xmc_usic.h **** #define XMC_USIC2_CH1 ((XMC_USIC_CH_t *)USIC2_CH1_BASE)	/**< USIC2 channel 1 base address */
 142:C:/Users/Lenovo/workspace/dave_workspace/SOLAR_TOWER/Libraries/XMCLib/inc\xmc_usic.h **** #endif
 143:C:/Users/Lenovo/workspace/dave_workspace/SOLAR_TOWER/Libraries/XMCLib/inc\xmc_usic.h **** 
 144:C:/Users/Lenovo/workspace/dave_workspace/SOLAR_TOWER/Libraries/XMCLib/inc\xmc_usic.h **** #define USIC_CH_DXCR_DSEL_Msk  USIC_CH_DX0CR_DSEL_Msk   /**< Common mask for DSEL bitfield mask in 
 145:C:/Users/Lenovo/workspace/dave_workspace/SOLAR_TOWER/Libraries/XMCLib/inc\xmc_usic.h **** #define USIC_CH_DXCR_DSEL_Pos  USIC_CH_DX0CR_DSEL_Pos   /**< Common mask for DSEL bitfield position
 146:C:/Users/Lenovo/workspace/dave_workspace/SOLAR_TOWER/Libraries/XMCLib/inc\xmc_usic.h **** #define USIC_CH_DXCR_SFSEL_Pos USIC_CH_DX0CR_SFSEL_Pos  /**< Common mask for SFSEL bitfield positio
 147:C:/Users/Lenovo/workspace/dave_workspace/SOLAR_TOWER/Libraries/XMCLib/inc\xmc_usic.h **** #define USIC_CH_DXCR_SFSEL_Msk USIC_CH_DX0CR_SFSEL_Msk  /**< Common mask for SFSEL bitfield mask in
 148:C:/Users/Lenovo/workspace/dave_workspace/SOLAR_TOWER/Libraries/XMCLib/inc\xmc_usic.h **** #define USIC_CH_DXCR_DPOL_Msk  USIC_CH_DX0CR_DPOL_Msk   /**< Common mask for DPOL bitfield mask in 
 149:C:/Users/Lenovo/workspace/dave_workspace/SOLAR_TOWER/Libraries/XMCLib/inc\xmc_usic.h **** #define USIC_CH_DXCR_DFEN_Msk  USIC_CH_DX0CR_DFEN_Msk   /**< Common mask for DFEN bitfield mask in 
 150:C:/Users/Lenovo/workspace/dave_workspace/SOLAR_TOWER/Libraries/XMCLib/inc\xmc_usic.h **** #define USIC_CH_DXCR_DSEN_Msk  USIC_CH_DX0CR_DSEN_Msk   /**< Common mask for DSEN bitfield mask in 
 151:C:/Users/Lenovo/workspace/dave_workspace/SOLAR_TOWER/Libraries/XMCLib/inc\xmc_usic.h **** #define USIC_CH_DXCR_CM_Pos    USIC_CH_DX0CR_CM_Pos     /**< Common mask for CM bitfield position i
 152:C:/Users/Lenovo/workspace/dave_workspace/SOLAR_TOWER/Libraries/XMCLib/inc\xmc_usic.h **** #define USIC_CH_DXCR_CM_Msk    USIC_CH_DX0CR_CM_Msk     /**< Common mask for CM bitfield mask in DX
 153:C:/Users/Lenovo/workspace/dave_workspace/SOLAR_TOWER/Libraries/XMCLib/inc\xmc_usic.h **** #define USIC_CH_DXCR_INSW_Msk  USIC_CH_DX0CR_INSW_Msk   /**< Common mask for INSW bitfield mask in 
 154:C:/Users/Lenovo/workspace/dave_workspace/SOLAR_TOWER/Libraries/XMCLib/inc\xmc_usic.h **** #define USIC_CH_DXCR_INSW_pos  USIC_CH_DX0CR_INSW_Pos   /**< Common mask for INSW bitfield position
 155:C:/Users/Lenovo/workspace/dave_workspace/SOLAR_TOWER/Libraries/XMCLib/inc\xmc_usic.h **** 
 156:C:/Users/Lenovo/workspace/dave_workspace/SOLAR_TOWER/Libraries/XMCLib/inc\xmc_usic.h **** #if UC_FAMILY == XMC1
 157:C:/Users/Lenovo/workspace/dave_workspace/SOLAR_TOWER/Libraries/XMCLib/inc\xmc_usic.h ****  #include "xmc1_usic_map.h"
 158:C:/Users/Lenovo/workspace/dave_workspace/SOLAR_TOWER/Libraries/XMCLib/inc\xmc_usic.h **** #endif
 159:C:/Users/Lenovo/workspace/dave_workspace/SOLAR_TOWER/Libraries/XMCLib/inc\xmc_usic.h **** 
 160:C:/Users/Lenovo/workspace/dave_workspace/SOLAR_TOWER/Libraries/XMCLib/inc\xmc_usic.h **** #if UC_FAMILY == XMC4
 161:C:/Users/Lenovo/workspace/dave_workspace/SOLAR_TOWER/Libraries/XMCLib/inc\xmc_usic.h ****  #include "xmc4_usic_map.h"
 162:C:/Users/Lenovo/workspace/dave_workspace/SOLAR_TOWER/Libraries/XMCLib/inc\xmc_usic.h **** #endif
 163:C:/Users/Lenovo/workspace/dave_workspace/SOLAR_TOWER/Libraries/XMCLib/inc\xmc_usic.h **** 
 164:C:/Users/Lenovo/workspace/dave_workspace/SOLAR_TOWER/Libraries/XMCLib/inc\xmc_usic.h **** /*******************************************************************************
 165:C:/Users/Lenovo/workspace/dave_workspace/SOLAR_TOWER/Libraries/XMCLib/inc\xmc_usic.h ****  * ENUMS
 166:C:/Users/Lenovo/workspace/dave_workspace/SOLAR_TOWER/Libraries/XMCLib/inc\xmc_usic.h ****  *******************************************************************************/
 167:C:/Users/Lenovo/workspace/dave_workspace/SOLAR_TOWER/Libraries/XMCLib/inc\xmc_usic.h **** 
 168:C:/Users/Lenovo/workspace/dave_workspace/SOLAR_TOWER/Libraries/XMCLib/inc\xmc_usic.h **** /**
 169:C:/Users/Lenovo/workspace/dave_workspace/SOLAR_TOWER/Libraries/XMCLib/inc\xmc_usic.h ****  * USIC channel driver status
 170:C:/Users/Lenovo/workspace/dave_workspace/SOLAR_TOWER/Libraries/XMCLib/inc\xmc_usic.h ****  */
 171:C:/Users/Lenovo/workspace/dave_workspace/SOLAR_TOWER/Libraries/XMCLib/inc\xmc_usic.h **** typedef enum XMC_USIC_CH_STATUS
 172:C:/Users/Lenovo/workspace/dave_workspace/SOLAR_TOWER/Libraries/XMCLib/inc\xmc_usic.h **** {
 173:C:/Users/Lenovo/workspace/dave_workspace/SOLAR_TOWER/Libraries/XMCLib/inc\xmc_usic.h ****   XMC_USIC_CH_STATUS_OK,    /**< USIC driver status : OK */
 174:C:/Users/Lenovo/workspace/dave_workspace/SOLAR_TOWER/Libraries/XMCLib/inc\xmc_usic.h ****   XMC_USIC_CH_STATUS_ERROR, /**< USIC driver status : ERROR */
 175:C:/Users/Lenovo/workspace/dave_workspace/SOLAR_TOWER/Libraries/XMCLib/inc\xmc_usic.h ****   XMC_USIC_CH_STATUS_BUSY   /**< USIC driver status : BUSY */
 176:C:/Users/Lenovo/workspace/dave_workspace/SOLAR_TOWER/Libraries/XMCLib/inc\xmc_usic.h **** } XMC_USIC_CH_STATUS_t;
 177:C:/Users/Lenovo/workspace/dave_workspace/SOLAR_TOWER/Libraries/XMCLib/inc\xmc_usic.h **** 
 178:C:/Users/Lenovo/workspace/dave_workspace/SOLAR_TOWER/Libraries/XMCLib/inc\xmc_usic.h **** /**
 179:C:/Users/Lenovo/workspace/dave_workspace/SOLAR_TOWER/Libraries/XMCLib/inc\xmc_usic.h **** * USIC channel kernel mode
 180:C:/Users/Lenovo/workspace/dave_workspace/SOLAR_TOWER/Libraries/XMCLib/inc\xmc_usic.h **** */
 181:C:/Users/Lenovo/workspace/dave_workspace/SOLAR_TOWER/Libraries/XMCLib/inc\xmc_usic.h **** typedef enum XMC_USIC_CH_KERNEL_MODE
 182:C:/Users/Lenovo/workspace/dave_workspace/SOLAR_TOWER/Libraries/XMCLib/inc\xmc_usic.h **** {
 183:C:/Users/Lenovo/workspace/dave_workspace/SOLAR_TOWER/Libraries/XMCLib/inc\xmc_usic.h ****   XMC_USIC_CH_KERNEL_MODE_RUN_0  = 0x0UL,  /**< Run mode 0 (transmission and reception possible)*/
 184:C:/Users/Lenovo/workspace/dave_workspace/SOLAR_TOWER/Libraries/XMCLib/inc\xmc_usic.h ****   XMC_USIC_CH_KERNEL_MODE_RUN_1  = 0x1UL << USIC_CH_KSCFG_NOMCFG_Pos,  /**< Run mode 1 (transmissio
 185:C:/Users/Lenovo/workspace/dave_workspace/SOLAR_TOWER/Libraries/XMCLib/inc\xmc_usic.h ****   XMC_USIC_CH_KERNEL_MODE_STOP_0 = 0x2UL << USIC_CH_KSCFG_NOMCFG_Pos,  /**< Stop mode 0 (no transmi
 186:C:/Users/Lenovo/workspace/dave_workspace/SOLAR_TOWER/Libraries/XMCLib/inc\xmc_usic.h ****   XMC_USIC_CH_KERNEL_MODE_STOP_1 = 0x3UL << USIC_CH_KSCFG_NOMCFG_Pos   /**< Stop mode 1 (both trans
 187:C:/Users/Lenovo/workspace/dave_workspace/SOLAR_TOWER/Libraries/XMCLib/inc\xmc_usic.h **** } XMC_USIC_CH_KERNEL_MODE_t;
 188:C:/Users/Lenovo/workspace/dave_workspace/SOLAR_TOWER/Libraries/XMCLib/inc\xmc_usic.h **** 
 189:C:/Users/Lenovo/workspace/dave_workspace/SOLAR_TOWER/Libraries/XMCLib/inc\xmc_usic.h **** /**
 190:C:/Users/Lenovo/workspace/dave_workspace/SOLAR_TOWER/Libraries/XMCLib/inc\xmc_usic.h ****  * USIC channel operating mode
 191:C:/Users/Lenovo/workspace/dave_workspace/SOLAR_TOWER/Libraries/XMCLib/inc\xmc_usic.h ****  */
 192:C:/Users/Lenovo/workspace/dave_workspace/SOLAR_TOWER/Libraries/XMCLib/inc\xmc_usic.h **** typedef enum XMC_USIC_CH_OPERATING_MODE
 193:C:/Users/Lenovo/workspace/dave_workspace/SOLAR_TOWER/Libraries/XMCLib/inc\xmc_usic.h **** {
 194:C:/Users/Lenovo/workspace/dave_workspace/SOLAR_TOWER/Libraries/XMCLib/inc\xmc_usic.h ****   XMC_USIC_CH_OPERATING_MODE_IDLE = 0x0UL, /**< USIC channel idle */
 195:C:/Users/Lenovo/workspace/dave_workspace/SOLAR_TOWER/Libraries/XMCLib/inc\xmc_usic.h ****   XMC_USIC_CH_OPERATING_MODE_SPI  = 0x1UL << USIC_CH_CCR_MODE_Pos, /**< SPI mode */
 196:C:/Users/Lenovo/workspace/dave_workspace/SOLAR_TOWER/Libraries/XMCLib/inc\xmc_usic.h ****   XMC_USIC_CH_OPERATING_MODE_UART = 0x2UL << USIC_CH_CCR_MODE_Pos, /**< UART mode */
 197:C:/Users/Lenovo/workspace/dave_workspace/SOLAR_TOWER/Libraries/XMCLib/inc\xmc_usic.h ****   XMC_USIC_CH_OPERATING_MODE_I2S  = 0x3UL << USIC_CH_CCR_MODE_Pos, /**< I2S mode */
 198:C:/Users/Lenovo/workspace/dave_workspace/SOLAR_TOWER/Libraries/XMCLib/inc\xmc_usic.h ****   XMC_USIC_CH_OPERATING_MODE_I2C  = 0x4UL << USIC_CH_CCR_MODE_Pos  /**< I2C mode */
 199:C:/Users/Lenovo/workspace/dave_workspace/SOLAR_TOWER/Libraries/XMCLib/inc\xmc_usic.h **** } XMC_USIC_CH_OPERATING_MODE_t;
 200:C:/Users/Lenovo/workspace/dave_workspace/SOLAR_TOWER/Libraries/XMCLib/inc\xmc_usic.h **** 
 201:C:/Users/Lenovo/workspace/dave_workspace/SOLAR_TOWER/Libraries/XMCLib/inc\xmc_usic.h **** /**
 202:C:/Users/Lenovo/workspace/dave_workspace/SOLAR_TOWER/Libraries/XMCLib/inc\xmc_usic.h ****  * USIC channel inputs
 203:C:/Users/Lenovo/workspace/dave_workspace/SOLAR_TOWER/Libraries/XMCLib/inc\xmc_usic.h ****  */
 204:C:/Users/Lenovo/workspace/dave_workspace/SOLAR_TOWER/Libraries/XMCLib/inc\xmc_usic.h **** typedef enum XMC_USIC_CH_INPUT
 205:C:/Users/Lenovo/workspace/dave_workspace/SOLAR_TOWER/Libraries/XMCLib/inc\xmc_usic.h **** {
 206:C:/Users/Lenovo/workspace/dave_workspace/SOLAR_TOWER/Libraries/XMCLib/inc\xmc_usic.h ****   XMC_USIC_CH_INPUT_DX0, /**< DX0 input */
 207:C:/Users/Lenovo/workspace/dave_workspace/SOLAR_TOWER/Libraries/XMCLib/inc\xmc_usic.h ****   XMC_USIC_CH_INPUT_DX1, /**< DX1 input */
 208:C:/Users/Lenovo/workspace/dave_workspace/SOLAR_TOWER/Libraries/XMCLib/inc\xmc_usic.h ****   XMC_USIC_CH_INPUT_DX2, /**< DX2 input */
 209:C:/Users/Lenovo/workspace/dave_workspace/SOLAR_TOWER/Libraries/XMCLib/inc\xmc_usic.h ****   XMC_USIC_CH_INPUT_DX3, /**< DX3 input */
 210:C:/Users/Lenovo/workspace/dave_workspace/SOLAR_TOWER/Libraries/XMCLib/inc\xmc_usic.h ****   XMC_USIC_CH_INPUT_DX4, /**< DX4 input */
 211:C:/Users/Lenovo/workspace/dave_workspace/SOLAR_TOWER/Libraries/XMCLib/inc\xmc_usic.h ****   XMC_USIC_CH_INPUT_DX5  /**< DX5 input */
 212:C:/Users/Lenovo/workspace/dave_workspace/SOLAR_TOWER/Libraries/XMCLib/inc\xmc_usic.h **** } XMC_USIC_CH_INPUT_t;
 213:C:/Users/Lenovo/workspace/dave_workspace/SOLAR_TOWER/Libraries/XMCLib/inc\xmc_usic.h **** 
 214:C:/Users/Lenovo/workspace/dave_workspace/SOLAR_TOWER/Libraries/XMCLib/inc\xmc_usic.h **** /**
 215:C:/Users/Lenovo/workspace/dave_workspace/SOLAR_TOWER/Libraries/XMCLib/inc\xmc_usic.h ****  * USIC channel input source sampling frequency
 216:C:/Users/Lenovo/workspace/dave_workspace/SOLAR_TOWER/Libraries/XMCLib/inc\xmc_usic.h ****  */
 217:C:/Users/Lenovo/workspace/dave_workspace/SOLAR_TOWER/Libraries/XMCLib/inc\xmc_usic.h **** typedef enum XMC_USIC_CH_INPUT_SAMPLING_FREQ
 218:C:/Users/Lenovo/workspace/dave_workspace/SOLAR_TOWER/Libraries/XMCLib/inc\xmc_usic.h **** {
 219:C:/Users/Lenovo/workspace/dave_workspace/SOLAR_TOWER/Libraries/XMCLib/inc\xmc_usic.h ****   XMC_USIC_CH_INPUT_SAMPLING_FREQ_FPERIPH            = 0x0UL, /**< Use fperiph frequency for input 
 220:C:/Users/Lenovo/workspace/dave_workspace/SOLAR_TOWER/Libraries/XMCLib/inc\xmc_usic.h ****   XMC_USIC_CH_INPUT_SAMPLING_FREQ_FRACTIONAL_DIVIDER = 0x1UL << USIC_CH_DXCR_SFSEL_Pos  /**< Use fF
 221:C:/Users/Lenovo/workspace/dave_workspace/SOLAR_TOWER/Libraries/XMCLib/inc\xmc_usic.h **** } XMC_USIC_CH_INPUT_SAMPLING_FREQ_t;
 222:C:/Users/Lenovo/workspace/dave_workspace/SOLAR_TOWER/Libraries/XMCLib/inc\xmc_usic.h **** 
 223:C:/Users/Lenovo/workspace/dave_workspace/SOLAR_TOWER/Libraries/XMCLib/inc\xmc_usic.h **** /**
 224:C:/Users/Lenovo/workspace/dave_workspace/SOLAR_TOWER/Libraries/XMCLib/inc\xmc_usic.h ****  * USIC channel input combination mode
 225:C:/Users/Lenovo/workspace/dave_workspace/SOLAR_TOWER/Libraries/XMCLib/inc\xmc_usic.h ****  */
 226:C:/Users/Lenovo/workspace/dave_workspace/SOLAR_TOWER/Libraries/XMCLib/inc\xmc_usic.h **** typedef enum XMC_USIC_CH_INPUT_COMBINATION_MODE
 227:C:/Users/Lenovo/workspace/dave_workspace/SOLAR_TOWER/Libraries/XMCLib/inc\xmc_usic.h **** {
 228:C:/Users/Lenovo/workspace/dave_workspace/SOLAR_TOWER/Libraries/XMCLib/inc\xmc_usic.h ****   XMC_USIC_CH_INPUT_COMBINATION_MODE_TRIGGER_DISABLED = 0x0UL, /**< The trigger activation is disab
 229:C:/Users/Lenovo/workspace/dave_workspace/SOLAR_TOWER/Libraries/XMCLib/inc\xmc_usic.h ****   XMC_USIC_CH_INPUT_COMBINATION_MODE_RISING_EDGE      = 0x1UL, /**< A rising edge activates DXnT*/
 230:C:/Users/Lenovo/workspace/dave_workspace/SOLAR_TOWER/Libraries/XMCLib/inc\xmc_usic.h ****   XMC_USIC_CH_INPUT_COMBINATION_MODE_FALLING_EDGE     = 0x2UL, /**< A falling edge activates DXnT*/
 231:C:/Users/Lenovo/workspace/dave_workspace/SOLAR_TOWER/Libraries/XMCLib/inc\xmc_usic.h ****   XMC_USIC_CH_INPUT_COMBINATION_MODE_BOTH_EDGES       = 0x3UL, /**< Both edges activate DXnT*/
 232:C:/Users/Lenovo/workspace/dave_workspace/SOLAR_TOWER/Libraries/XMCLib/inc\xmc_usic.h **** } XMC_USIC_CH_INPUT_COMBINATION_MODE_t;
 233:C:/Users/Lenovo/workspace/dave_workspace/SOLAR_TOWER/Libraries/XMCLib/inc\xmc_usic.h **** 
 234:C:/Users/Lenovo/workspace/dave_workspace/SOLAR_TOWER/Libraries/XMCLib/inc\xmc_usic.h **** /**
 235:C:/Users/Lenovo/workspace/dave_workspace/SOLAR_TOWER/Libraries/XMCLib/inc\xmc_usic.h ****  * USIC channel data transmission start modes.
 236:C:/Users/Lenovo/workspace/dave_workspace/SOLAR_TOWER/Libraries/XMCLib/inc\xmc_usic.h ****  * Data shifted out of the transmit pin depends on the value configured for the
 237:C:/Users/Lenovo/workspace/dave_workspace/SOLAR_TOWER/Libraries/XMCLib/inc\xmc_usic.h ****  * TDEN bitfield of the TCSR register. Following enum values are used for configuring
 238:C:/Users/Lenovo/workspace/dave_workspace/SOLAR_TOWER/Libraries/XMCLib/inc\xmc_usic.h ****  * the TCSR->TDEN bitfield.
 239:C:/Users/Lenovo/workspace/dave_workspace/SOLAR_TOWER/Libraries/XMCLib/inc\xmc_usic.h ****  */
 240:C:/Users/Lenovo/workspace/dave_workspace/SOLAR_TOWER/Libraries/XMCLib/inc\xmc_usic.h **** typedef enum XMC_USIC_CH_START_TRANSMISION_MODE
 241:C:/Users/Lenovo/workspace/dave_workspace/SOLAR_TOWER/Libraries/XMCLib/inc\xmc_usic.h **** {
 242:C:/Users/Lenovo/workspace/dave_workspace/SOLAR_TOWER/Libraries/XMCLib/inc\xmc_usic.h ****   XMC_USIC_CH_START_TRANSMISION_DISABLED      = 0x0U, /**< Passive data level is sent out on transm
 243:C:/Users/Lenovo/workspace/dave_workspace/SOLAR_TOWER/Libraries/XMCLib/inc\xmc_usic.h ****   XMC_USIC_CH_START_TRANSMISION_ON_TDV        = 0x1UL << USIC_CH_TCSR_TDEN_Pos, /**< Transmission o
 244:C:/Users/Lenovo/workspace/dave_workspace/SOLAR_TOWER/Libraries/XMCLib/inc\xmc_usic.h ****   XMC_USIC_CH_START_TRANSMISION_ON_TDV_DX2S_0 = 0x2UL << USIC_CH_TCSR_TDEN_Pos, /**< Transmission o
 245:C:/Users/Lenovo/workspace/dave_workspace/SOLAR_TOWER/Libraries/XMCLib/inc\xmc_usic.h ****   XMC_USIC_CH_START_TRANSMISION_ON_TDV_DX2S_1 = 0x3UL << USIC_CH_TCSR_TDEN_Pos  /**< Transmission o
 246:C:/Users/Lenovo/workspace/dave_workspace/SOLAR_TOWER/Libraries/XMCLib/inc\xmc_usic.h **** } XMC_USIC_CH_START_TRANSMISION_MODE_t;
 247:C:/Users/Lenovo/workspace/dave_workspace/SOLAR_TOWER/Libraries/XMCLib/inc\xmc_usic.h **** 
 248:C:/Users/Lenovo/workspace/dave_workspace/SOLAR_TOWER/Libraries/XMCLib/inc\xmc_usic.h **** /**
 249:C:/Users/Lenovo/workspace/dave_workspace/SOLAR_TOWER/Libraries/XMCLib/inc\xmc_usic.h ****  * USIC channel interrupt node pointers
 250:C:/Users/Lenovo/workspace/dave_workspace/SOLAR_TOWER/Libraries/XMCLib/inc\xmc_usic.h ****  */
 251:C:/Users/Lenovo/workspace/dave_workspace/SOLAR_TOWER/Libraries/XMCLib/inc\xmc_usic.h **** typedef enum XMC_USIC_CH_INTERRUPT_NODE_POINTER
 252:C:/Users/Lenovo/workspace/dave_workspace/SOLAR_TOWER/Libraries/XMCLib/inc\xmc_usic.h **** {
 253:C:/Users/Lenovo/workspace/dave_workspace/SOLAR_TOWER/Libraries/XMCLib/inc\xmc_usic.h ****   XMC_USIC_CH_INTERRUPT_NODE_POINTER_TRANSMIT_SHIFT      = USIC_CH_INPR_TSINP_Pos, /**< Node pointe
 254:C:/Users/Lenovo/workspace/dave_workspace/SOLAR_TOWER/Libraries/XMCLib/inc\xmc_usic.h ****   XMC_USIC_CH_INTERRUPT_NODE_POINTER_TRANSMIT_BUFFER     = USIC_CH_INPR_TBINP_Pos, /**< Node pointe
 255:C:/Users/Lenovo/workspace/dave_workspace/SOLAR_TOWER/Libraries/XMCLib/inc\xmc_usic.h ****   XMC_USIC_CH_INTERRUPT_NODE_POINTER_RECEIVE             = USIC_CH_INPR_RINP_Pos,  /**< Node pointe
 256:C:/Users/Lenovo/workspace/dave_workspace/SOLAR_TOWER/Libraries/XMCLib/inc\xmc_usic.h ****   XMC_USIC_CH_INTERRUPT_NODE_POINTER_ALTERNATE_RECEIVE   = USIC_CH_INPR_AINP_Pos,  /**< Node pointe
 257:C:/Users/Lenovo/workspace/dave_workspace/SOLAR_TOWER/Libraries/XMCLib/inc\xmc_usic.h ****   XMC_USIC_CH_INTERRUPT_NODE_POINTER_PROTOCOL            = USIC_CH_INPR_PINP_Pos   /**< Node pointe
 258:C:/Users/Lenovo/workspace/dave_workspace/SOLAR_TOWER/Libraries/XMCLib/inc\xmc_usic.h **** } XMC_USIC_CH_INTERRUPT_NODE_POINTER_t;
 259:C:/Users/Lenovo/workspace/dave_workspace/SOLAR_TOWER/Libraries/XMCLib/inc\xmc_usic.h **** 
 260:C:/Users/Lenovo/workspace/dave_workspace/SOLAR_TOWER/Libraries/XMCLib/inc\xmc_usic.h **** /**
 261:C:/Users/Lenovo/workspace/dave_workspace/SOLAR_TOWER/Libraries/XMCLib/inc\xmc_usic.h ****  * USIC channel events
 262:C:/Users/Lenovo/workspace/dave_workspace/SOLAR_TOWER/Libraries/XMCLib/inc\xmc_usic.h ****  */
 263:C:/Users/Lenovo/workspace/dave_workspace/SOLAR_TOWER/Libraries/XMCLib/inc\xmc_usic.h **** typedef enum XMC_USIC_CH_EVENT
 264:C:/Users/Lenovo/workspace/dave_workspace/SOLAR_TOWER/Libraries/XMCLib/inc\xmc_usic.h **** {
 265:C:/Users/Lenovo/workspace/dave_workspace/SOLAR_TOWER/Libraries/XMCLib/inc\xmc_usic.h ****   XMC_USIC_CH_EVENT_RECEIVE_START       = USIC_CH_CCR_RSIEN_Msk, /**< Receive start event */
 266:C:/Users/Lenovo/workspace/dave_workspace/SOLAR_TOWER/Libraries/XMCLib/inc\xmc_usic.h ****   XMC_USIC_CH_EVENT_DATA_LOST           = USIC_CH_CCR_DLIEN_Msk, /**< Data lost event */
 267:C:/Users/Lenovo/workspace/dave_workspace/SOLAR_TOWER/Libraries/XMCLib/inc\xmc_usic.h ****   XMC_USIC_CH_EVENT_TRANSMIT_SHIFT      = USIC_CH_CCR_TSIEN_Msk, /**< Transmit shift event */
 268:C:/Users/Lenovo/workspace/dave_workspace/SOLAR_TOWER/Libraries/XMCLib/inc\xmc_usic.h ****   XMC_USIC_CH_EVENT_TRANSMIT_BUFFER     = USIC_CH_CCR_TBIEN_Msk, /**< Transmit buffer event */
 269:C:/Users/Lenovo/workspace/dave_workspace/SOLAR_TOWER/Libraries/XMCLib/inc\xmc_usic.h ****   XMC_USIC_CH_EVENT_STANDARD_RECEIVE    = USIC_CH_CCR_RIEN_Msk,  /**< Receive event */
 270:C:/Users/Lenovo/workspace/dave_workspace/SOLAR_TOWER/Libraries/XMCLib/inc\xmc_usic.h ****   XMC_USIC_CH_EVENT_ALTERNATIVE_RECEIVE = USIC_CH_CCR_AIEN_Msk,  /**< Alternate receive event */
 271:C:/Users/Lenovo/workspace/dave_workspace/SOLAR_TOWER/Libraries/XMCLib/inc\xmc_usic.h ****   XMC_USIC_CH_EVENT_BAUD_RATE_GENERATOR = USIC_CH_CCR_BRGIEN_Msk /**< Baudrate generator event */
 272:C:/Users/Lenovo/workspace/dave_workspace/SOLAR_TOWER/Libraries/XMCLib/inc\xmc_usic.h **** } XMC_USIC_CH_EVENT_t;
 273:C:/Users/Lenovo/workspace/dave_workspace/SOLAR_TOWER/Libraries/XMCLib/inc\xmc_usic.h **** 
 274:C:/Users/Lenovo/workspace/dave_workspace/SOLAR_TOWER/Libraries/XMCLib/inc\xmc_usic.h **** /**
 275:C:/Users/Lenovo/workspace/dave_workspace/SOLAR_TOWER/Libraries/XMCLib/inc\xmc_usic.h **** * USIC channel parity mode
 276:C:/Users/Lenovo/workspace/dave_workspace/SOLAR_TOWER/Libraries/XMCLib/inc\xmc_usic.h **** */
 277:C:/Users/Lenovo/workspace/dave_workspace/SOLAR_TOWER/Libraries/XMCLib/inc\xmc_usic.h **** typedef enum XMC_USIC_CH_PARITY_MODE
 278:C:/Users/Lenovo/workspace/dave_workspace/SOLAR_TOWER/Libraries/XMCLib/inc\xmc_usic.h **** {
 279:C:/Users/Lenovo/workspace/dave_workspace/SOLAR_TOWER/Libraries/XMCLib/inc\xmc_usic.h ****   XMC_USIC_CH_PARITY_MODE_NONE     = 0x0UL,  /**< Disable parity mode */
 280:C:/Users/Lenovo/workspace/dave_workspace/SOLAR_TOWER/Libraries/XMCLib/inc\xmc_usic.h ****   XMC_USIC_CH_PARITY_MODE_EVEN     = 0x2UL << USIC_CH_CCR_PM_Pos,  /**< Enable even parity mode */
 281:C:/Users/Lenovo/workspace/dave_workspace/SOLAR_TOWER/Libraries/XMCLib/inc\xmc_usic.h ****   XMC_USIC_CH_PARITY_MODE_ODD      = 0x3UL << USIC_CH_CCR_PM_Pos   /**< Enable odd parity mode */
 282:C:/Users/Lenovo/workspace/dave_workspace/SOLAR_TOWER/Libraries/XMCLib/inc\xmc_usic.h **** } XMC_USIC_CH_PARITY_MODE_t;
 283:C:/Users/Lenovo/workspace/dave_workspace/SOLAR_TOWER/Libraries/XMCLib/inc\xmc_usic.h **** 
 284:C:/Users/Lenovo/workspace/dave_workspace/SOLAR_TOWER/Libraries/XMCLib/inc\xmc_usic.h **** /**
 285:C:/Users/Lenovo/workspace/dave_workspace/SOLAR_TOWER/Libraries/XMCLib/inc\xmc_usic.h **** * USIC channel data output mode
 286:C:/Users/Lenovo/workspace/dave_workspace/SOLAR_TOWER/Libraries/XMCLib/inc\xmc_usic.h **** */
 287:C:/Users/Lenovo/workspace/dave_workspace/SOLAR_TOWER/Libraries/XMCLib/inc\xmc_usic.h **** typedef enum XMC_USIC_CH_DATA_OUTPUT_MODE
 288:C:/Users/Lenovo/workspace/dave_workspace/SOLAR_TOWER/Libraries/XMCLib/inc\xmc_usic.h **** {
 289:C:/Users/Lenovo/workspace/dave_workspace/SOLAR_TOWER/Libraries/XMCLib/inc\xmc_usic.h ****   XMC_USIC_CH_DATA_OUTPUT_MODE_NORMAL   = 0x0UL,  /**< Data output normal mode */
 290:C:/Users/Lenovo/workspace/dave_workspace/SOLAR_TOWER/Libraries/XMCLib/inc\xmc_usic.h ****   XMC_USIC_CH_DATA_OUTPUT_MODE_INVERTED = 0x1UL << USIC_CH_SCTR_DOCFG_Pos   /**< Data output invert
 291:C:/Users/Lenovo/workspace/dave_workspace/SOLAR_TOWER/Libraries/XMCLib/inc\xmc_usic.h **** } XMC_USIC_CH_DATA_OUTPUT_MODE_t;
 292:C:/Users/Lenovo/workspace/dave_workspace/SOLAR_TOWER/Libraries/XMCLib/inc\xmc_usic.h **** 
 293:C:/Users/Lenovo/workspace/dave_workspace/SOLAR_TOWER/Libraries/XMCLib/inc\xmc_usic.h **** /**
 294:C:/Users/Lenovo/workspace/dave_workspace/SOLAR_TOWER/Libraries/XMCLib/inc\xmc_usic.h **** * USIC channel data transmit buffer status
 295:C:/Users/Lenovo/workspace/dave_workspace/SOLAR_TOWER/Libraries/XMCLib/inc\xmc_usic.h **** */
 296:C:/Users/Lenovo/workspace/dave_workspace/SOLAR_TOWER/Libraries/XMCLib/inc\xmc_usic.h **** typedef enum XMC_USIC_CH_TBUF_STATUS
 297:C:/Users/Lenovo/workspace/dave_workspace/SOLAR_TOWER/Libraries/XMCLib/inc\xmc_usic.h **** {
 298:C:/Users/Lenovo/workspace/dave_workspace/SOLAR_TOWER/Libraries/XMCLib/inc\xmc_usic.h ****   XMC_USIC_CH_TBUF_STATUS_IDLE = 0x0UL,                 /**< Transfer buffer is currently idle*/
 299:C:/Users/Lenovo/workspace/dave_workspace/SOLAR_TOWER/Libraries/XMCLib/inc\xmc_usic.h ****   XMC_USIC_CH_TBUF_STATUS_BUSY = USIC_CH_TCSR_TDV_Msk   /**< Transfer buffer is currently busy*/
 300:C:/Users/Lenovo/workspace/dave_workspace/SOLAR_TOWER/Libraries/XMCLib/inc\xmc_usic.h **** } XMC_USIC_CH_TBUF_STATUS_t;
 301:C:/Users/Lenovo/workspace/dave_workspace/SOLAR_TOWER/Libraries/XMCLib/inc\xmc_usic.h **** 
 302:C:/Users/Lenovo/workspace/dave_workspace/SOLAR_TOWER/Libraries/XMCLib/inc\xmc_usic.h **** 
 303:C:/Users/Lenovo/workspace/dave_workspace/SOLAR_TOWER/Libraries/XMCLib/inc\xmc_usic.h **** 
 304:C:/Users/Lenovo/workspace/dave_workspace/SOLAR_TOWER/Libraries/XMCLib/inc\xmc_usic.h **** /**
 305:C:/Users/Lenovo/workspace/dave_workspace/SOLAR_TOWER/Libraries/XMCLib/inc\xmc_usic.h **** * USIC channel data transmit buffer status modification
 306:C:/Users/Lenovo/workspace/dave_workspace/SOLAR_TOWER/Libraries/XMCLib/inc\xmc_usic.h **** */
 307:C:/Users/Lenovo/workspace/dave_workspace/SOLAR_TOWER/Libraries/XMCLib/inc\xmc_usic.h **** typedef enum XMC_USIC_CH_TBUF_STATUS_SET
 308:C:/Users/Lenovo/workspace/dave_workspace/SOLAR_TOWER/Libraries/XMCLib/inc\xmc_usic.h **** {
 309:C:/Users/Lenovo/workspace/dave_workspace/SOLAR_TOWER/Libraries/XMCLib/inc\xmc_usic.h ****   XMC_USIC_CH_TBUF_STATUS_SET_BUSY   = 0x1UL, /**< Set Transfer buffer status to busy*/
 310:C:/Users/Lenovo/workspace/dave_workspace/SOLAR_TOWER/Libraries/XMCLib/inc\xmc_usic.h ****   XMC_USIC_CH_TBUF_STATUS_SET_IDLE   = 0x2UL  /**< Set Transfer buffer status to idle*/
 311:C:/Users/Lenovo/workspace/dave_workspace/SOLAR_TOWER/Libraries/XMCLib/inc\xmc_usic.h **** } XMC_USIC_CH_TBUF_STATUS_SET_t;
 312:C:/Users/Lenovo/workspace/dave_workspace/SOLAR_TOWER/Libraries/XMCLib/inc\xmc_usic.h **** 
 313:C:/Users/Lenovo/workspace/dave_workspace/SOLAR_TOWER/Libraries/XMCLib/inc\xmc_usic.h **** /**
 314:C:/Users/Lenovo/workspace/dave_workspace/SOLAR_TOWER/Libraries/XMCLib/inc\xmc_usic.h **** * USIC channel receive buffer status
 315:C:/Users/Lenovo/workspace/dave_workspace/SOLAR_TOWER/Libraries/XMCLib/inc\xmc_usic.h **** */
 316:C:/Users/Lenovo/workspace/dave_workspace/SOLAR_TOWER/Libraries/XMCLib/inc\xmc_usic.h **** typedef enum XMC_USIC_CH_RBUF_STATUS
 317:C:/Users/Lenovo/workspace/dave_workspace/SOLAR_TOWER/Libraries/XMCLib/inc\xmc_usic.h **** {
 318:C:/Users/Lenovo/workspace/dave_workspace/SOLAR_TOWER/Libraries/XMCLib/inc\xmc_usic.h ****   XMC_USIC_CH_RBUF_STATUS_DATA_VALID0 = USIC_CH_RBUFSR_RDV0_Msk, /**< RBUF0 data has not yet been r
 319:C:/Users/Lenovo/workspace/dave_workspace/SOLAR_TOWER/Libraries/XMCLib/inc\xmc_usic.h ****   XMC_USIC_CH_RBUF_STATUS_DATA_VALID1 = USIC_CH_RBUFSR_RDV1_Msk  /**< RBUF1 data has not yet been r
 320:C:/Users/Lenovo/workspace/dave_workspace/SOLAR_TOWER/Libraries/XMCLib/inc\xmc_usic.h **** } XMC_USIC_CH_RBUF_STATUS_t;
 321:C:/Users/Lenovo/workspace/dave_workspace/SOLAR_TOWER/Libraries/XMCLib/inc\xmc_usic.h **** 
 322:C:/Users/Lenovo/workspace/dave_workspace/SOLAR_TOWER/Libraries/XMCLib/inc\xmc_usic.h **** /**
 323:C:/Users/Lenovo/workspace/dave_workspace/SOLAR_TOWER/Libraries/XMCLib/inc\xmc_usic.h ****  * USIC channel output signal passive data level
 324:C:/Users/Lenovo/workspace/dave_workspace/SOLAR_TOWER/Libraries/XMCLib/inc\xmc_usic.h **** */
 325:C:/Users/Lenovo/workspace/dave_workspace/SOLAR_TOWER/Libraries/XMCLib/inc\xmc_usic.h **** typedef enum XMC_USCI_CH_PASSIVE_DATA_LEVEL
 326:C:/Users/Lenovo/workspace/dave_workspace/SOLAR_TOWER/Libraries/XMCLib/inc\xmc_usic.h **** {
 327:C:/Users/Lenovo/workspace/dave_workspace/SOLAR_TOWER/Libraries/XMCLib/inc\xmc_usic.h ****   XMC_USIC_CH_PASSIVE_DATA_LEVEL0 = 0x0UL, /**< Passive level(idle mode signal level) 0 */
 328:C:/Users/Lenovo/workspace/dave_workspace/SOLAR_TOWER/Libraries/XMCLib/inc\xmc_usic.h ****   XMC_USIC_CH_PASSIVE_DATA_LEVEL1 = 0x1UL << USIC_CH_SCTR_PDL_Pos  /**< Passive level(idle mode sig
 329:C:/Users/Lenovo/workspace/dave_workspace/SOLAR_TOWER/Libraries/XMCLib/inc\xmc_usic.h **** } XMC_USIC_CH_PASSIVE_DATA_LEVEL_t;
 330:C:/Users/Lenovo/workspace/dave_workspace/SOLAR_TOWER/Libraries/XMCLib/inc\xmc_usic.h **** 
 331:C:/Users/Lenovo/workspace/dave_workspace/SOLAR_TOWER/Libraries/XMCLib/inc\xmc_usic.h **** /**
 332:C:/Users/Lenovo/workspace/dave_workspace/SOLAR_TOWER/Libraries/XMCLib/inc\xmc_usic.h **** * USIC channel receive FIFO size
 333:C:/Users/Lenovo/workspace/dave_workspace/SOLAR_TOWER/Libraries/XMCLib/inc\xmc_usic.h **** */
 334:C:/Users/Lenovo/workspace/dave_workspace/SOLAR_TOWER/Libraries/XMCLib/inc\xmc_usic.h **** typedef enum XMC_USIC_CH_FIFO_SIZE
 335:C:/Users/Lenovo/workspace/dave_workspace/SOLAR_TOWER/Libraries/XMCLib/inc\xmc_usic.h **** {
 336:C:/Users/Lenovo/workspace/dave_workspace/SOLAR_TOWER/Libraries/XMCLib/inc\xmc_usic.h ****   XMC_USIC_CH_FIFO_DISABLED     = 0x0U,  /**< FIFO Disabled */
 337:C:/Users/Lenovo/workspace/dave_workspace/SOLAR_TOWER/Libraries/XMCLib/inc\xmc_usic.h ****   XMC_USIC_CH_FIFO_SIZE_2WORDS  = 0x1U,  /**< FIFO size: 2 words */
 338:C:/Users/Lenovo/workspace/dave_workspace/SOLAR_TOWER/Libraries/XMCLib/inc\xmc_usic.h ****   XMC_USIC_CH_FIFO_SIZE_4WORDS  = 0x2U,  /**< FIFO size: 4 words */
 339:C:/Users/Lenovo/workspace/dave_workspace/SOLAR_TOWER/Libraries/XMCLib/inc\xmc_usic.h ****   XMC_USIC_CH_FIFO_SIZE_8WORDS  = 0x3U,  /**< FIFO size: 8 words */
 340:C:/Users/Lenovo/workspace/dave_workspace/SOLAR_TOWER/Libraries/XMCLib/inc\xmc_usic.h ****   XMC_USIC_CH_FIFO_SIZE_16WORDS = 0x4U,  /**< FIFO size: 16 words */
 341:C:/Users/Lenovo/workspace/dave_workspace/SOLAR_TOWER/Libraries/XMCLib/inc\xmc_usic.h ****   XMC_USIC_CH_FIFO_SIZE_32WORDS = 0x5U,  /**< FIFO size: 32 words */
 342:C:/Users/Lenovo/workspace/dave_workspace/SOLAR_TOWER/Libraries/XMCLib/inc\xmc_usic.h ****   XMC_USIC_CH_FIFO_SIZE_64WORDS = 0x6U   /**< FIFO size: 64 words */
 343:C:/Users/Lenovo/workspace/dave_workspace/SOLAR_TOWER/Libraries/XMCLib/inc\xmc_usic.h **** } XMC_USIC_CH_FIFO_SIZE_t;
 344:C:/Users/Lenovo/workspace/dave_workspace/SOLAR_TOWER/Libraries/XMCLib/inc\xmc_usic.h **** 
 345:C:/Users/Lenovo/workspace/dave_workspace/SOLAR_TOWER/Libraries/XMCLib/inc\xmc_usic.h **** /**
 346:C:/Users/Lenovo/workspace/dave_workspace/SOLAR_TOWER/Libraries/XMCLib/inc\xmc_usic.h **** * USIC channel transmit FIFO interrupt node pointers
 347:C:/Users/Lenovo/workspace/dave_workspace/SOLAR_TOWER/Libraries/XMCLib/inc\xmc_usic.h **** */
 348:C:/Users/Lenovo/workspace/dave_workspace/SOLAR_TOWER/Libraries/XMCLib/inc\xmc_usic.h **** typedef enum XMC_USIC_CH_TXFIFO_INTERRUPT_NODE_POINTER
 349:C:/Users/Lenovo/workspace/dave_workspace/SOLAR_TOWER/Libraries/XMCLib/inc\xmc_usic.h **** {
 350:C:/Users/Lenovo/workspace/dave_workspace/SOLAR_TOWER/Libraries/XMCLib/inc\xmc_usic.h ****   XMC_USIC_CH_TXFIFO_INTERRUPT_NODE_POINTER_STANDARD  = USIC_CH_TBCTR_STBINP_Pos,  /**< Node pointe
 351:C:/Users/Lenovo/workspace/dave_workspace/SOLAR_TOWER/Libraries/XMCLib/inc\xmc_usic.h ****   XMC_USIC_CH_TXFIFO_INTERRUPT_NODE_POINTER_ALTERNATE = USIC_CH_TBCTR_ATBINP_Pos   /**< Node pointe
 352:C:/Users/Lenovo/workspace/dave_workspace/SOLAR_TOWER/Libraries/XMCLib/inc\xmc_usic.h **** } XMC_USIC_CH_TXFIFO_INTERRUPT_NODE_POINTER_t;
 353:C:/Users/Lenovo/workspace/dave_workspace/SOLAR_TOWER/Libraries/XMCLib/inc\xmc_usic.h **** 
 354:C:/Users/Lenovo/workspace/dave_workspace/SOLAR_TOWER/Libraries/XMCLib/inc\xmc_usic.h **** /**
 355:C:/Users/Lenovo/workspace/dave_workspace/SOLAR_TOWER/Libraries/XMCLib/inc\xmc_usic.h **** * USIC channel transmit FIFO event configuration
 356:C:/Users/Lenovo/workspace/dave_workspace/SOLAR_TOWER/Libraries/XMCLib/inc\xmc_usic.h **** */
 357:C:/Users/Lenovo/workspace/dave_workspace/SOLAR_TOWER/Libraries/XMCLib/inc\xmc_usic.h **** typedef enum XMC_USIC_CH_TXFIFO_EVENT_CONF
 358:C:/Users/Lenovo/workspace/dave_workspace/SOLAR_TOWER/Libraries/XMCLib/inc\xmc_usic.h **** {
 359:C:/Users/Lenovo/workspace/dave_workspace/SOLAR_TOWER/Libraries/XMCLib/inc\xmc_usic.h ****   XMC_USIC_CH_TXFIFO_EVENT_CONF_STANDARD  = USIC_CH_TBCTR_STBIEN_Msk,   /**< Enable FIFO standard t
 360:C:/Users/Lenovo/workspace/dave_workspace/SOLAR_TOWER/Libraries/XMCLib/inc\xmc_usic.h ****   XMC_USIC_CH_TXFIFO_EVENT_CONF_ERROR     = (int32_t)USIC_CH_TBCTR_TBERIEN_Msk  /**< Enable transmi
 361:C:/Users/Lenovo/workspace/dave_workspace/SOLAR_TOWER/Libraries/XMCLib/inc\xmc_usic.h **** } XMC_USIC_CH_TXFIFO_EVENT_CONF_t;
 362:C:/Users/Lenovo/workspace/dave_workspace/SOLAR_TOWER/Libraries/XMCLib/inc\xmc_usic.h **** 
 363:C:/Users/Lenovo/workspace/dave_workspace/SOLAR_TOWER/Libraries/XMCLib/inc\xmc_usic.h **** /**
 364:C:/Users/Lenovo/workspace/dave_workspace/SOLAR_TOWER/Libraries/XMCLib/inc\xmc_usic.h **** * USIC channel transmit FIFO status
 365:C:/Users/Lenovo/workspace/dave_workspace/SOLAR_TOWER/Libraries/XMCLib/inc\xmc_usic.h **** */
 366:C:/Users/Lenovo/workspace/dave_workspace/SOLAR_TOWER/Libraries/XMCLib/inc\xmc_usic.h **** typedef enum XMC_USIC_CH_TXFIFO_EVENT
 367:C:/Users/Lenovo/workspace/dave_workspace/SOLAR_TOWER/Libraries/XMCLib/inc\xmc_usic.h **** {
 368:C:/Users/Lenovo/workspace/dave_workspace/SOLAR_TOWER/Libraries/XMCLib/inc\xmc_usic.h ****   XMC_USIC_CH_TXFIFO_EVENT_STANDARD = USIC_CH_TRBSR_STBI_Msk,    /**< Transmit FIFO status: Standar
 369:C:/Users/Lenovo/workspace/dave_workspace/SOLAR_TOWER/Libraries/XMCLib/inc\xmc_usic.h ****   XMC_USIC_CH_TXFIFO_EVENT_ERROR    = USIC_CH_TRBSR_TBERI_Msk    /**< Transmit FIFO status: Error e
 370:C:/Users/Lenovo/workspace/dave_workspace/SOLAR_TOWER/Libraries/XMCLib/inc\xmc_usic.h **** } XMC_USIC_CH_TXFIFO_EVENT_t;
 371:C:/Users/Lenovo/workspace/dave_workspace/SOLAR_TOWER/Libraries/XMCLib/inc\xmc_usic.h **** 
 372:C:/Users/Lenovo/workspace/dave_workspace/SOLAR_TOWER/Libraries/XMCLib/inc\xmc_usic.h **** /**
 373:C:/Users/Lenovo/workspace/dave_workspace/SOLAR_TOWER/Libraries/XMCLib/inc\xmc_usic.h **** * USIC channel receive FIFO interrupt node pointers
 374:C:/Users/Lenovo/workspace/dave_workspace/SOLAR_TOWER/Libraries/XMCLib/inc\xmc_usic.h **** */
 375:C:/Users/Lenovo/workspace/dave_workspace/SOLAR_TOWER/Libraries/XMCLib/inc\xmc_usic.h **** typedef enum XMC_USIC_CH_RXFIFO_INTERRUPT_NODE_POINTER
 376:C:/Users/Lenovo/workspace/dave_workspace/SOLAR_TOWER/Libraries/XMCLib/inc\xmc_usic.h **** {
 377:C:/Users/Lenovo/workspace/dave_workspace/SOLAR_TOWER/Libraries/XMCLib/inc\xmc_usic.h ****   XMC_USIC_CH_RXFIFO_INTERRUPT_NODE_POINTER_STANDARD  = USIC_CH_RBCTR_SRBINP_Pos, /**< Node pointer
 378:C:/Users/Lenovo/workspace/dave_workspace/SOLAR_TOWER/Libraries/XMCLib/inc\xmc_usic.h ****   XMC_USIC_CH_RXFIFO_INTERRUPT_NODE_POINTER_ALTERNATE = USIC_CH_RBCTR_ARBINP_Pos  /**< Node pointer
 379:C:/Users/Lenovo/workspace/dave_workspace/SOLAR_TOWER/Libraries/XMCLib/inc\xmc_usic.h **** } XMC_USIC_CH_RXFIFO_INTERRUPT_NODE_POINTER_t;
 380:C:/Users/Lenovo/workspace/dave_workspace/SOLAR_TOWER/Libraries/XMCLib/inc\xmc_usic.h **** 
 381:C:/Users/Lenovo/workspace/dave_workspace/SOLAR_TOWER/Libraries/XMCLib/inc\xmc_usic.h **** /**
 382:C:/Users/Lenovo/workspace/dave_workspace/SOLAR_TOWER/Libraries/XMCLib/inc\xmc_usic.h **** * USIC channel receive FIFO event configuration
 383:C:/Users/Lenovo/workspace/dave_workspace/SOLAR_TOWER/Libraries/XMCLib/inc\xmc_usic.h **** */
 384:C:/Users/Lenovo/workspace/dave_workspace/SOLAR_TOWER/Libraries/XMCLib/inc\xmc_usic.h **** typedef enum XMC_USIC_CH_RXFIFO_EVENT_CONF
 385:C:/Users/Lenovo/workspace/dave_workspace/SOLAR_TOWER/Libraries/XMCLib/inc\xmc_usic.h **** {
 386:C:/Users/Lenovo/workspace/dave_workspace/SOLAR_TOWER/Libraries/XMCLib/inc\xmc_usic.h ****   XMC_USIC_CH_RXFIFO_EVENT_CONF_STANDARD  = USIC_CH_RBCTR_SRBIEN_Msk,   /**< Enable FIFO standard r
 387:C:/Users/Lenovo/workspace/dave_workspace/SOLAR_TOWER/Libraries/XMCLib/inc\xmc_usic.h ****   XMC_USIC_CH_RXFIFO_EVENT_CONF_ERROR     = (int32_t)USIC_CH_RBCTR_RBERIEN_Msk,  /**< Enable receiv
 388:C:/Users/Lenovo/workspace/dave_workspace/SOLAR_TOWER/Libraries/XMCLib/inc\xmc_usic.h ****   XMC_USIC_CH_RXFIFO_EVENT_CONF_ALTERNATE = USIC_CH_RBCTR_ARBIEN_Msk   /**< Enable FIFO alternative
 389:C:/Users/Lenovo/workspace/dave_workspace/SOLAR_TOWER/Libraries/XMCLib/inc\xmc_usic.h **** } XMC_USIC_CH_RXFIFO_EVENT_CONF_t;
 390:C:/Users/Lenovo/workspace/dave_workspace/SOLAR_TOWER/Libraries/XMCLib/inc\xmc_usic.h **** 
 391:C:/Users/Lenovo/workspace/dave_workspace/SOLAR_TOWER/Libraries/XMCLib/inc\xmc_usic.h **** /**
 392:C:/Users/Lenovo/workspace/dave_workspace/SOLAR_TOWER/Libraries/XMCLib/inc\xmc_usic.h **** * USIC channel receive FIFO status
 393:C:/Users/Lenovo/workspace/dave_workspace/SOLAR_TOWER/Libraries/XMCLib/inc\xmc_usic.h **** */
 394:C:/Users/Lenovo/workspace/dave_workspace/SOLAR_TOWER/Libraries/XMCLib/inc\xmc_usic.h **** typedef enum XMC_USIC_CH_RXFIFO_EVENT
 395:C:/Users/Lenovo/workspace/dave_workspace/SOLAR_TOWER/Libraries/XMCLib/inc\xmc_usic.h **** {
 396:C:/Users/Lenovo/workspace/dave_workspace/SOLAR_TOWER/Libraries/XMCLib/inc\xmc_usic.h ****   XMC_USIC_CH_RXFIFO_EVENT_STANDARD  = USIC_CH_TRBSR_SRBI_Msk,   /**< Receive FIFO status: Standard
 397:C:/Users/Lenovo/workspace/dave_workspace/SOLAR_TOWER/Libraries/XMCLib/inc\xmc_usic.h ****   XMC_USIC_CH_RXFIFO_EVENT_ERROR     = USIC_CH_TRBSR_RBERI_Msk,  /**< Receive FIFO status: Error ev
 398:C:/Users/Lenovo/workspace/dave_workspace/SOLAR_TOWER/Libraries/XMCLib/inc\xmc_usic.h ****   XMC_USIC_CH_RXFIFO_EVENT_ALTERNATE = USIC_CH_TRBSR_ARBI_Msk    /**< Receive FIFO status: Alternat
 399:C:/Users/Lenovo/workspace/dave_workspace/SOLAR_TOWER/Libraries/XMCLib/inc\xmc_usic.h **** } XMC_USIC_CH_RXFIFO_EVENT_t;
 400:C:/Users/Lenovo/workspace/dave_workspace/SOLAR_TOWER/Libraries/XMCLib/inc\xmc_usic.h **** 
 401:C:/Users/Lenovo/workspace/dave_workspace/SOLAR_TOWER/Libraries/XMCLib/inc\xmc_usic.h **** /**
 402:C:/Users/Lenovo/workspace/dave_workspace/SOLAR_TOWER/Libraries/XMCLib/inc\xmc_usic.h **** * USIC channel baudrate generator clock source
 403:C:/Users/Lenovo/workspace/dave_workspace/SOLAR_TOWER/Libraries/XMCLib/inc\xmc_usic.h **** */
 404:C:/Users/Lenovo/workspace/dave_workspace/SOLAR_TOWER/Libraries/XMCLib/inc\xmc_usic.h **** typedef enum XMC_USIC_CH_BRG_CLOCK_SOURCE
 405:C:/Users/Lenovo/workspace/dave_workspace/SOLAR_TOWER/Libraries/XMCLib/inc\xmc_usic.h **** {
 406:C:/Users/Lenovo/workspace/dave_workspace/SOLAR_TOWER/Libraries/XMCLib/inc\xmc_usic.h ****   XMC_USIC_CH_BRG_CLOCK_SOURCE_DIVIDER = 0x0UL, /**< Baudrate generator clock source : Source divid
 407:C:/Users/Lenovo/workspace/dave_workspace/SOLAR_TOWER/Libraries/XMCLib/inc\xmc_usic.h ****   XMC_USIC_CH_BRG_CLOCK_SOURCE_DX1T    = 0x2UL << USIC_CH_BRG_CLKSEL_Pos  /**< Baudrate generator c
 408:C:/Users/Lenovo/workspace/dave_workspace/SOLAR_TOWER/Libraries/XMCLib/inc\xmc_usic.h **** } XMC_USIC_CH_BRG_CLOCK_SOURCE_t;
 409:C:/Users/Lenovo/workspace/dave_workspace/SOLAR_TOWER/Libraries/XMCLib/inc\xmc_usic.h **** 
 410:C:/Users/Lenovo/workspace/dave_workspace/SOLAR_TOWER/Libraries/XMCLib/inc\xmc_usic.h **** /**
 411:C:/Users/Lenovo/workspace/dave_workspace/SOLAR_TOWER/Libraries/XMCLib/inc\xmc_usic.h **** * USIC channel baudrate generator divider mode
 412:C:/Users/Lenovo/workspace/dave_workspace/SOLAR_TOWER/Libraries/XMCLib/inc\xmc_usic.h **** */
 413:C:/Users/Lenovo/workspace/dave_workspace/SOLAR_TOWER/Libraries/XMCLib/inc\xmc_usic.h **** typedef enum XMC_USIC_CH_BRG_CLOCK_DIVIDER_MODE
 414:C:/Users/Lenovo/workspace/dave_workspace/SOLAR_TOWER/Libraries/XMCLib/inc\xmc_usic.h **** {
 415:C:/Users/Lenovo/workspace/dave_workspace/SOLAR_TOWER/Libraries/XMCLib/inc\xmc_usic.h ****   XMC_USIC_CH_BRG_CLOCK_DIVIDER_MODE_DISABLED   = 0x0UL, /**< Baudrate generator clock divider: Dis
 416:C:/Users/Lenovo/workspace/dave_workspace/SOLAR_TOWER/Libraries/XMCLib/inc\xmc_usic.h ****   XMC_USIC_CH_BRG_CLOCK_DIVIDER_MODE_NORMAL     = 0x1UL << USIC_CH_FDR_DM_Pos, /**< Baudrate genera
 417:C:/Users/Lenovo/workspace/dave_workspace/SOLAR_TOWER/Libraries/XMCLib/inc\xmc_usic.h ****   XMC_USIC_CH_BRG_CLOCK_DIVIDER_MODE_FRACTIONAL = 0x2UL << USIC_CH_FDR_DM_Pos  /**< Baudrate genera
 418:C:/Users/Lenovo/workspace/dave_workspace/SOLAR_TOWER/Libraries/XMCLib/inc\xmc_usic.h **** } XMC_USIC_CH_BRG_CLOCK_DIVIDER_MODE_t;
 419:C:/Users/Lenovo/workspace/dave_workspace/SOLAR_TOWER/Libraries/XMCLib/inc\xmc_usic.h **** 
 420:C:/Users/Lenovo/workspace/dave_workspace/SOLAR_TOWER/Libraries/XMCLib/inc\xmc_usic.h **** /**
 421:C:/Users/Lenovo/workspace/dave_workspace/SOLAR_TOWER/Libraries/XMCLib/inc\xmc_usic.h **** * USIC channel baudrate generator master clock passive level
 422:C:/Users/Lenovo/workspace/dave_workspace/SOLAR_TOWER/Libraries/XMCLib/inc\xmc_usic.h **** */
 423:C:/Users/Lenovo/workspace/dave_workspace/SOLAR_TOWER/Libraries/XMCLib/inc\xmc_usic.h **** typedef enum XMC_USIC_CH_BRG_MASTER_CLOCK_PASSIVE_LEVEL
 424:C:/Users/Lenovo/workspace/dave_workspace/SOLAR_TOWER/Libraries/XMCLib/inc\xmc_usic.h **** {
 425:C:/Users/Lenovo/workspace/dave_workspace/SOLAR_TOWER/Libraries/XMCLib/inc\xmc_usic.h ****   XMC_USIC_CH_BRG_MASTER_CLOCK_PASSIVE_LEVEL_0 = 0x0UL, /**< Baudrate generator master clock passiv
 426:C:/Users/Lenovo/workspace/dave_workspace/SOLAR_TOWER/Libraries/XMCLib/inc\xmc_usic.h ****   XMC_USIC_CH_BRG_MASTER_CLOCK_PASSIVE_LEVEL_1 = 0x1UL << USIC_CH_BRG_MCLKCFG_Pos  /**< Baudrate ge
 427:C:/Users/Lenovo/workspace/dave_workspace/SOLAR_TOWER/Libraries/XMCLib/inc\xmc_usic.h **** } XMC_USIC_CH_BRG_MASTER_CLOCK_PASSIVE_LEVEL_t;
 428:C:/Users/Lenovo/workspace/dave_workspace/SOLAR_TOWER/Libraries/XMCLib/inc\xmc_usic.h **** 
 429:C:/Users/Lenovo/workspace/dave_workspace/SOLAR_TOWER/Libraries/XMCLib/inc\xmc_usic.h **** /**
 430:C:/Users/Lenovo/workspace/dave_workspace/SOLAR_TOWER/Libraries/XMCLib/inc\xmc_usic.h **** * USIC channel baudrate generator shift clock passive level
 431:C:/Users/Lenovo/workspace/dave_workspace/SOLAR_TOWER/Libraries/XMCLib/inc\xmc_usic.h **** */
 432:C:/Users/Lenovo/workspace/dave_workspace/SOLAR_TOWER/Libraries/XMCLib/inc\xmc_usic.h **** typedef enum XMC_USIC_CH_BRG_SHIFT_CLOCK_PASSIVE_LEVEL
 433:C:/Users/Lenovo/workspace/dave_workspace/SOLAR_TOWER/Libraries/XMCLib/inc\xmc_usic.h **** {
 434:C:/Users/Lenovo/workspace/dave_workspace/SOLAR_TOWER/Libraries/XMCLib/inc\xmc_usic.h ****   XMC_USIC_CH_BRG_SHIFT_CLOCK_PASSIVE_LEVEL_0_DELAY_DISABLED = 0x0UL, /**< Shift clock passive leve
 435:C:/Users/Lenovo/workspace/dave_workspace/SOLAR_TOWER/Libraries/XMCLib/inc\xmc_usic.h ****   XMC_USIC_CH_BRG_SHIFT_CLOCK_PASSIVE_LEVEL_1_DELAY_DISABLED = 0x1UL << USIC_CH_BRG_SCLKCFG_Pos, /*
 436:C:/Users/Lenovo/workspace/dave_workspace/SOLAR_TOWER/Libraries/XMCLib/inc\xmc_usic.h ****   XMC_USIC_CH_BRG_SHIFT_CLOCK_PASSIVE_LEVEL_0_DELAY_ENABLED  = (int32_t)(0x2UL << USIC_CH_BRG_SCLKC
 437:C:/Users/Lenovo/workspace/dave_workspace/SOLAR_TOWER/Libraries/XMCLib/inc\xmc_usic.h ****   XMC_USIC_CH_BRG_SHIFT_CLOCK_PASSIVE_LEVEL_1_DELAY_ENABLED  = (int32_t)(0x3UL << USIC_CH_BRG_SCLKC
 438:C:/Users/Lenovo/workspace/dave_workspace/SOLAR_TOWER/Libraries/XMCLib/inc\xmc_usic.h **** } XMC_USIC_CH_BRG_SHIFT_CLOCK_PASSIVE_LEVEL_t;
 439:C:/Users/Lenovo/workspace/dave_workspace/SOLAR_TOWER/Libraries/XMCLib/inc\xmc_usic.h **** 
 440:C:/Users/Lenovo/workspace/dave_workspace/SOLAR_TOWER/Libraries/XMCLib/inc\xmc_usic.h **** /**
 441:C:/Users/Lenovo/workspace/dave_workspace/SOLAR_TOWER/Libraries/XMCLib/inc\xmc_usic.h **** * USIC channel baudrate generator shift clock output
 442:C:/Users/Lenovo/workspace/dave_workspace/SOLAR_TOWER/Libraries/XMCLib/inc\xmc_usic.h **** */
 443:C:/Users/Lenovo/workspace/dave_workspace/SOLAR_TOWER/Libraries/XMCLib/inc\xmc_usic.h **** typedef enum XMC_USIC_CH_BRG_SHIFT_CLOCK_OUTPUT
 444:C:/Users/Lenovo/workspace/dave_workspace/SOLAR_TOWER/Libraries/XMCLib/inc\xmc_usic.h **** {
 445:C:/Users/Lenovo/workspace/dave_workspace/SOLAR_TOWER/Libraries/XMCLib/inc\xmc_usic.h ****   XMC_USIC_CH_BRG_SHIFT_CLOCK_OUTPUT_SCLK = 0x0UL, /**< Baudrate generator shift clock output: SCL.
 446:C:/Users/Lenovo/workspace/dave_workspace/SOLAR_TOWER/Libraries/XMCLib/inc\xmc_usic.h ****   XMC_USIC_CH_BRG_SHIFT_CLOCK_OUTPUT_DX1 = 0x1UL << USIC_CH_BRG_SCLKOSEL_Pos   /**< Baudrate genera
 447:C:/Users/Lenovo/workspace/dave_workspace/SOLAR_TOWER/Libraries/XMCLib/inc\xmc_usic.h **** } XMC_USIC_CH_BRG_SHIFT_CLOCK_OUTPUT_t;
 448:C:/Users/Lenovo/workspace/dave_workspace/SOLAR_TOWER/Libraries/XMCLib/inc\xmc_usic.h **** 
 449:C:/Users/Lenovo/workspace/dave_workspace/SOLAR_TOWER/Libraries/XMCLib/inc\xmc_usic.h **** /**
 450:C:/Users/Lenovo/workspace/dave_workspace/SOLAR_TOWER/Libraries/XMCLib/inc\xmc_usic.h **** * USIC channel shift direction.
 451:C:/Users/Lenovo/workspace/dave_workspace/SOLAR_TOWER/Libraries/XMCLib/inc\xmc_usic.h **** * Defines the shift direction of the data words for transmission and reception
 452:C:/Users/Lenovo/workspace/dave_workspace/SOLAR_TOWER/Libraries/XMCLib/inc\xmc_usic.h **** */
 453:C:/Users/Lenovo/workspace/dave_workspace/SOLAR_TOWER/Libraries/XMCLib/inc\xmc_usic.h **** typedef enum XMC_USIC_CH_SHIFT_DIRECTION
 454:C:/Users/Lenovo/workspace/dave_workspace/SOLAR_TOWER/Libraries/XMCLib/inc\xmc_usic.h **** {
 455:C:/Users/Lenovo/workspace/dave_workspace/SOLAR_TOWER/Libraries/XMCLib/inc\xmc_usic.h ****   XMC_USIC_CH_SHIFT_DIRECTION_LSB_FIRST = 0x0UL, /**< Shift LSB first. The first data bit of a data
 456:C:/Users/Lenovo/workspace/dave_workspace/SOLAR_TOWER/Libraries/XMCLib/inc\xmc_usic.h ****   XMC_USIC_CH_SHIFT_DIRECTION_MSB_FIRST = 0x1UL << USIC_CH_SCTR_SDIR_Pos /**< Shift MSB first. The 
 457:C:/Users/Lenovo/workspace/dave_workspace/SOLAR_TOWER/Libraries/XMCLib/inc\xmc_usic.h **** } XMC_USIC_CH_SHIFT_DIRECTION_t;
 458:C:/Users/Lenovo/workspace/dave_workspace/SOLAR_TOWER/Libraries/XMCLib/inc\xmc_usic.h **** 
 459:C:/Users/Lenovo/workspace/dave_workspace/SOLAR_TOWER/Libraries/XMCLib/inc\xmc_usic.h **** 
 460:C:/Users/Lenovo/workspace/dave_workspace/SOLAR_TOWER/Libraries/XMCLib/inc\xmc_usic.h **** /*******************************************************************************
 461:C:/Users/Lenovo/workspace/dave_workspace/SOLAR_TOWER/Libraries/XMCLib/inc\xmc_usic.h ****  * DATA STRUCTURES
 462:C:/Users/Lenovo/workspace/dave_workspace/SOLAR_TOWER/Libraries/XMCLib/inc\xmc_usic.h ****  *******************************************************************************/
 463:C:/Users/Lenovo/workspace/dave_workspace/SOLAR_TOWER/Libraries/XMCLib/inc\xmc_usic.h **** 
 464:C:/Users/Lenovo/workspace/dave_workspace/SOLAR_TOWER/Libraries/XMCLib/inc\xmc_usic.h **** /*Anonymous structure/union guard start*/
 465:C:/Users/Lenovo/workspace/dave_workspace/SOLAR_TOWER/Libraries/XMCLib/inc\xmc_usic.h **** #if defined(__CC_ARM)
 466:C:/Users/Lenovo/workspace/dave_workspace/SOLAR_TOWER/Libraries/XMCLib/inc\xmc_usic.h ****   #pragma push
 467:C:/Users/Lenovo/workspace/dave_workspace/SOLAR_TOWER/Libraries/XMCLib/inc\xmc_usic.h ****   #pragma anon_unions
 468:C:/Users/Lenovo/workspace/dave_workspace/SOLAR_TOWER/Libraries/XMCLib/inc\xmc_usic.h **** #elif defined(__TASKING__)
 469:C:/Users/Lenovo/workspace/dave_workspace/SOLAR_TOWER/Libraries/XMCLib/inc\xmc_usic.h ****   #pragma warning 586
 470:C:/Users/Lenovo/workspace/dave_workspace/SOLAR_TOWER/Libraries/XMCLib/inc\xmc_usic.h **** #endif
 471:C:/Users/Lenovo/workspace/dave_workspace/SOLAR_TOWER/Libraries/XMCLib/inc\xmc_usic.h **** 
 472:C:/Users/Lenovo/workspace/dave_workspace/SOLAR_TOWER/Libraries/XMCLib/inc\xmc_usic.h **** /**
 473:C:/Users/Lenovo/workspace/dave_workspace/SOLAR_TOWER/Libraries/XMCLib/inc\xmc_usic.h ****  * USIC module structure
 474:C:/Users/Lenovo/workspace/dave_workspace/SOLAR_TOWER/Libraries/XMCLib/inc\xmc_usic.h ****  */
 475:C:/Users/Lenovo/workspace/dave_workspace/SOLAR_TOWER/Libraries/XMCLib/inc\xmc_usic.h **** typedef USIC_GLOBAL_TypeDef XMC_USIC_t;
 476:C:/Users/Lenovo/workspace/dave_workspace/SOLAR_TOWER/Libraries/XMCLib/inc\xmc_usic.h **** 
 477:C:/Users/Lenovo/workspace/dave_workspace/SOLAR_TOWER/Libraries/XMCLib/inc\xmc_usic.h **** /**
 478:C:/Users/Lenovo/workspace/dave_workspace/SOLAR_TOWER/Libraries/XMCLib/inc\xmc_usic.h ****  * USIC channel structure.<br> The members of the structure are same as in the device header file, 
 479:C:/Users/Lenovo/workspace/dave_workspace/SOLAR_TOWER/Libraries/XMCLib/inc\xmc_usic.h ****  * except for some registers.
 480:C:/Users/Lenovo/workspace/dave_workspace/SOLAR_TOWER/Libraries/XMCLib/inc\xmc_usic.h ****  * DX0CR, DX1CR, DX2CR, DX3CR, DX4CR and DX5CR are replaced with the array DXCR[6].
 481:C:/Users/Lenovo/workspace/dave_workspace/SOLAR_TOWER/Libraries/XMCLib/inc\xmc_usic.h ****  * TBUF0 to TBUF31 are replaced with TBUF[32].
 482:C:/Users/Lenovo/workspace/dave_workspace/SOLAR_TOWER/Libraries/XMCLib/inc\xmc_usic.h ****  * IN0 to IN31 are replaced with IN[32].
 483:C:/Users/Lenovo/workspace/dave_workspace/SOLAR_TOWER/Libraries/XMCLib/inc\xmc_usic.h ****  */
 484:C:/Users/Lenovo/workspace/dave_workspace/SOLAR_TOWER/Libraries/XMCLib/inc\xmc_usic.h **** typedef struct XMC_USIC_CH
 485:C:/Users/Lenovo/workspace/dave_workspace/SOLAR_TOWER/Libraries/XMCLib/inc\xmc_usic.h **** {
 486:C:/Users/Lenovo/workspace/dave_workspace/SOLAR_TOWER/Libraries/XMCLib/inc\xmc_usic.h ****   __I  uint32_t  RESERVED0;
 487:C:/Users/Lenovo/workspace/dave_workspace/SOLAR_TOWER/Libraries/XMCLib/inc\xmc_usic.h ****   __I  uint32_t  CCFG;			/**< Channel configuration register*/
 488:C:/Users/Lenovo/workspace/dave_workspace/SOLAR_TOWER/Libraries/XMCLib/inc\xmc_usic.h ****   __I  uint32_t  RESERVED1;
 489:C:/Users/Lenovo/workspace/dave_workspace/SOLAR_TOWER/Libraries/XMCLib/inc\xmc_usic.h ****   __IO uint32_t  KSCFG;			/**< Kernel state configuration register*/
 490:C:/Users/Lenovo/workspace/dave_workspace/SOLAR_TOWER/Libraries/XMCLib/inc\xmc_usic.h ****   __IO uint32_t  FDR;			/**< Fractional divider configuration register*/
 491:C:/Users/Lenovo/workspace/dave_workspace/SOLAR_TOWER/Libraries/XMCLib/inc\xmc_usic.h ****   __IO uint32_t  BRG;			/**< Baud rate generator register*/
 492:C:/Users/Lenovo/workspace/dave_workspace/SOLAR_TOWER/Libraries/XMCLib/inc\xmc_usic.h ****   __IO uint32_t  INPR;			/**< Interrupt node pointer register*/
 493:C:/Users/Lenovo/workspace/dave_workspace/SOLAR_TOWER/Libraries/XMCLib/inc\xmc_usic.h ****   __IO uint32_t  DXCR[6];		/**< Input control registers DX0 to DX5.*/
 494:C:/Users/Lenovo/workspace/dave_workspace/SOLAR_TOWER/Libraries/XMCLib/inc\xmc_usic.h ****   __IO uint32_t  SCTR;			/**< Shift control register*/
 495:C:/Users/Lenovo/workspace/dave_workspace/SOLAR_TOWER/Libraries/XMCLib/inc\xmc_usic.h ****   __IO uint32_t  TCSR;
 496:C:/Users/Lenovo/workspace/dave_workspace/SOLAR_TOWER/Libraries/XMCLib/inc\xmc_usic.h **** 
 497:C:/Users/Lenovo/workspace/dave_workspace/SOLAR_TOWER/Libraries/XMCLib/inc\xmc_usic.h ****   union {
 498:C:/Users/Lenovo/workspace/dave_workspace/SOLAR_TOWER/Libraries/XMCLib/inc\xmc_usic.h ****     __IO uint32_t  PCR_IICMode;	/**< I2C protocol configuration register*/
 499:C:/Users/Lenovo/workspace/dave_workspace/SOLAR_TOWER/Libraries/XMCLib/inc\xmc_usic.h ****     __IO uint32_t  PCR_IISMode; /**< I2S protocol configuration register*/
 500:C:/Users/Lenovo/workspace/dave_workspace/SOLAR_TOWER/Libraries/XMCLib/inc\xmc_usic.h ****     __IO uint32_t  PCR_SSCMode;	/**< SPI protocol configuration register*/
 501:C:/Users/Lenovo/workspace/dave_workspace/SOLAR_TOWER/Libraries/XMCLib/inc\xmc_usic.h ****     __IO uint32_t  PCR;			/**< Protocol configuration register*/
 502:C:/Users/Lenovo/workspace/dave_workspace/SOLAR_TOWER/Libraries/XMCLib/inc\xmc_usic.h ****     __IO uint32_t  PCR_ASCMode;	/**< UART protocol configuration register*/
 503:C:/Users/Lenovo/workspace/dave_workspace/SOLAR_TOWER/Libraries/XMCLib/inc\xmc_usic.h ****   };
 504:C:/Users/Lenovo/workspace/dave_workspace/SOLAR_TOWER/Libraries/XMCLib/inc\xmc_usic.h ****   __IO uint32_t  CCR;			/**< Channel control register*/
 505:C:/Users/Lenovo/workspace/dave_workspace/SOLAR_TOWER/Libraries/XMCLib/inc\xmc_usic.h ****   __IO uint32_t  CMTR;			/**< Capture mode timer register*/
 506:C:/Users/Lenovo/workspace/dave_workspace/SOLAR_TOWER/Libraries/XMCLib/inc\xmc_usic.h **** 
 507:C:/Users/Lenovo/workspace/dave_workspace/SOLAR_TOWER/Libraries/XMCLib/inc\xmc_usic.h ****   union {
 508:C:/Users/Lenovo/workspace/dave_workspace/SOLAR_TOWER/Libraries/XMCLib/inc\xmc_usic.h ****     __IO uint32_t  PSR_IICMode;	/**< I2C protocol status register*/
 509:C:/Users/Lenovo/workspace/dave_workspace/SOLAR_TOWER/Libraries/XMCLib/inc\xmc_usic.h ****     __IO uint32_t  PSR_IISMode;	/**< I2S protocol status register*/
 510:C:/Users/Lenovo/workspace/dave_workspace/SOLAR_TOWER/Libraries/XMCLib/inc\xmc_usic.h ****     __IO uint32_t  PSR_SSCMode;	/**< SPI protocol status register*/
 511:C:/Users/Lenovo/workspace/dave_workspace/SOLAR_TOWER/Libraries/XMCLib/inc\xmc_usic.h ****     __IO uint32_t  PSR;			/**< Protocol status register*/
 512:C:/Users/Lenovo/workspace/dave_workspace/SOLAR_TOWER/Libraries/XMCLib/inc\xmc_usic.h ****     __IO uint32_t  PSR_ASCMode;	/**< UART protocol status register*/
 513:C:/Users/Lenovo/workspace/dave_workspace/SOLAR_TOWER/Libraries/XMCLib/inc\xmc_usic.h ****   };
 514:C:/Users/Lenovo/workspace/dave_workspace/SOLAR_TOWER/Libraries/XMCLib/inc\xmc_usic.h ****   __O  uint32_t  PSCR;			/**< Protocol status clear register*/
 515:C:/Users/Lenovo/workspace/dave_workspace/SOLAR_TOWER/Libraries/XMCLib/inc\xmc_usic.h ****   __I  uint32_t  RBUFSR;		/**< Receive buffer status register*/
 516:C:/Users/Lenovo/workspace/dave_workspace/SOLAR_TOWER/Libraries/XMCLib/inc\xmc_usic.h ****   __I  uint32_t  RBUF;			/**< Receive buffer register*/
 517:C:/Users/Lenovo/workspace/dave_workspace/SOLAR_TOWER/Libraries/XMCLib/inc\xmc_usic.h ****   __I  uint32_t  RBUFD;			/**< Debug mode receive buffer register*/
 518:C:/Users/Lenovo/workspace/dave_workspace/SOLAR_TOWER/Libraries/XMCLib/inc\xmc_usic.h ****   __I  uint32_t  RBUF0;			/**< Receive buffer 0*/
 519:C:/Users/Lenovo/workspace/dave_workspace/SOLAR_TOWER/Libraries/XMCLib/inc\xmc_usic.h ****   __I  uint32_t  RBUF1;			/**< Receive buffer 1*/
 520:C:/Users/Lenovo/workspace/dave_workspace/SOLAR_TOWER/Libraries/XMCLib/inc\xmc_usic.h ****   __I  uint32_t  RBUF01SR;		/**< Receive buffer status register*/
 521:C:/Users/Lenovo/workspace/dave_workspace/SOLAR_TOWER/Libraries/XMCLib/inc\xmc_usic.h ****   __O  uint32_t  FMR;			/**< Flag modification register*/
 522:C:/Users/Lenovo/workspace/dave_workspace/SOLAR_TOWER/Libraries/XMCLib/inc\xmc_usic.h ****   __I  uint32_t  RESERVED2[5];
 523:C:/Users/Lenovo/workspace/dave_workspace/SOLAR_TOWER/Libraries/XMCLib/inc\xmc_usic.h ****   __IO uint32_t  TBUF[32];		/**< Tranmsit buffer registers*/
 524:C:/Users/Lenovo/workspace/dave_workspace/SOLAR_TOWER/Libraries/XMCLib/inc\xmc_usic.h ****   __IO uint32_t  BYP;			/**< FIFO bypass register*/
 525:C:/Users/Lenovo/workspace/dave_workspace/SOLAR_TOWER/Libraries/XMCLib/inc\xmc_usic.h ****   __IO uint32_t  BYPCR;			/**< FIFO bypass control register*/
 526:C:/Users/Lenovo/workspace/dave_workspace/SOLAR_TOWER/Libraries/XMCLib/inc\xmc_usic.h ****   __IO uint32_t  TBCTR;			/**< Transmit FIFO control register*/
 527:C:/Users/Lenovo/workspace/dave_workspace/SOLAR_TOWER/Libraries/XMCLib/inc\xmc_usic.h ****   __IO uint32_t  RBCTR;			/**< Receive FIFO control register*/
 528:C:/Users/Lenovo/workspace/dave_workspace/SOLAR_TOWER/Libraries/XMCLib/inc\xmc_usic.h ****   __I  uint32_t  TRBPTR;		/**< Transmit/recive buffer pointer register*/
 529:C:/Users/Lenovo/workspace/dave_workspace/SOLAR_TOWER/Libraries/XMCLib/inc\xmc_usic.h ****   __IO uint32_t  TRBSR;			/**< Transmit/receive buffer status register*/
 530:C:/Users/Lenovo/workspace/dave_workspace/SOLAR_TOWER/Libraries/XMCLib/inc\xmc_usic.h ****   __O  uint32_t  TRBSCR;		/**< Transmit/receive buffer status clear register*/
 531:C:/Users/Lenovo/workspace/dave_workspace/SOLAR_TOWER/Libraries/XMCLib/inc\xmc_usic.h ****   __I  uint32_t  OUTR;			/**< Receive FIFO output register*/
 532:C:/Users/Lenovo/workspace/dave_workspace/SOLAR_TOWER/Libraries/XMCLib/inc\xmc_usic.h ****   __I  uint32_t  OUTDR;			/**< Receive FIFO debug output register*/
 533:C:/Users/Lenovo/workspace/dave_workspace/SOLAR_TOWER/Libraries/XMCLib/inc\xmc_usic.h ****   __I  uint32_t  RESERVED3[23];
 534:C:/Users/Lenovo/workspace/dave_workspace/SOLAR_TOWER/Libraries/XMCLib/inc\xmc_usic.h ****   __O  uint32_t  IN[32];		/**< Transmit FIFO input register*/
 535:C:/Users/Lenovo/workspace/dave_workspace/SOLAR_TOWER/Libraries/XMCLib/inc\xmc_usic.h **** } XMC_USIC_CH_t;
 536:C:/Users/Lenovo/workspace/dave_workspace/SOLAR_TOWER/Libraries/XMCLib/inc\xmc_usic.h **** 
 537:C:/Users/Lenovo/workspace/dave_workspace/SOLAR_TOWER/Libraries/XMCLib/inc\xmc_usic.h **** 
 538:C:/Users/Lenovo/workspace/dave_workspace/SOLAR_TOWER/Libraries/XMCLib/inc\xmc_usic.h **** /*Anonymous structure/union guard end*/
 539:C:/Users/Lenovo/workspace/dave_workspace/SOLAR_TOWER/Libraries/XMCLib/inc\xmc_usic.h **** #if defined(__CC_ARM)
 540:C:/Users/Lenovo/workspace/dave_workspace/SOLAR_TOWER/Libraries/XMCLib/inc\xmc_usic.h ****   #pragma pop
 541:C:/Users/Lenovo/workspace/dave_workspace/SOLAR_TOWER/Libraries/XMCLib/inc\xmc_usic.h **** #elif defined(__TASKING__)
 542:C:/Users/Lenovo/workspace/dave_workspace/SOLAR_TOWER/Libraries/XMCLib/inc\xmc_usic.h ****   #pragma warning restore
 543:C:/Users/Lenovo/workspace/dave_workspace/SOLAR_TOWER/Libraries/XMCLib/inc\xmc_usic.h **** #endif
 544:C:/Users/Lenovo/workspace/dave_workspace/SOLAR_TOWER/Libraries/XMCLib/inc\xmc_usic.h **** 
 545:C:/Users/Lenovo/workspace/dave_workspace/SOLAR_TOWER/Libraries/XMCLib/inc\xmc_usic.h **** /*******************************************************************************
 546:C:/Users/Lenovo/workspace/dave_workspace/SOLAR_TOWER/Libraries/XMCLib/inc\xmc_usic.h ****  * API PROTOTYPES
 547:C:/Users/Lenovo/workspace/dave_workspace/SOLAR_TOWER/Libraries/XMCLib/inc\xmc_usic.h ****  ******************************************************************************/
 548:C:/Users/Lenovo/workspace/dave_workspace/SOLAR_TOWER/Libraries/XMCLib/inc\xmc_usic.h **** 
 549:C:/Users/Lenovo/workspace/dave_workspace/SOLAR_TOWER/Libraries/XMCLib/inc\xmc_usic.h **** #ifdef __cplusplus
 550:C:/Users/Lenovo/workspace/dave_workspace/SOLAR_TOWER/Libraries/XMCLib/inc\xmc_usic.h **** extern "C" {
 551:C:/Users/Lenovo/workspace/dave_workspace/SOLAR_TOWER/Libraries/XMCLib/inc\xmc_usic.h **** #endif
 552:C:/Users/Lenovo/workspace/dave_workspace/SOLAR_TOWER/Libraries/XMCLib/inc\xmc_usic.h **** 
 553:C:/Users/Lenovo/workspace/dave_workspace/SOLAR_TOWER/Libraries/XMCLib/inc\xmc_usic.h **** __STATIC_INLINE bool XMC_USIC_IsModuleValid(const XMC_USIC_t *const module)
 554:C:/Users/Lenovo/workspace/dave_workspace/SOLAR_TOWER/Libraries/XMCLib/inc\xmc_usic.h **** {
 555:C:/Users/Lenovo/workspace/dave_workspace/SOLAR_TOWER/Libraries/XMCLib/inc\xmc_usic.h ****   bool tmp;
 556:C:/Users/Lenovo/workspace/dave_workspace/SOLAR_TOWER/Libraries/XMCLib/inc\xmc_usic.h **** 
 557:C:/Users/Lenovo/workspace/dave_workspace/SOLAR_TOWER/Libraries/XMCLib/inc\xmc_usic.h ****   tmp = (module == XMC_USIC0);
 558:C:/Users/Lenovo/workspace/dave_workspace/SOLAR_TOWER/Libraries/XMCLib/inc\xmc_usic.h **** #if defined(XMC_USIC1)  
 559:C:/Users/Lenovo/workspace/dave_workspace/SOLAR_TOWER/Libraries/XMCLib/inc\xmc_usic.h ****   tmp = tmp || (module == XMC_USIC1);
 560:C:/Users/Lenovo/workspace/dave_workspace/SOLAR_TOWER/Libraries/XMCLib/inc\xmc_usic.h **** #endif
 561:C:/Users/Lenovo/workspace/dave_workspace/SOLAR_TOWER/Libraries/XMCLib/inc\xmc_usic.h **** #if defined(XMC_USIC2)  
 562:C:/Users/Lenovo/workspace/dave_workspace/SOLAR_TOWER/Libraries/XMCLib/inc\xmc_usic.h ****   tmp = tmp || (module == XMC_USIC2);
 563:C:/Users/Lenovo/workspace/dave_workspace/SOLAR_TOWER/Libraries/XMCLib/inc\xmc_usic.h **** #endif
 564:C:/Users/Lenovo/workspace/dave_workspace/SOLAR_TOWER/Libraries/XMCLib/inc\xmc_usic.h **** 
 565:C:/Users/Lenovo/workspace/dave_workspace/SOLAR_TOWER/Libraries/XMCLib/inc\xmc_usic.h ****   return tmp;
 566:C:/Users/Lenovo/workspace/dave_workspace/SOLAR_TOWER/Libraries/XMCLib/inc\xmc_usic.h **** }
 567:C:/Users/Lenovo/workspace/dave_workspace/SOLAR_TOWER/Libraries/XMCLib/inc\xmc_usic.h **** 
 568:C:/Users/Lenovo/workspace/dave_workspace/SOLAR_TOWER/Libraries/XMCLib/inc\xmc_usic.h **** __STATIC_INLINE bool XMC_USIC_IsChannelValid(const XMC_USIC_CH_t *const channel)
 569:C:/Users/Lenovo/workspace/dave_workspace/SOLAR_TOWER/Libraries/XMCLib/inc\xmc_usic.h **** {
 570:C:/Users/Lenovo/workspace/dave_workspace/SOLAR_TOWER/Libraries/XMCLib/inc\xmc_usic.h ****   bool tmp;
 571:C:/Users/Lenovo/workspace/dave_workspace/SOLAR_TOWER/Libraries/XMCLib/inc\xmc_usic.h **** 
 572:C:/Users/Lenovo/workspace/dave_workspace/SOLAR_TOWER/Libraries/XMCLib/inc\xmc_usic.h ****   tmp = ((channel == XMC_USIC0_CH0) || (channel == XMC_USIC0_CH1));
 573:C:/Users/Lenovo/workspace/dave_workspace/SOLAR_TOWER/Libraries/XMCLib/inc\xmc_usic.h **** #if defined(XMC_USIC1)  
 574:C:/Users/Lenovo/workspace/dave_workspace/SOLAR_TOWER/Libraries/XMCLib/inc\xmc_usic.h ****   tmp = tmp || ((channel == XMC_USIC1_CH0) || (channel == XMC_USIC1_CH1));
 575:C:/Users/Lenovo/workspace/dave_workspace/SOLAR_TOWER/Libraries/XMCLib/inc\xmc_usic.h **** #endif
 576:C:/Users/Lenovo/workspace/dave_workspace/SOLAR_TOWER/Libraries/XMCLib/inc\xmc_usic.h **** #if defined(XMC_USIC2)  
 577:C:/Users/Lenovo/workspace/dave_workspace/SOLAR_TOWER/Libraries/XMCLib/inc\xmc_usic.h ****   tmp = tmp || ((channel == XMC_USIC2_CH0) || (channel == XMC_USIC2_CH1));
 578:C:/Users/Lenovo/workspace/dave_workspace/SOLAR_TOWER/Libraries/XMCLib/inc\xmc_usic.h **** #endif
 579:C:/Users/Lenovo/workspace/dave_workspace/SOLAR_TOWER/Libraries/XMCLib/inc\xmc_usic.h **** 
 580:C:/Users/Lenovo/workspace/dave_workspace/SOLAR_TOWER/Libraries/XMCLib/inc\xmc_usic.h ****   return tmp;
 581:C:/Users/Lenovo/workspace/dave_workspace/SOLAR_TOWER/Libraries/XMCLib/inc\xmc_usic.h **** }
 582:C:/Users/Lenovo/workspace/dave_workspace/SOLAR_TOWER/Libraries/XMCLib/inc\xmc_usic.h **** 
 583:C:/Users/Lenovo/workspace/dave_workspace/SOLAR_TOWER/Libraries/XMCLib/inc\xmc_usic.h **** /* Common APIs */
 584:C:/Users/Lenovo/workspace/dave_workspace/SOLAR_TOWER/Libraries/XMCLib/inc\xmc_usic.h **** 
 585:C:/Users/Lenovo/workspace/dave_workspace/SOLAR_TOWER/Libraries/XMCLib/inc\xmc_usic.h **** /**
 586:C:/Users/Lenovo/workspace/dave_workspace/SOLAR_TOWER/Libraries/XMCLib/inc\xmc_usic.h ****  * @param  usic Pointer to USIC module handler of type @ref XMC_USIC_t.\n
 587:C:/Users/Lenovo/workspace/dave_workspace/SOLAR_TOWER/Libraries/XMCLib/inc\xmc_usic.h ****  * 				\b Range: @ref XMC_USIC0 to @ref XMC_USIC2 based on device support.
 588:C:/Users/Lenovo/workspace/dave_workspace/SOLAR_TOWER/Libraries/XMCLib/inc\xmc_usic.h ****  * @return None
 589:C:/Users/Lenovo/workspace/dave_workspace/SOLAR_TOWER/Libraries/XMCLib/inc\xmc_usic.h ****  * 
 590:C:/Users/Lenovo/workspace/dave_workspace/SOLAR_TOWER/Libraries/XMCLib/inc\xmc_usic.h ****  * \par<b>Description</b><br>
 591:C:/Users/Lenovo/workspace/dave_workspace/SOLAR_TOWER/Libraries/XMCLib/inc\xmc_usic.h ****  * Enables the USIC module.\n\n
 592:C:/Users/Lenovo/workspace/dave_workspace/SOLAR_TOWER/Libraries/XMCLib/inc\xmc_usic.h ****  * Enables the clock for the USIC module by following the
 593:C:/Users/Lenovo/workspace/dave_workspace/SOLAR_TOWER/Libraries/XMCLib/inc\xmc_usic.h ****  * clock enabling sequence for the selected device.
 594:C:/Users/Lenovo/workspace/dave_workspace/SOLAR_TOWER/Libraries/XMCLib/inc\xmc_usic.h ****  *
 595:C:/Users/Lenovo/workspace/dave_workspace/SOLAR_TOWER/Libraries/XMCLib/inc\xmc_usic.h ****  * \par<b>Related APIs:</b><BR>
 596:C:/Users/Lenovo/workspace/dave_workspace/SOLAR_TOWER/Libraries/XMCLib/inc\xmc_usic.h ****  * XMC_USIC_CH_Enable(), XMC_USIC_Disable() \n\n\n
 597:C:/Users/Lenovo/workspace/dave_workspace/SOLAR_TOWER/Libraries/XMCLib/inc\xmc_usic.h ****  */
 598:C:/Users/Lenovo/workspace/dave_workspace/SOLAR_TOWER/Libraries/XMCLib/inc\xmc_usic.h **** void XMC_USIC_Enable(XMC_USIC_t *const usic);
 599:C:/Users/Lenovo/workspace/dave_workspace/SOLAR_TOWER/Libraries/XMCLib/inc\xmc_usic.h **** /**
 600:C:/Users/Lenovo/workspace/dave_workspace/SOLAR_TOWER/Libraries/XMCLib/inc\xmc_usic.h ****  * @param  usic Pointer to USIC module handler of type @ref XMC_USIC_t.\n
 601:C:/Users/Lenovo/workspace/dave_workspace/SOLAR_TOWER/Libraries/XMCLib/inc\xmc_usic.h ****  * 				\b Range: @ref XMC_USIC0 to @ref XMC_USIC2 based on device support.
 602:C:/Users/Lenovo/workspace/dave_workspace/SOLAR_TOWER/Libraries/XMCLib/inc\xmc_usic.h ****  * @return None
 603:C:/Users/Lenovo/workspace/dave_workspace/SOLAR_TOWER/Libraries/XMCLib/inc\xmc_usic.h ****  *
 604:C:/Users/Lenovo/workspace/dave_workspace/SOLAR_TOWER/Libraries/XMCLib/inc\xmc_usic.h ****  * \par<b>Description</b><br>
 605:C:/Users/Lenovo/workspace/dave_workspace/SOLAR_TOWER/Libraries/XMCLib/inc\xmc_usic.h ****  * Disables the USIC module.\n\n
 606:C:/Users/Lenovo/workspace/dave_workspace/SOLAR_TOWER/Libraries/XMCLib/inc\xmc_usic.h ****  * Disables the clock for the USIC module by following the clock
 607:C:/Users/Lenovo/workspace/dave_workspace/SOLAR_TOWER/Libraries/XMCLib/inc\xmc_usic.h ****  * disabling sequence for the selected device.
 608:C:/Users/Lenovo/workspace/dave_workspace/SOLAR_TOWER/Libraries/XMCLib/inc\xmc_usic.h ****  *
 609:C:/Users/Lenovo/workspace/dave_workspace/SOLAR_TOWER/Libraries/XMCLib/inc\xmc_usic.h ****  * \par<b>Related APIs:</b><BR>
 610:C:/Users/Lenovo/workspace/dave_workspace/SOLAR_TOWER/Libraries/XMCLib/inc\xmc_usic.h ****  * XMC_USIC_CH_Disable(), XMC_USIC_Enable() \n\n\n
 611:C:/Users/Lenovo/workspace/dave_workspace/SOLAR_TOWER/Libraries/XMCLib/inc\xmc_usic.h ****  */
 612:C:/Users/Lenovo/workspace/dave_workspace/SOLAR_TOWER/Libraries/XMCLib/inc\xmc_usic.h **** void XMC_USIC_Disable(XMC_USIC_t *const usic);
 613:C:/Users/Lenovo/workspace/dave_workspace/SOLAR_TOWER/Libraries/XMCLib/inc\xmc_usic.h **** /**
 614:C:/Users/Lenovo/workspace/dave_workspace/SOLAR_TOWER/Libraries/XMCLib/inc\xmc_usic.h ****  * @param  channel Pointer to USIC channel handler of type @ref XMC_USIC_CH_t \n
 615:C:/Users/Lenovo/workspace/dave_workspace/SOLAR_TOWER/Libraries/XMCLib/inc\xmc_usic.h ****  * 				   \b Range: @ref XMC_USIC0_CH0, @ref XMC_USIC0_CH1 to @ref XMC_USIC2_CH1 based on device su
 616:C:/Users/Lenovo/workspace/dave_workspace/SOLAR_TOWER/Libraries/XMCLib/inc\xmc_usic.h ****  * @return None
 617:C:/Users/Lenovo/workspace/dave_workspace/SOLAR_TOWER/Libraries/XMCLib/inc\xmc_usic.h ****  *
 618:C:/Users/Lenovo/workspace/dave_workspace/SOLAR_TOWER/Libraries/XMCLib/inc\xmc_usic.h ****  * \par<b>Description</b><br>
 619:C:/Users/Lenovo/workspace/dave_workspace/SOLAR_TOWER/Libraries/XMCLib/inc\xmc_usic.h ****  * Enables the USIC channel. \n\n
 620:C:/Users/Lenovo/workspace/dave_workspace/SOLAR_TOWER/Libraries/XMCLib/inc\xmc_usic.h ****  * USIC channel is enabled by setting the module enable bit in KSCFG register bitfield MODEN.
 621:C:/Users/Lenovo/workspace/dave_workspace/SOLAR_TOWER/Libraries/XMCLib/inc\xmc_usic.h ****  * On enabling, the channel is set to idle mode.
 622:C:/Users/Lenovo/workspace/dave_workspace/SOLAR_TOWER/Libraries/XMCLib/inc\xmc_usic.h ****  *
 623:C:/Users/Lenovo/workspace/dave_workspace/SOLAR_TOWER/Libraries/XMCLib/inc\xmc_usic.h ****  * \par<b>Related APIs:</b><BR>
 624:C:/Users/Lenovo/workspace/dave_workspace/SOLAR_TOWER/Libraries/XMCLib/inc\xmc_usic.h ****  * XMC_USIC_CH_Disable(), XMC_USIC_Enable() \n\n\n
 625:C:/Users/Lenovo/workspace/dave_workspace/SOLAR_TOWER/Libraries/XMCLib/inc\xmc_usic.h ****  */
 626:C:/Users/Lenovo/workspace/dave_workspace/SOLAR_TOWER/Libraries/XMCLib/inc\xmc_usic.h **** void XMC_USIC_CH_Enable(XMC_USIC_CH_t *const channel);
 627:C:/Users/Lenovo/workspace/dave_workspace/SOLAR_TOWER/Libraries/XMCLib/inc\xmc_usic.h **** /**
 628:C:/Users/Lenovo/workspace/dave_workspace/SOLAR_TOWER/Libraries/XMCLib/inc\xmc_usic.h ****  * @param  channel Pointer to USIC channel handler of type @ref XMC_USIC_CH_t \n
 629:C:/Users/Lenovo/workspace/dave_workspace/SOLAR_TOWER/Libraries/XMCLib/inc\xmc_usic.h ****  * 				   \b Range: @ref XMC_USIC0_CH0, @ref XMC_USIC0_CH1 to @ref XMC_USIC2_CH1 based on device su
 630:C:/Users/Lenovo/workspace/dave_workspace/SOLAR_TOWER/Libraries/XMCLib/inc\xmc_usic.h ****  * @return None
 631:C:/Users/Lenovo/workspace/dave_workspace/SOLAR_TOWER/Libraries/XMCLib/inc\xmc_usic.h ****  *
 632:C:/Users/Lenovo/workspace/dave_workspace/SOLAR_TOWER/Libraries/XMCLib/inc\xmc_usic.h ****  * \par<b>Description</b><br>
 633:C:/Users/Lenovo/workspace/dave_workspace/SOLAR_TOWER/Libraries/XMCLib/inc\xmc_usic.h ****  * Disables the USIC channel.\n\n
 634:C:/Users/Lenovo/workspace/dave_workspace/SOLAR_TOWER/Libraries/XMCLib/inc\xmc_usic.h ****  * USIC channel is disabled by setting the module enable bit(MDEN) to 0 in the register KSCFG.
 635:C:/Users/Lenovo/workspace/dave_workspace/SOLAR_TOWER/Libraries/XMCLib/inc\xmc_usic.h ****  *
 636:C:/Users/Lenovo/workspace/dave_workspace/SOLAR_TOWER/Libraries/XMCLib/inc\xmc_usic.h ****  * \par<b>Related APIs:</b><BR>
 637:C:/Users/Lenovo/workspace/dave_workspace/SOLAR_TOWER/Libraries/XMCLib/inc\xmc_usic.h ****  * XMC_USIC_CH_Enable(), XMC_USIC_Disable() \n\n\n
 638:C:/Users/Lenovo/workspace/dave_workspace/SOLAR_TOWER/Libraries/XMCLib/inc\xmc_usic.h ****  */
 639:C:/Users/Lenovo/workspace/dave_workspace/SOLAR_TOWER/Libraries/XMCLib/inc\xmc_usic.h **** void XMC_USIC_CH_Disable(XMC_USIC_CH_t *const channel);
 640:C:/Users/Lenovo/workspace/dave_workspace/SOLAR_TOWER/Libraries/XMCLib/inc\xmc_usic.h **** 
 641:C:/Users/Lenovo/workspace/dave_workspace/SOLAR_TOWER/Libraries/XMCLib/inc\xmc_usic.h **** /**
 642:C:/Users/Lenovo/workspace/dave_workspace/SOLAR_TOWER/Libraries/XMCLib/inc\xmc_usic.h ****  * @param  channel Pointer to USIC channel handler of type @ref XMC_USIC_CH_t \n
 643:C:/Users/Lenovo/workspace/dave_workspace/SOLAR_TOWER/Libraries/XMCLib/inc\xmc_usic.h ****  * 				   \b Range: @ref XMC_USIC0_CH0, @ref XMC_USIC0_CH1 to @ref XMC_USIC2_CH1 based on device su
 644:C:/Users/Lenovo/workspace/dave_workspace/SOLAR_TOWER/Libraries/XMCLib/inc\xmc_usic.h ****  * @param  rate Desired baudrate. \b Range: minimum value = 100, maximum value depends on the perip
 645:C:/Users/Lenovo/workspace/dave_workspace/SOLAR_TOWER/Libraries/XMCLib/inc\xmc_usic.h ****  * 				and \a oversampling. Maximum baudrate can be derived using the formula: (fperiph * 1023)/(10
 646:C:/Users/Lenovo/workspace/dave_workspace/SOLAR_TOWER/Libraries/XMCLib/inc\xmc_usic.h ****  * @param  oversampling Required oversampling. The value indicates the number of time quanta for on
 647:C:/Users/Lenovo/workspace/dave_workspace/SOLAR_TOWER/Libraries/XMCLib/inc\xmc_usic.h ****  * 						This can be related to the number of samples for each logic state of the data signal. \n
 648:C:/Users/Lenovo/workspace/dave_workspace/SOLAR_TOWER/Libraries/XMCLib/inc\xmc_usic.h ****  * 						\b Range: 1 to 32. Value should be chosen based on the protocol used.
 649:C:/Users/Lenovo/workspace/dave_workspace/SOLAR_TOWER/Libraries/XMCLib/inc\xmc_usic.h ****  * @return Status indicating the baudrate configuration.\n
 650:C:/Users/Lenovo/workspace/dave_workspace/SOLAR_TOWER/Libraries/XMCLib/inc\xmc_usic.h ****  * 			\b Range: @ref XMC_USIC_CH_STATUS_OK if baudrate is successfully configured,
 651:C:/Users/Lenovo/workspace/dave_workspace/SOLAR_TOWER/Libraries/XMCLib/inc\xmc_usic.h ****  * 					  @ref XMC_USIC_CH_STATUS_ERROR if desired baudrate or oversampling is invalid.
 652:C:/Users/Lenovo/workspace/dave_workspace/SOLAR_TOWER/Libraries/XMCLib/inc\xmc_usic.h ****  *
 653:C:/Users/Lenovo/workspace/dave_workspace/SOLAR_TOWER/Libraries/XMCLib/inc\xmc_usic.h ****  * \par<b>Description</b><br>
 654:C:/Users/Lenovo/workspace/dave_workspace/SOLAR_TOWER/Libraries/XMCLib/inc\xmc_usic.h ****  * Configures the baudrate of the USIC channel. \n\n
 655:C:/Users/Lenovo/workspace/dave_workspace/SOLAR_TOWER/Libraries/XMCLib/inc\xmc_usic.h ****  * Baudrate is configured by considering the peripheral frequency and the desired baudrate.
 656:C:/Users/Lenovo/workspace/dave_workspace/SOLAR_TOWER/Libraries/XMCLib/inc\xmc_usic.h ****  * Optimum values of FDR->STEP and BRG->PDIV are calulated and used for generating the desired
 657:C:/Users/Lenovo/workspace/dave_workspace/SOLAR_TOWER/Libraries/XMCLib/inc\xmc_usic.h ****  * baudrate.
 658:C:/Users/Lenovo/workspace/dave_workspace/SOLAR_TOWER/Libraries/XMCLib/inc\xmc_usic.h ****  *
 659:C:/Users/Lenovo/workspace/dave_workspace/SOLAR_TOWER/Libraries/XMCLib/inc\xmc_usic.h ****  * \par<b>Related APIs:</b><BR>
 660:C:/Users/Lenovo/workspace/dave_workspace/SOLAR_TOWER/Libraries/XMCLib/inc\xmc_usic.h ****  * XMC_USIC_CH_SetStartTransmisionMode(), XMC_USIC_CH_SetInputSource() \n\n\n
 661:C:/Users/Lenovo/workspace/dave_workspace/SOLAR_TOWER/Libraries/XMCLib/inc\xmc_usic.h ****  */
 662:C:/Users/Lenovo/workspace/dave_workspace/SOLAR_TOWER/Libraries/XMCLib/inc\xmc_usic.h **** XMC_USIC_CH_STATUS_t XMC_USIC_CH_SetBaudrate(XMC_USIC_CH_t *const channel, uint32_t rate, uint32_t 
 663:C:/Users/Lenovo/workspace/dave_workspace/SOLAR_TOWER/Libraries/XMCLib/inc\xmc_usic.h **** 
 664:C:/Users/Lenovo/workspace/dave_workspace/SOLAR_TOWER/Libraries/XMCLib/inc\xmc_usic.h **** /**
 665:C:/Users/Lenovo/workspace/dave_workspace/SOLAR_TOWER/Libraries/XMCLib/inc\xmc_usic.h ****  * @param  channel Pointer to USIC channel handler of type @ref XMC_USIC_CH_t \n
 666:C:/Users/Lenovo/workspace/dave_workspace/SOLAR_TOWER/Libraries/XMCLib/inc\xmc_usic.h ****  * 				   \b Range: @ref XMC_USIC0_CH0, @ref XMC_USIC0_CH1 to @ref XMC_USIC2_CH1 based on device su
 667:C:/Users/Lenovo/workspace/dave_workspace/SOLAR_TOWER/Libraries/XMCLib/inc\xmc_usic.h ****  * @param  pdiv Desired divider for the external frequency input. \b Range: minimum value = 1, maxi
 668:C:/Users/Lenovo/workspace/dave_workspace/SOLAR_TOWER/Libraries/XMCLib/inc\xmc_usic.h ****  * @param  oversampling Required oversampling. The value indicates the number of time quanta for on
 669:C:/Users/Lenovo/workspace/dave_workspace/SOLAR_TOWER/Libraries/XMCLib/inc\xmc_usic.h ****  * 						This can be related to the number of samples for each logic state of the data signal. \n
 670:C:/Users/Lenovo/workspace/dave_workspace/SOLAR_TOWER/Libraries/XMCLib/inc\xmc_usic.h ****  * 						\b Range: 1 to 32. Value should be chosen based on the protocol used.
 671:C:/Users/Lenovo/workspace/dave_workspace/SOLAR_TOWER/Libraries/XMCLib/inc\xmc_usic.h ****  * @param  combination_mode Selects which edge of the synchronized(and optionally filtered) signal 
 672:C:/Users/Lenovo/workspace/dave_workspace/SOLAR_TOWER/Libraries/XMCLib/inc\xmc_usic.h ****  *                          output DXnT of the input stage.
 673:C:/Users/Lenovo/workspace/dave_workspace/SOLAR_TOWER/Libraries/XMCLib/inc\xmc_usic.h ****  *
 674:C:/Users/Lenovo/workspace/dave_workspace/SOLAR_TOWER/Libraries/XMCLib/inc\xmc_usic.h ****  * @return None
 675:C:/Users/Lenovo/workspace/dave_workspace/SOLAR_TOWER/Libraries/XMCLib/inc\xmc_usic.h ****  *
 676:C:/Users/Lenovo/workspace/dave_workspace/SOLAR_TOWER/Libraries/XMCLib/inc\xmc_usic.h ****  * \par<b>Description</b><br>
 677:C:/Users/Lenovo/workspace/dave_workspace/SOLAR_TOWER/Libraries/XMCLib/inc\xmc_usic.h ****  * Enables the external frequency input for the Baudrate Generator and configures the divider, over
 678:C:/Users/Lenovo/workspace/dave_workspace/SOLAR_TOWER/Libraries/XMCLib/inc\xmc_usic.h ****  * the combination mode of the USIC channel. \n\n
 679:C:/Users/Lenovo/workspace/dave_workspace/SOLAR_TOWER/Libraries/XMCLib/inc\xmc_usic.h ****  *
 680:C:/Users/Lenovo/workspace/dave_workspace/SOLAR_TOWER/Libraries/XMCLib/inc\xmc_usic.h ****  * \par<b>Related APIs:</b><BR>
 681:C:/Users/Lenovo/workspace/dave_workspace/SOLAR_TOWER/Libraries/XMCLib/inc\xmc_usic.h ****  * XMC_USIC_CH_SetBRGInputClockSource(), XMC_USIC_CH_SetInputTriggerCombinationMode() \n\n\n
 682:C:/Users/Lenovo/workspace/dave_workspace/SOLAR_TOWER/Libraries/XMCLib/inc\xmc_usic.h ****  */
 683:C:/Users/Lenovo/workspace/dave_workspace/SOLAR_TOWER/Libraries/XMCLib/inc\xmc_usic.h **** void XMC_USIC_CH_ConfigExternalInputSignalToBRG(XMC_USIC_CH_t *const channel,
 684:C:/Users/Lenovo/workspace/dave_workspace/SOLAR_TOWER/Libraries/XMCLib/inc\xmc_usic.h **** 		                                         const uint16_t pdiv,
 685:C:/Users/Lenovo/workspace/dave_workspace/SOLAR_TOWER/Libraries/XMCLib/inc\xmc_usic.h **** 												 const uint32_t oversampling,
 686:C:/Users/Lenovo/workspace/dave_workspace/SOLAR_TOWER/Libraries/XMCLib/inc\xmc_usic.h **** 												 const XMC_USIC_CH_INPUT_COMBINATION_MODE_t combination_mode);
 687:C:/Users/Lenovo/workspace/dave_workspace/SOLAR_TOWER/Libraries/XMCLib/inc\xmc_usic.h **** 
 688:C:/Users/Lenovo/workspace/dave_workspace/SOLAR_TOWER/Libraries/XMCLib/inc\xmc_usic.h **** /**
 689:C:/Users/Lenovo/workspace/dave_workspace/SOLAR_TOWER/Libraries/XMCLib/inc\xmc_usic.h ****  * @param  channel Pointer to USIC channel handler of type @ref XMC_USIC_CH_t \n
 690:C:/Users/Lenovo/workspace/dave_workspace/SOLAR_TOWER/Libraries/XMCLib/inc\xmc_usic.h ****  * 				   \b Range: @ref XMC_USIC0_CH0, @ref XMC_USIC0_CH1 to @ref XMC_USIC2_CH1 based on device su
 691:C:/Users/Lenovo/workspace/dave_workspace/SOLAR_TOWER/Libraries/XMCLib/inc\xmc_usic.h ****  * @param  input USIC channel input stage of type @ref XMC_USIC_CH_INPUT_t. \n
 692:C:/Users/Lenovo/workspace/dave_workspace/SOLAR_TOWER/Libraries/XMCLib/inc\xmc_usic.h ****  * 				 \b Range: @ref XMC_USIC_CH_INPUT_DX0 to @ref XMC_USIC_CH_INPUT_DX5
 693:C:/Users/Lenovo/workspace/dave_workspace/SOLAR_TOWER/Libraries/XMCLib/inc\xmc_usic.h ****  * @param  source Input source select for the input stage. The table below maps the enum value with
 694:C:/Users/Lenovo/workspace/dave_workspace/SOLAR_TOWER/Libraries/XMCLib/inc\xmc_usic.h ****  * <table><tr><td>0</td><td>DXnA</td></tr><tr><td>1</td><td>DXnB</td></tr><tr><td>2</td><td>DXnC</t
 695:C:/Users/Lenovo/workspace/dave_workspace/SOLAR_TOWER/Libraries/XMCLib/inc\xmc_usic.h ****  * <tr><td>4</td><td>DXnE</td></tr><tr><td>5</td><td>DXnF</td></tr><tr><td>6</td><td>DXnG</td></tr>
 696:C:/Users/Lenovo/workspace/dave_workspace/SOLAR_TOWER/Libraries/XMCLib/inc\xmc_usic.h ****  * </tr></table>
 697:C:/Users/Lenovo/workspace/dave_workspace/SOLAR_TOWER/Libraries/XMCLib/inc\xmc_usic.h ****  * @return None
 698:C:/Users/Lenovo/workspace/dave_workspace/SOLAR_TOWER/Libraries/XMCLib/inc\xmc_usic.h ****  *
 699:C:/Users/Lenovo/workspace/dave_workspace/SOLAR_TOWER/Libraries/XMCLib/inc\xmc_usic.h ****  * \par<b>Description</b><br>
 700:C:/Users/Lenovo/workspace/dave_workspace/SOLAR_TOWER/Libraries/XMCLib/inc\xmc_usic.h ****  * Selects the data source for USIC input stage.\n\n
 701:C:/Users/Lenovo/workspace/dave_workspace/SOLAR_TOWER/Libraries/XMCLib/inc\xmc_usic.h ****  * Selects the input data signal source among DXnA, DXnB.. DXnG for the input stage. The API can be
 702:C:/Users/Lenovo/workspace/dave_workspace/SOLAR_TOWER/Libraries/XMCLib/inc\xmc_usic.h ****  * like DX0CR, DX1CR etc. 
 703:C:/Users/Lenovo/workspace/dave_workspace/SOLAR_TOWER/Libraries/XMCLib/inc\xmc_usic.h ****  *  
 704:C:/Users/Lenovo/workspace/dave_workspace/SOLAR_TOWER/Libraries/XMCLib/inc\xmc_usic.h ****  * \par<b>Related APIs:</b><BR>
 705:C:/Users/Lenovo/workspace/dave_workspace/SOLAR_TOWER/Libraries/XMCLib/inc\xmc_usic.h ****  * XMC_USIC_CH_EnableInputInversion(), XMC_USIC_CH_EnableInputDigitalFilter(), XMC_USIC_CH_EnableIn
 706:C:/Users/Lenovo/workspace/dave_workspace/SOLAR_TOWER/Libraries/XMCLib/inc\xmc_usic.h ****  * XMC_USIC_CH_SetInputSamplingFreq()\n\n\n
 707:C:/Users/Lenovo/workspace/dave_workspace/SOLAR_TOWER/Libraries/XMCLib/inc\xmc_usic.h ****  */
 708:C:/Users/Lenovo/workspace/dave_workspace/SOLAR_TOWER/Libraries/XMCLib/inc\xmc_usic.h **** __STATIC_INLINE void XMC_USIC_CH_SetInputSource(XMC_USIC_CH_t *const channel, const XMC_USIC_CH_INP
 709:C:/Users/Lenovo/workspace/dave_workspace/SOLAR_TOWER/Libraries/XMCLib/inc\xmc_usic.h **** {
 217              	 .loc 2 709 0
 218              	 .cfi_startproc
 219 0000 80B5     	 push {r7,lr}
 220              	.LCFI6:
 221              	 .cfi_def_cfa_offset 8
 222              	 .cfi_offset 7,-8
 223              	 .cfi_offset 14,-4
 224 0002 82B0     	 sub sp,sp,#8
 225              	.LCFI7:
 226              	 .cfi_def_cfa_offset 16
 227 0004 00AF     	 add r7,sp,#0
 228              	.LCFI8:
 229              	 .cfi_def_cfa_register 7
 230 0006 7860     	 str r0,[r7,#4]
 231 0008 081C     	 mov r0,r1
 232 000a 111C     	 mov r1,r2
 233 000c FB1C     	 add r3,r7,#3
 234 000e 021C     	 add r2,r0,#0
 235 0010 1A70     	 strb r2,[r3]
 236 0012 BB1C     	 add r3,r7,#2
 237 0014 0A1C     	 add r2,r1,#0
 238 0016 1A70     	 strb r2,[r3]
 710:C:/Users/Lenovo/workspace/dave_workspace/SOLAR_TOWER/Libraries/XMCLib/inc\xmc_usic.h ****   channel->DXCR[input] = (uint32_t)((channel->DXCR[input] & (uint32_t)(~USIC_CH_DXCR_DSEL_Msk)) |
 239              	 .loc 2 710 0
 240 0018 FB1C     	 add r3,r7,#3
 241 001a 1878     	 ldrb r0,[r3]
 242 001c FB1C     	 add r3,r7,#3
 243 001e 1B78     	 ldrb r3,[r3]
 244 0020 7A68     	 ldr r2,[r7,#4]
 245 0022 0633     	 add r3,r3,#6
 246 0024 9B00     	 lsl r3,r3,#2
 247 0026 D318     	 add r3,r2,r3
 248 0028 5B68     	 ldr r3,[r3,#4]
 249 002a 0722     	 mov r2,#7
 250 002c 9343     	 bic r3,r2
 251 002e 1A1C     	 mov r2,r3
 711:C:/Users/Lenovo/workspace/dave_workspace/SOLAR_TOWER/Libraries/XMCLib/inc\xmc_usic.h ****                          ((uint32_t)source << USIC_CH_DXCR_DSEL_Pos));
 252              	 .loc 2 711 0
 253 0030 BB1C     	 add r3,r7,#2
 254 0032 1B78     	 ldrb r3,[r3]
 710:C:/Users/Lenovo/workspace/dave_workspace/SOLAR_TOWER/Libraries/XMCLib/inc\xmc_usic.h ****   channel->DXCR[input] = (uint32_t)((channel->DXCR[input] & (uint32_t)(~USIC_CH_DXCR_DSEL_Msk)) |
 255              	 .loc 2 710 0
 256 0034 1A43     	 orr r2,r3
 257 0036 7968     	 ldr r1,[r7,#4]
 258 0038 831D     	 add r3,r0,#6
 259 003a 9B00     	 lsl r3,r3,#2
 260 003c CB18     	 add r3,r1,r3
 261 003e 5A60     	 str r2,[r3,#4]
 712:C:/Users/Lenovo/workspace/dave_workspace/SOLAR_TOWER/Libraries/XMCLib/inc\xmc_usic.h **** }
 262              	 .loc 2 712 0
 263 0040 BD46     	 mov sp,r7
 264 0042 02B0     	 add sp,sp,#8
 265              	 
 266 0044 80BD     	 pop {r7,pc}
 267              	 .cfi_endproc
 268              	.LFE63:
 270 0046 C046     	 .section .text.XMC_USIC_CH_GetTransmitBufferStatus,"ax",%progbits
 271              	 .align 2
 272              	 .code 16
 273              	 .thumb_func
 275              	XMC_USIC_CH_GetTransmitBufferStatus:
 276              	.LFB86:
 713:C:/Users/Lenovo/workspace/dave_workspace/SOLAR_TOWER/Libraries/XMCLib/inc\xmc_usic.h **** /**
 714:C:/Users/Lenovo/workspace/dave_workspace/SOLAR_TOWER/Libraries/XMCLib/inc\xmc_usic.h ****  * @param  channel Pointer to USIC channel handler of type @ref XMC_USIC_CH_t \n
 715:C:/Users/Lenovo/workspace/dave_workspace/SOLAR_TOWER/Libraries/XMCLib/inc\xmc_usic.h ****  * 				   \b Range: @ref XMC_USIC0_CH0, @ref XMC_USIC0_CH1 to @ref XMC_USIC2_CH1 based on device su
 716:C:/Users/Lenovo/workspace/dave_workspace/SOLAR_TOWER/Libraries/XMCLib/inc\xmc_usic.h ****  * @param  input USIC channel input stage of type @ref XMC_USIC_CH_INPUT_t. \n
 717:C:/Users/Lenovo/workspace/dave_workspace/SOLAR_TOWER/Libraries/XMCLib/inc\xmc_usic.h ****  * 				 \b Range: @ref XMC_USIC_CH_INPUT_DX0 to @ref XMC_USIC_CH_INPUT_DX5
 718:C:/Users/Lenovo/workspace/dave_workspace/SOLAR_TOWER/Libraries/XMCLib/inc\xmc_usic.h ****  * @return None
 719:C:/Users/Lenovo/workspace/dave_workspace/SOLAR_TOWER/Libraries/XMCLib/inc\xmc_usic.h ****  *
 720:C:/Users/Lenovo/workspace/dave_workspace/SOLAR_TOWER/Libraries/XMCLib/inc\xmc_usic.h ****  * \par<b>Description</b><br>
 721:C:/Users/Lenovo/workspace/dave_workspace/SOLAR_TOWER/Libraries/XMCLib/inc\xmc_usic.h ****  * The input of the data shift unit is controlled by the
 722:C:/Users/Lenovo/workspace/dave_workspace/SOLAR_TOWER/Libraries/XMCLib/inc\xmc_usic.h ****  * protocol pre-processor. \n\n
 723:C:/Users/Lenovo/workspace/dave_workspace/SOLAR_TOWER/Libraries/XMCLib/inc\xmc_usic.h ****  *
 724:C:/Users/Lenovo/workspace/dave_workspace/SOLAR_TOWER/Libraries/XMCLib/inc\xmc_usic.h ****  * \par<b>Related APIs:</b><BR>
 725:C:/Users/Lenovo/workspace/dave_workspace/SOLAR_TOWER/Libraries/XMCLib/inc\xmc_usic.h ****  * XMC_USIC_CH_ConnectInputDataShiftToDataInput()\n\n\n
 726:C:/Users/Lenovo/workspace/dave_workspace/SOLAR_TOWER/Libraries/XMCLib/inc\xmc_usic.h ****  */
 727:C:/Users/Lenovo/workspace/dave_workspace/SOLAR_TOWER/Libraries/XMCLib/inc\xmc_usic.h **** __STATIC_INLINE void XMC_USIC_CH_ConnectInputDataShiftToPPP(XMC_USIC_CH_t *const channel, const XMC
 728:C:/Users/Lenovo/workspace/dave_workspace/SOLAR_TOWER/Libraries/XMCLib/inc\xmc_usic.h **** {
 729:C:/Users/Lenovo/workspace/dave_workspace/SOLAR_TOWER/Libraries/XMCLib/inc\xmc_usic.h ****   channel->DXCR[input] &=(uint32_t)~USIC_CH_DXCR_INSW_Msk;
 730:C:/Users/Lenovo/workspace/dave_workspace/SOLAR_TOWER/Libraries/XMCLib/inc\xmc_usic.h **** }
 731:C:/Users/Lenovo/workspace/dave_workspace/SOLAR_TOWER/Libraries/XMCLib/inc\xmc_usic.h **** 
 732:C:/Users/Lenovo/workspace/dave_workspace/SOLAR_TOWER/Libraries/XMCLib/inc\xmc_usic.h **** /**
 733:C:/Users/Lenovo/workspace/dave_workspace/SOLAR_TOWER/Libraries/XMCLib/inc\xmc_usic.h ****  * @param  channel Pointer to USIC channel handler of type @ref XMC_USIC_CH_t \n
 734:C:/Users/Lenovo/workspace/dave_workspace/SOLAR_TOWER/Libraries/XMCLib/inc\xmc_usic.h ****  * 				   \b Range: @ref XMC_USIC0_CH0, @ref XMC_USIC0_CH1 to @ref XMC_USIC2_CH1 based on device su
 735:C:/Users/Lenovo/workspace/dave_workspace/SOLAR_TOWER/Libraries/XMCLib/inc\xmc_usic.h ****  * @param  input USIC channel input stage of type @ref XMC_USIC_CH_INPUT_t. \n
 736:C:/Users/Lenovo/workspace/dave_workspace/SOLAR_TOWER/Libraries/XMCLib/inc\xmc_usic.h ****  * 				 \b Range: @ref XMC_USIC_CH_INPUT_DX0 to @ref XMC_USIC_CH_INPUT_DX5
 737:C:/Users/Lenovo/workspace/dave_workspace/SOLAR_TOWER/Libraries/XMCLib/inc\xmc_usic.h ****  * @return None
 738:C:/Users/Lenovo/workspace/dave_workspace/SOLAR_TOWER/Libraries/XMCLib/inc\xmc_usic.h ****  *
 739:C:/Users/Lenovo/workspace/dave_workspace/SOLAR_TOWER/Libraries/XMCLib/inc\xmc_usic.h ****  * \par<b>Description</b><br>
 740:C:/Users/Lenovo/workspace/dave_workspace/SOLAR_TOWER/Libraries/XMCLib/inc\xmc_usic.h ****  * The input of the data shift unit is connected to
 741:C:/Users/Lenovo/workspace/dave_workspace/SOLAR_TOWER/Libraries/XMCLib/inc\xmc_usic.h ****  * the selected data input line. \n\n
 742:C:/Users/Lenovo/workspace/dave_workspace/SOLAR_TOWER/Libraries/XMCLib/inc\xmc_usic.h ****  *
 743:C:/Users/Lenovo/workspace/dave_workspace/SOLAR_TOWER/Libraries/XMCLib/inc\xmc_usic.h ****  * This setting is used
 744:C:/Users/Lenovo/workspace/dave_workspace/SOLAR_TOWER/Libraries/XMCLib/inc\xmc_usic.h ****  * if the signals are directly derived from an input
 745:C:/Users/Lenovo/workspace/dave_workspace/SOLAR_TOWER/Libraries/XMCLib/inc\xmc_usic.h ****  * pin without treatment by the protocol preprocessor.
 746:C:/Users/Lenovo/workspace/dave_workspace/SOLAR_TOWER/Libraries/XMCLib/inc\xmc_usic.h ****  * \par<b>Related APIs:</b><BR>
 747:C:/Users/Lenovo/workspace/dave_workspace/SOLAR_TOWER/Libraries/XMCLib/inc\xmc_usic.h ****  * XMC_USIC_CH_ConnectInputDataShiftToPPP()\n\n\n
 748:C:/Users/Lenovo/workspace/dave_workspace/SOLAR_TOWER/Libraries/XMCLib/inc\xmc_usic.h ****  */
 749:C:/Users/Lenovo/workspace/dave_workspace/SOLAR_TOWER/Libraries/XMCLib/inc\xmc_usic.h **** __STATIC_INLINE void XMC_USIC_CH_ConnectInputDataShiftToDataInput(XMC_USIC_CH_t *const channel, con
 750:C:/Users/Lenovo/workspace/dave_workspace/SOLAR_TOWER/Libraries/XMCLib/inc\xmc_usic.h **** {
 751:C:/Users/Lenovo/workspace/dave_workspace/SOLAR_TOWER/Libraries/XMCLib/inc\xmc_usic.h ****   channel->DXCR[input] |= USIC_CH_DXCR_INSW_Msk;
 752:C:/Users/Lenovo/workspace/dave_workspace/SOLAR_TOWER/Libraries/XMCLib/inc\xmc_usic.h **** }
 753:C:/Users/Lenovo/workspace/dave_workspace/SOLAR_TOWER/Libraries/XMCLib/inc\xmc_usic.h **** 
 754:C:/Users/Lenovo/workspace/dave_workspace/SOLAR_TOWER/Libraries/XMCLib/inc\xmc_usic.h **** /**
 755:C:/Users/Lenovo/workspace/dave_workspace/SOLAR_TOWER/Libraries/XMCLib/inc\xmc_usic.h ****  * @param  channel Pointer to USIC channel handler of type @ref XMC_USIC_CH_t \n
 756:C:/Users/Lenovo/workspace/dave_workspace/SOLAR_TOWER/Libraries/XMCLib/inc\xmc_usic.h ****  * 				   \b Range: @ref XMC_USIC0_CH0, @ref XMC_USIC0_CH1 to @ref XMC_USIC2_CH1 based on device su
 757:C:/Users/Lenovo/workspace/dave_workspace/SOLAR_TOWER/Libraries/XMCLib/inc\xmc_usic.h ****  * @param  input USIC channel input stage of type @ref XMC_USIC_CH_INPUT_t. \n
 758:C:/Users/Lenovo/workspace/dave_workspace/SOLAR_TOWER/Libraries/XMCLib/inc\xmc_usic.h ****  * 				 \b Range: @ref XMC_USIC_CH_INPUT_DX0 to @ref XMC_USIC_CH_INPUT_DX5
 759:C:/Users/Lenovo/workspace/dave_workspace/SOLAR_TOWER/Libraries/XMCLib/inc\xmc_usic.h ****  * @return None
 760:C:/Users/Lenovo/workspace/dave_workspace/SOLAR_TOWER/Libraries/XMCLib/inc\xmc_usic.h ****  *
 761:C:/Users/Lenovo/workspace/dave_workspace/SOLAR_TOWER/Libraries/XMCLib/inc\xmc_usic.h ****  * \par<b>Description</b><br>
 762:C:/Users/Lenovo/workspace/dave_workspace/SOLAR_TOWER/Libraries/XMCLib/inc\xmc_usic.h ****  * Enables input inversion for USIC channel input data signal. \n\n
 763:C:/Users/Lenovo/workspace/dave_workspace/SOLAR_TOWER/Libraries/XMCLib/inc\xmc_usic.h ****  *
 764:C:/Users/Lenovo/workspace/dave_workspace/SOLAR_TOWER/Libraries/XMCLib/inc\xmc_usic.h ****  * Polarity of the input source can be changed to provide inverted data input.
 765:C:/Users/Lenovo/workspace/dave_workspace/SOLAR_TOWER/Libraries/XMCLib/inc\xmc_usic.h ****  * \par<b>Related APIs:</b><BR>
 766:C:/Users/Lenovo/workspace/dave_workspace/SOLAR_TOWER/Libraries/XMCLib/inc\xmc_usic.h ****  * XMC_USIC_CH_DisableInputInversion()\n\n\n
 767:C:/Users/Lenovo/workspace/dave_workspace/SOLAR_TOWER/Libraries/XMCLib/inc\xmc_usic.h ****  */
 768:C:/Users/Lenovo/workspace/dave_workspace/SOLAR_TOWER/Libraries/XMCLib/inc\xmc_usic.h **** __STATIC_INLINE void XMC_USIC_CH_EnableInputInversion(XMC_USIC_CH_t *const channel, const XMC_USIC_
 769:C:/Users/Lenovo/workspace/dave_workspace/SOLAR_TOWER/Libraries/XMCLib/inc\xmc_usic.h **** {
 770:C:/Users/Lenovo/workspace/dave_workspace/SOLAR_TOWER/Libraries/XMCLib/inc\xmc_usic.h ****   channel->DXCR[input] |= USIC_CH_DXCR_DPOL_Msk;
 771:C:/Users/Lenovo/workspace/dave_workspace/SOLAR_TOWER/Libraries/XMCLib/inc\xmc_usic.h **** }
 772:C:/Users/Lenovo/workspace/dave_workspace/SOLAR_TOWER/Libraries/XMCLib/inc\xmc_usic.h **** 
 773:C:/Users/Lenovo/workspace/dave_workspace/SOLAR_TOWER/Libraries/XMCLib/inc\xmc_usic.h **** /**
 774:C:/Users/Lenovo/workspace/dave_workspace/SOLAR_TOWER/Libraries/XMCLib/inc\xmc_usic.h ****  * @param  channel Pointer to USIC channel handler of type @ref XMC_USIC_CH_t \n
 775:C:/Users/Lenovo/workspace/dave_workspace/SOLAR_TOWER/Libraries/XMCLib/inc\xmc_usic.h ****  * 				   \b Range: @ref XMC_USIC0_CH0, @ref XMC_USIC0_CH1 to @ref XMC_USIC2_CH1 based on device su
 776:C:/Users/Lenovo/workspace/dave_workspace/SOLAR_TOWER/Libraries/XMCLib/inc\xmc_usic.h ****  * @param  input USIC channel input stage of type @ref XMC_USIC_CH_INPUT_t. \n
 777:C:/Users/Lenovo/workspace/dave_workspace/SOLAR_TOWER/Libraries/XMCLib/inc\xmc_usic.h ****  * 				 \b Range: @ref XMC_USIC_CH_INPUT_DX0 to @ref XMC_USIC_CH_INPUT_DX5
 778:C:/Users/Lenovo/workspace/dave_workspace/SOLAR_TOWER/Libraries/XMCLib/inc\xmc_usic.h ****  * @return None
 779:C:/Users/Lenovo/workspace/dave_workspace/SOLAR_TOWER/Libraries/XMCLib/inc\xmc_usic.h ****  *
 780:C:/Users/Lenovo/workspace/dave_workspace/SOLAR_TOWER/Libraries/XMCLib/inc\xmc_usic.h ****  * \par<b>Description</b><br>
 781:C:/Users/Lenovo/workspace/dave_workspace/SOLAR_TOWER/Libraries/XMCLib/inc\xmc_usic.h ****  * Disables input inversion for USIC channel. \n\n
 782:C:/Users/Lenovo/workspace/dave_workspace/SOLAR_TOWER/Libraries/XMCLib/inc\xmc_usic.h ****  *
 783:C:/Users/Lenovo/workspace/dave_workspace/SOLAR_TOWER/Libraries/XMCLib/inc\xmc_usic.h ****  * Resets the input data polarity for the USIC channel input data signal.
 784:C:/Users/Lenovo/workspace/dave_workspace/SOLAR_TOWER/Libraries/XMCLib/inc\xmc_usic.h ****  * \par<b>Related APIs:</b><BR>
 785:C:/Users/Lenovo/workspace/dave_workspace/SOLAR_TOWER/Libraries/XMCLib/inc\xmc_usic.h ****  * XMC_USIC_CH_EnableInputInversion()\n\n\n
 786:C:/Users/Lenovo/workspace/dave_workspace/SOLAR_TOWER/Libraries/XMCLib/inc\xmc_usic.h ****  */
 787:C:/Users/Lenovo/workspace/dave_workspace/SOLAR_TOWER/Libraries/XMCLib/inc\xmc_usic.h **** __STATIC_INLINE void XMC_USIC_CH_DisableInputInversion(XMC_USIC_CH_t *const channel, const XMC_USIC
 788:C:/Users/Lenovo/workspace/dave_workspace/SOLAR_TOWER/Libraries/XMCLib/inc\xmc_usic.h **** {
 789:C:/Users/Lenovo/workspace/dave_workspace/SOLAR_TOWER/Libraries/XMCLib/inc\xmc_usic.h ****   channel->DXCR[input] &=(uint32_t)~USIC_CH_DXCR_DPOL_Msk;
 790:C:/Users/Lenovo/workspace/dave_workspace/SOLAR_TOWER/Libraries/XMCLib/inc\xmc_usic.h **** }
 791:C:/Users/Lenovo/workspace/dave_workspace/SOLAR_TOWER/Libraries/XMCLib/inc\xmc_usic.h **** 
 792:C:/Users/Lenovo/workspace/dave_workspace/SOLAR_TOWER/Libraries/XMCLib/inc\xmc_usic.h **** /**
 793:C:/Users/Lenovo/workspace/dave_workspace/SOLAR_TOWER/Libraries/XMCLib/inc\xmc_usic.h ****  * @param  channel Pointer to USIC channel handler of type @ref XMC_USIC_CH_t \n
 794:C:/Users/Lenovo/workspace/dave_workspace/SOLAR_TOWER/Libraries/XMCLib/inc\xmc_usic.h ****  * 				   \b Range: @ref XMC_USIC0_CH0, @ref XMC_USIC0_CH1 to @ref XMC_USIC2_CH1 based on device su
 795:C:/Users/Lenovo/workspace/dave_workspace/SOLAR_TOWER/Libraries/XMCLib/inc\xmc_usic.h ****  * @return None
 796:C:/Users/Lenovo/workspace/dave_workspace/SOLAR_TOWER/Libraries/XMCLib/inc\xmc_usic.h ****  *
 797:C:/Users/Lenovo/workspace/dave_workspace/SOLAR_TOWER/Libraries/XMCLib/inc\xmc_usic.h ****  * \par<b>Description</b><br>
 798:C:/Users/Lenovo/workspace/dave_workspace/SOLAR_TOWER/Libraries/XMCLib/inc\xmc_usic.h ****  * Enables delay compensation. \n\n
 799:C:/Users/Lenovo/workspace/dave_workspace/SOLAR_TOWER/Libraries/XMCLib/inc\xmc_usic.h ****  *
 800:C:/Users/Lenovo/workspace/dave_workspace/SOLAR_TOWER/Libraries/XMCLib/inc\xmc_usic.h ****  * Delay compensation can be applied to the receive path.
 801:C:/Users/Lenovo/workspace/dave_workspace/SOLAR_TOWER/Libraries/XMCLib/inc\xmc_usic.h ****  * \par<b>Related APIs:</b><BR>
 802:C:/Users/Lenovo/workspace/dave_workspace/SOLAR_TOWER/Libraries/XMCLib/inc\xmc_usic.h ****  * XMC_USIC_CH_DisableDelayCompensation()\n\n\n
 803:C:/Users/Lenovo/workspace/dave_workspace/SOLAR_TOWER/Libraries/XMCLib/inc\xmc_usic.h ****  */
 804:C:/Users/Lenovo/workspace/dave_workspace/SOLAR_TOWER/Libraries/XMCLib/inc\xmc_usic.h **** __STATIC_INLINE void XMC_USIC_CH_EnableDelayCompensation(XMC_USIC_CH_t *const channel)
 805:C:/Users/Lenovo/workspace/dave_workspace/SOLAR_TOWER/Libraries/XMCLib/inc\xmc_usic.h **** {
 806:C:/Users/Lenovo/workspace/dave_workspace/SOLAR_TOWER/Libraries/XMCLib/inc\xmc_usic.h ****   channel->DXCR[1U] |= USIC_CH_DX1CR_DCEN_Msk;
 807:C:/Users/Lenovo/workspace/dave_workspace/SOLAR_TOWER/Libraries/XMCLib/inc\xmc_usic.h **** }
 808:C:/Users/Lenovo/workspace/dave_workspace/SOLAR_TOWER/Libraries/XMCLib/inc\xmc_usic.h **** 
 809:C:/Users/Lenovo/workspace/dave_workspace/SOLAR_TOWER/Libraries/XMCLib/inc\xmc_usic.h **** /**
 810:C:/Users/Lenovo/workspace/dave_workspace/SOLAR_TOWER/Libraries/XMCLib/inc\xmc_usic.h ****  * @param  channel Pointer to USIC channel handler of type @ref XMC_USIC_CH_t \n
 811:C:/Users/Lenovo/workspace/dave_workspace/SOLAR_TOWER/Libraries/XMCLib/inc\xmc_usic.h ****  * 				   \b Range: @ref XMC_USIC0_CH0, @ref XMC_USIC0_CH1 to @ref XMC_USIC2_CH1 based on device su
 812:C:/Users/Lenovo/workspace/dave_workspace/SOLAR_TOWER/Libraries/XMCLib/inc\xmc_usic.h ****  * @return None
 813:C:/Users/Lenovo/workspace/dave_workspace/SOLAR_TOWER/Libraries/XMCLib/inc\xmc_usic.h ****  *
 814:C:/Users/Lenovo/workspace/dave_workspace/SOLAR_TOWER/Libraries/XMCLib/inc\xmc_usic.h ****  * \par<b>Description</b><br>
 815:C:/Users/Lenovo/workspace/dave_workspace/SOLAR_TOWER/Libraries/XMCLib/inc\xmc_usic.h ****  * Disables delay compensation.. \n\n
 816:C:/Users/Lenovo/workspace/dave_workspace/SOLAR_TOWER/Libraries/XMCLib/inc\xmc_usic.h ****  *
 817:C:/Users/Lenovo/workspace/dave_workspace/SOLAR_TOWER/Libraries/XMCLib/inc\xmc_usic.h ****  * \par<b>Related APIs:</b><BR>
 818:C:/Users/Lenovo/workspace/dave_workspace/SOLAR_TOWER/Libraries/XMCLib/inc\xmc_usic.h ****  * XMC_USIC_CH_EnableDelayCompensation()\n\n\n
 819:C:/Users/Lenovo/workspace/dave_workspace/SOLAR_TOWER/Libraries/XMCLib/inc\xmc_usic.h ****  */
 820:C:/Users/Lenovo/workspace/dave_workspace/SOLAR_TOWER/Libraries/XMCLib/inc\xmc_usic.h **** __STATIC_INLINE void XMC_USIC_CH_DisableDelayCompensation(XMC_USIC_CH_t *const channel)
 821:C:/Users/Lenovo/workspace/dave_workspace/SOLAR_TOWER/Libraries/XMCLib/inc\xmc_usic.h **** {
 822:C:/Users/Lenovo/workspace/dave_workspace/SOLAR_TOWER/Libraries/XMCLib/inc\xmc_usic.h ****   channel->DXCR[1U] &=(uint32_t)~USIC_CH_DX1CR_DCEN_Msk;
 823:C:/Users/Lenovo/workspace/dave_workspace/SOLAR_TOWER/Libraries/XMCLib/inc\xmc_usic.h **** }
 824:C:/Users/Lenovo/workspace/dave_workspace/SOLAR_TOWER/Libraries/XMCLib/inc\xmc_usic.h **** 
 825:C:/Users/Lenovo/workspace/dave_workspace/SOLAR_TOWER/Libraries/XMCLib/inc\xmc_usic.h **** /**
 826:C:/Users/Lenovo/workspace/dave_workspace/SOLAR_TOWER/Libraries/XMCLib/inc\xmc_usic.h ****  * @param  channel Pointer to USIC channel handler of type @ref XMC_USIC_CH_t \n
 827:C:/Users/Lenovo/workspace/dave_workspace/SOLAR_TOWER/Libraries/XMCLib/inc\xmc_usic.h ****  * 				   \b Range: @ref XMC_USIC0_CH0, @ref XMC_USIC0_CH1 to @ref XMC_USIC2_CH1 based on device su
 828:C:/Users/Lenovo/workspace/dave_workspace/SOLAR_TOWER/Libraries/XMCLib/inc\xmc_usic.h ****  * @param  input USIC channel input stage of type @ref XMC_USIC_CH_INPUT_t. \n
 829:C:/Users/Lenovo/workspace/dave_workspace/SOLAR_TOWER/Libraries/XMCLib/inc\xmc_usic.h ****  * 				 \b Range: @ref XMC_USIC_CH_INPUT_DX0 to @ref XMC_USIC_CH_INPUT_DX5
 830:C:/Users/Lenovo/workspace/dave_workspace/SOLAR_TOWER/Libraries/XMCLib/inc\xmc_usic.h ****  * @return None
 831:C:/Users/Lenovo/workspace/dave_workspace/SOLAR_TOWER/Libraries/XMCLib/inc\xmc_usic.h ****  *
 832:C:/Users/Lenovo/workspace/dave_workspace/SOLAR_TOWER/Libraries/XMCLib/inc\xmc_usic.h ****  * \par<b>Description</b><br>
 833:C:/Users/Lenovo/workspace/dave_workspace/SOLAR_TOWER/Libraries/XMCLib/inc\xmc_usic.h ****  * Enables the input digital filter for USIC channel input data signal. \n\n
 834:C:/Users/Lenovo/workspace/dave_workspace/SOLAR_TOWER/Libraries/XMCLib/inc\xmc_usic.h ****  * Input data signal from the selected multiplexer will be digitally filtered.
 835:C:/Users/Lenovo/workspace/dave_workspace/SOLAR_TOWER/Libraries/XMCLib/inc\xmc_usic.h ****  *
 836:C:/Users/Lenovo/workspace/dave_workspace/SOLAR_TOWER/Libraries/XMCLib/inc\xmc_usic.h ****  * \par<b>Related APIs:</b><BR>
 837:C:/Users/Lenovo/workspace/dave_workspace/SOLAR_TOWER/Libraries/XMCLib/inc\xmc_usic.h ****  * XMC_USIC_CH_DisableInputDigitalFilter()\n\n\n
 838:C:/Users/Lenovo/workspace/dave_workspace/SOLAR_TOWER/Libraries/XMCLib/inc\xmc_usic.h ****  */
 839:C:/Users/Lenovo/workspace/dave_workspace/SOLAR_TOWER/Libraries/XMCLib/inc\xmc_usic.h **** __STATIC_INLINE void XMC_USIC_CH_EnableInputDigitalFilter(XMC_USIC_CH_t *const channel, const XMC_U
 840:C:/Users/Lenovo/workspace/dave_workspace/SOLAR_TOWER/Libraries/XMCLib/inc\xmc_usic.h **** {
 841:C:/Users/Lenovo/workspace/dave_workspace/SOLAR_TOWER/Libraries/XMCLib/inc\xmc_usic.h ****   channel->DXCR[input] |= (uint32_t)USIC_CH_DXCR_DFEN_Msk;
 842:C:/Users/Lenovo/workspace/dave_workspace/SOLAR_TOWER/Libraries/XMCLib/inc\xmc_usic.h **** }
 843:C:/Users/Lenovo/workspace/dave_workspace/SOLAR_TOWER/Libraries/XMCLib/inc\xmc_usic.h **** /**
 844:C:/Users/Lenovo/workspace/dave_workspace/SOLAR_TOWER/Libraries/XMCLib/inc\xmc_usic.h ****  * @param  channel Pointer to USIC channel handler of type @ref XMC_USIC_CH_t \n
 845:C:/Users/Lenovo/workspace/dave_workspace/SOLAR_TOWER/Libraries/XMCLib/inc\xmc_usic.h ****  * 				   \b Range: @ref XMC_USIC0_CH0, @ref XMC_USIC0_CH1 to @ref XMC_USIC2_CH1 based on device su
 846:C:/Users/Lenovo/workspace/dave_workspace/SOLAR_TOWER/Libraries/XMCLib/inc\xmc_usic.h ****  * @param  input USIC channel input stage of type @ref XMC_USIC_CH_INPUT_t. \n
 847:C:/Users/Lenovo/workspace/dave_workspace/SOLAR_TOWER/Libraries/XMCLib/inc\xmc_usic.h ****  * 				 \b Range: @ref XMC_USIC_CH_INPUT_DX0 to @ref XMC_USIC_CH_INPUT_DX5
 848:C:/Users/Lenovo/workspace/dave_workspace/SOLAR_TOWER/Libraries/XMCLib/inc\xmc_usic.h ****  * @return None
 849:C:/Users/Lenovo/workspace/dave_workspace/SOLAR_TOWER/Libraries/XMCLib/inc\xmc_usic.h ****  *
 850:C:/Users/Lenovo/workspace/dave_workspace/SOLAR_TOWER/Libraries/XMCLib/inc\xmc_usic.h ****  * \par<b>Description</b><br>
 851:C:/Users/Lenovo/workspace/dave_workspace/SOLAR_TOWER/Libraries/XMCLib/inc\xmc_usic.h ****  * Disables the input digital filter for USIC channel input data signal. \n\n
 852:C:/Users/Lenovo/workspace/dave_workspace/SOLAR_TOWER/Libraries/XMCLib/inc\xmc_usic.h ****  * Input data signal from the selected multiplexer will not be digitally filtered.
 853:C:/Users/Lenovo/workspace/dave_workspace/SOLAR_TOWER/Libraries/XMCLib/inc\xmc_usic.h ****  *
 854:C:/Users/Lenovo/workspace/dave_workspace/SOLAR_TOWER/Libraries/XMCLib/inc\xmc_usic.h ****  * \par<b>Related APIs:</b><BR>
 855:C:/Users/Lenovo/workspace/dave_workspace/SOLAR_TOWER/Libraries/XMCLib/inc\xmc_usic.h ****  * XMC_USIC_CH_EnableInputDigitalFilter()\n\n\n
 856:C:/Users/Lenovo/workspace/dave_workspace/SOLAR_TOWER/Libraries/XMCLib/inc\xmc_usic.h ****  */
 857:C:/Users/Lenovo/workspace/dave_workspace/SOLAR_TOWER/Libraries/XMCLib/inc\xmc_usic.h **** __STATIC_INLINE void XMC_USIC_CH_DisableInputDigitalFilter(XMC_USIC_CH_t *const channel, const XMC_
 858:C:/Users/Lenovo/workspace/dave_workspace/SOLAR_TOWER/Libraries/XMCLib/inc\xmc_usic.h **** {
 859:C:/Users/Lenovo/workspace/dave_workspace/SOLAR_TOWER/Libraries/XMCLib/inc\xmc_usic.h ****   channel->DXCR[input] &=(uint32_t)~USIC_CH_DXCR_DFEN_Msk;
 860:C:/Users/Lenovo/workspace/dave_workspace/SOLAR_TOWER/Libraries/XMCLib/inc\xmc_usic.h **** }
 861:C:/Users/Lenovo/workspace/dave_workspace/SOLAR_TOWER/Libraries/XMCLib/inc\xmc_usic.h **** /**
 862:C:/Users/Lenovo/workspace/dave_workspace/SOLAR_TOWER/Libraries/XMCLib/inc\xmc_usic.h ****  * @param  channel Pointer to USIC channel handler of type @ref XMC_USIC_CH_t \n
 863:C:/Users/Lenovo/workspace/dave_workspace/SOLAR_TOWER/Libraries/XMCLib/inc\xmc_usic.h ****  * 				   \b Range: @ref XMC_USIC0_CH0, @ref XMC_USIC0_CH1 to @ref XMC_USIC2_CH1 based on device su
 864:C:/Users/Lenovo/workspace/dave_workspace/SOLAR_TOWER/Libraries/XMCLib/inc\xmc_usic.h ****  * @param  input USIC channel input stage of type @ref XMC_USIC_CH_INPUT_t. \n
 865:C:/Users/Lenovo/workspace/dave_workspace/SOLAR_TOWER/Libraries/XMCLib/inc\xmc_usic.h ****  * 				 \b Range: @ref XMC_USIC_CH_INPUT_DX0 to @ref XMC_USIC_CH_INPUT_DX5
 866:C:/Users/Lenovo/workspace/dave_workspace/SOLAR_TOWER/Libraries/XMCLib/inc\xmc_usic.h ****  * @return None
 867:C:/Users/Lenovo/workspace/dave_workspace/SOLAR_TOWER/Libraries/XMCLib/inc\xmc_usic.h ****  *
 868:C:/Users/Lenovo/workspace/dave_workspace/SOLAR_TOWER/Libraries/XMCLib/inc\xmc_usic.h ****  * \par<b>Description</b><br>
 869:C:/Users/Lenovo/workspace/dave_workspace/SOLAR_TOWER/Libraries/XMCLib/inc\xmc_usic.h ****  * Enables input synchronization for the USIC channel input data signal. \n\n
 870:C:/Users/Lenovo/workspace/dave_workspace/SOLAR_TOWER/Libraries/XMCLib/inc\xmc_usic.h ****  * Input data signal from the selected multiplexer will be synchronized with fPERIPH.
 871:C:/Users/Lenovo/workspace/dave_workspace/SOLAR_TOWER/Libraries/XMCLib/inc\xmc_usic.h ****  * A noisy signal can be synchronized and filtered by enabling the digital filter.
 872:C:/Users/Lenovo/workspace/dave_workspace/SOLAR_TOWER/Libraries/XMCLib/inc\xmc_usic.h ****  *
 873:C:/Users/Lenovo/workspace/dave_workspace/SOLAR_TOWER/Libraries/XMCLib/inc\xmc_usic.h ****  * \par<b>Related APIs:</b><BR>
 874:C:/Users/Lenovo/workspace/dave_workspace/SOLAR_TOWER/Libraries/XMCLib/inc\xmc_usic.h ****  * XMC_USIC_CH_DisableInputSync(), XMC_USIC_CH_EnableInputDigitalFilter()\n\n\n
 875:C:/Users/Lenovo/workspace/dave_workspace/SOLAR_TOWER/Libraries/XMCLib/inc\xmc_usic.h ****  */
 876:C:/Users/Lenovo/workspace/dave_workspace/SOLAR_TOWER/Libraries/XMCLib/inc\xmc_usic.h **** __STATIC_INLINE void XMC_USIC_CH_EnableInputSync(XMC_USIC_CH_t *const channel, const XMC_USIC_CH_IN
 877:C:/Users/Lenovo/workspace/dave_workspace/SOLAR_TOWER/Libraries/XMCLib/inc\xmc_usic.h **** {
 878:C:/Users/Lenovo/workspace/dave_workspace/SOLAR_TOWER/Libraries/XMCLib/inc\xmc_usic.h ****   channel->DXCR[input] |=(uint32_t)USIC_CH_DXCR_DSEN_Msk;
 879:C:/Users/Lenovo/workspace/dave_workspace/SOLAR_TOWER/Libraries/XMCLib/inc\xmc_usic.h **** }
 880:C:/Users/Lenovo/workspace/dave_workspace/SOLAR_TOWER/Libraries/XMCLib/inc\xmc_usic.h **** /**
 881:C:/Users/Lenovo/workspace/dave_workspace/SOLAR_TOWER/Libraries/XMCLib/inc\xmc_usic.h ****  * @param  channel Pointer to USIC channel handler of type @ref XMC_USIC_CH_t \n
 882:C:/Users/Lenovo/workspace/dave_workspace/SOLAR_TOWER/Libraries/XMCLib/inc\xmc_usic.h ****  * 				   \b Range: @ref XMC_USIC0_CH0, @ref XMC_USIC0_CH1 to @ref XMC_USIC2_CH1 based on device su
 883:C:/Users/Lenovo/workspace/dave_workspace/SOLAR_TOWER/Libraries/XMCLib/inc\xmc_usic.h ****  * @param  input USIC channel input stage of type @ref XMC_USIC_CH_INPUT_t. \n
 884:C:/Users/Lenovo/workspace/dave_workspace/SOLAR_TOWER/Libraries/XMCLib/inc\xmc_usic.h ****  * 				 \b Range: @ref XMC_USIC_CH_INPUT_DX0 to @ref XMC_USIC_CH_INPUT_DX5
 885:C:/Users/Lenovo/workspace/dave_workspace/SOLAR_TOWER/Libraries/XMCLib/inc\xmc_usic.h ****  * @return None
 886:C:/Users/Lenovo/workspace/dave_workspace/SOLAR_TOWER/Libraries/XMCLib/inc\xmc_usic.h ****  *
 887:C:/Users/Lenovo/workspace/dave_workspace/SOLAR_TOWER/Libraries/XMCLib/inc\xmc_usic.h ****  * \par<b>Description</b><br>
 888:C:/Users/Lenovo/workspace/dave_workspace/SOLAR_TOWER/Libraries/XMCLib/inc\xmc_usic.h ****  * Disables input synchronization for the USIC channel input data signal. \n\n
 889:C:/Users/Lenovo/workspace/dave_workspace/SOLAR_TOWER/Libraries/XMCLib/inc\xmc_usic.h ****  * Input data signal from the selected multiplexer will not be synchronized.
 890:C:/Users/Lenovo/workspace/dave_workspace/SOLAR_TOWER/Libraries/XMCLib/inc\xmc_usic.h ****  *
 891:C:/Users/Lenovo/workspace/dave_workspace/SOLAR_TOWER/Libraries/XMCLib/inc\xmc_usic.h ****  * \par<b>Related APIs:</b><BR>
 892:C:/Users/Lenovo/workspace/dave_workspace/SOLAR_TOWER/Libraries/XMCLib/inc\xmc_usic.h ****  * XMC_USIC_CH_EnableInputSync(), XMC_USIC_CH_DisableInputDigitalFilter() \n\n\n
 893:C:/Users/Lenovo/workspace/dave_workspace/SOLAR_TOWER/Libraries/XMCLib/inc\xmc_usic.h ****  */
 894:C:/Users/Lenovo/workspace/dave_workspace/SOLAR_TOWER/Libraries/XMCLib/inc\xmc_usic.h **** __STATIC_INLINE void XMC_USIC_CH_DisableInputSync(XMC_USIC_CH_t *const channel, const XMC_USIC_CH_I
 895:C:/Users/Lenovo/workspace/dave_workspace/SOLAR_TOWER/Libraries/XMCLib/inc\xmc_usic.h **** {
 896:C:/Users/Lenovo/workspace/dave_workspace/SOLAR_TOWER/Libraries/XMCLib/inc\xmc_usic.h ****   channel->DXCR[input] &=(uint32_t)~USIC_CH_DXCR_DSEN_Msk;
 897:C:/Users/Lenovo/workspace/dave_workspace/SOLAR_TOWER/Libraries/XMCLib/inc\xmc_usic.h **** }
 898:C:/Users/Lenovo/workspace/dave_workspace/SOLAR_TOWER/Libraries/XMCLib/inc\xmc_usic.h **** /**
 899:C:/Users/Lenovo/workspace/dave_workspace/SOLAR_TOWER/Libraries/XMCLib/inc\xmc_usic.h ****  * @param  channel Pointer to USIC channel handler of type @ref XMC_USIC_CH_t \n
 900:C:/Users/Lenovo/workspace/dave_workspace/SOLAR_TOWER/Libraries/XMCLib/inc\xmc_usic.h ****  * 				   \b Range: @ref XMC_USIC0_CH0, @ref XMC_USIC0_CH1 to @ref XMC_USIC2_CH1 based on device su
 901:C:/Users/Lenovo/workspace/dave_workspace/SOLAR_TOWER/Libraries/XMCLib/inc\xmc_usic.h ****  * @param  input USIC channel input stage of type @ref XMC_USIC_CH_INPUT_t. \n
 902:C:/Users/Lenovo/workspace/dave_workspace/SOLAR_TOWER/Libraries/XMCLib/inc\xmc_usic.h ****  * 				 \b Range: @ref XMC_USIC_CH_INPUT_DX0 to @ref XMC_USIC_CH_INPUT_DX5
 903:C:/Users/Lenovo/workspace/dave_workspace/SOLAR_TOWER/Libraries/XMCLib/inc\xmc_usic.h ****  * @param  sampling_freq Sampling frequency value of type \a XMC_USIC_CH_INPUT_SAMPLING_FREQ_t.
 904:C:/Users/Lenovo/workspace/dave_workspace/SOLAR_TOWER/Libraries/XMCLib/inc\xmc_usic.h ****  * @return None
 905:C:/Users/Lenovo/workspace/dave_workspace/SOLAR_TOWER/Libraries/XMCLib/inc\xmc_usic.h ****  *
 906:C:/Users/Lenovo/workspace/dave_workspace/SOLAR_TOWER/Libraries/XMCLib/inc\xmc_usic.h ****  * \par<b>Description</b><br>
 907:C:/Users/Lenovo/workspace/dave_workspace/SOLAR_TOWER/Libraries/XMCLib/inc\xmc_usic.h ****  * Sets sampling frequency for USIC channel input data signal. \n\n
 908:C:/Users/Lenovo/workspace/dave_workspace/SOLAR_TOWER/Libraries/XMCLib/inc\xmc_usic.h ****  *
 909:C:/Users/Lenovo/workspace/dave_workspace/SOLAR_TOWER/Libraries/XMCLib/inc\xmc_usic.h ****  * \par<b>Related APIs:</b><BR>
 910:C:/Users/Lenovo/workspace/dave_workspace/SOLAR_TOWER/Libraries/XMCLib/inc\xmc_usic.h ****  * XMC_USIC_CH_SetInputSource(), XMC_USIC_CH_EnableInputSync(), XMC_USIC_CH_EnableInputDigitalFilte
 911:C:/Users/Lenovo/workspace/dave_workspace/SOLAR_TOWER/Libraries/XMCLib/inc\xmc_usic.h ****  */
 912:C:/Users/Lenovo/workspace/dave_workspace/SOLAR_TOWER/Libraries/XMCLib/inc\xmc_usic.h **** __STATIC_INLINE void XMC_USIC_CH_SetInputSamplingFreq(XMC_USIC_CH_t *const channel,
 913:C:/Users/Lenovo/workspace/dave_workspace/SOLAR_TOWER/Libraries/XMCLib/inc\xmc_usic.h **** 		                                              const XMC_USIC_CH_INPUT_t input,
 914:C:/Users/Lenovo/workspace/dave_workspace/SOLAR_TOWER/Libraries/XMCLib/inc\xmc_usic.h **** 		                                              const XMC_USIC_CH_INPUT_SAMPLING_FREQ_t sampling_fr
 915:C:/Users/Lenovo/workspace/dave_workspace/SOLAR_TOWER/Libraries/XMCLib/inc\xmc_usic.h **** {
 916:C:/Users/Lenovo/workspace/dave_workspace/SOLAR_TOWER/Libraries/XMCLib/inc\xmc_usic.h ****   channel->DXCR[input] = (uint32_t)(channel->DXCR[input] & (~USIC_CH_DXCR_SFSEL_Msk)) |
 917:C:/Users/Lenovo/workspace/dave_workspace/SOLAR_TOWER/Libraries/XMCLib/inc\xmc_usic.h ****                          ((uint32_t)sampling_freq);
 918:C:/Users/Lenovo/workspace/dave_workspace/SOLAR_TOWER/Libraries/XMCLib/inc\xmc_usic.h **** }
 919:C:/Users/Lenovo/workspace/dave_workspace/SOLAR_TOWER/Libraries/XMCLib/inc\xmc_usic.h **** 
 920:C:/Users/Lenovo/workspace/dave_workspace/SOLAR_TOWER/Libraries/XMCLib/inc\xmc_usic.h **** /**
 921:C:/Users/Lenovo/workspace/dave_workspace/SOLAR_TOWER/Libraries/XMCLib/inc\xmc_usic.h ****  * @param  channel Pointer to USIC channel handler of type @ref XMC_USIC_CH_t \n
 922:C:/Users/Lenovo/workspace/dave_workspace/SOLAR_TOWER/Libraries/XMCLib/inc\xmc_usic.h ****  * 				   \b Range: @ref XMC_USIC0_CH0, @ref XMC_USIC0_CH1 to @ref XMC_USIC2_CH1 based on device su
 923:C:/Users/Lenovo/workspace/dave_workspace/SOLAR_TOWER/Libraries/XMCLib/inc\xmc_usic.h ****  * @param  input USIC channel input stage of type @ref XMC_USIC_CH_INPUT_t. \n
 924:C:/Users/Lenovo/workspace/dave_workspace/SOLAR_TOWER/Libraries/XMCLib/inc\xmc_usic.h ****  * 				 \b Range: @ref XMC_USIC_CH_INPUT_DX0 to @ref XMC_USIC_CH_INPUT_DX5
 925:C:/Users/Lenovo/workspace/dave_workspace/SOLAR_TOWER/Libraries/XMCLib/inc\xmc_usic.h ****  * @param  combination_mode Combination mode value of type \a XMC_USIC_CH_INPUT_COMBINATION_MODE_t.
 926:C:/Users/Lenovo/workspace/dave_workspace/SOLAR_TOWER/Libraries/XMCLib/inc\xmc_usic.h ****  * @return None
 927:C:/Users/Lenovo/workspace/dave_workspace/SOLAR_TOWER/Libraries/XMCLib/inc\xmc_usic.h ****  *
 928:C:/Users/Lenovo/workspace/dave_workspace/SOLAR_TOWER/Libraries/XMCLib/inc\xmc_usic.h ****  * \par<b>Description</b><br>
 929:C:/Users/Lenovo/workspace/dave_workspace/SOLAR_TOWER/Libraries/XMCLib/inc\xmc_usic.h ****  * Selects which edge of the synchronized signal DXnS activates the trigger output DXnT of the inpu
 930:C:/Users/Lenovo/workspace/dave_workspace/SOLAR_TOWER/Libraries/XMCLib/inc\xmc_usic.h ****  *
 931:C:/Users/Lenovo/workspace/dave_workspace/SOLAR_TOWER/Libraries/XMCLib/inc\xmc_usic.h ****  * \par<b>Related APIs:</b><BR>
 932:C:/Users/Lenovo/workspace/dave_workspace/SOLAR_TOWER/Libraries/XMCLib/inc\xmc_usic.h ****  * XMC_USIC_CH_SetInputSource(), XMC_USIC_CH_EnableInputSync(), XMC_USIC_CH_EnableInputDigitalFilte
 933:C:/Users/Lenovo/workspace/dave_workspace/SOLAR_TOWER/Libraries/XMCLib/inc\xmc_usic.h ****  */
 934:C:/Users/Lenovo/workspace/dave_workspace/SOLAR_TOWER/Libraries/XMCLib/inc\xmc_usic.h **** __STATIC_INLINE void XMC_USIC_CH_SetInputTriggerCombinationMode(XMC_USIC_CH_t *const channel,
 935:C:/Users/Lenovo/workspace/dave_workspace/SOLAR_TOWER/Libraries/XMCLib/inc\xmc_usic.h **** 		                                                        const XMC_USIC_CH_INPUT_t input,
 936:C:/Users/Lenovo/workspace/dave_workspace/SOLAR_TOWER/Libraries/XMCLib/inc\xmc_usic.h **** 		                                                        const XMC_USIC_CH_INPUT_COMBINATION_MODE_
 937:C:/Users/Lenovo/workspace/dave_workspace/SOLAR_TOWER/Libraries/XMCLib/inc\xmc_usic.h **** {
 938:C:/Users/Lenovo/workspace/dave_workspace/SOLAR_TOWER/Libraries/XMCLib/inc\xmc_usic.h ****   channel->DXCR[input] = (uint32_t)(channel->DXCR[input] & (~USIC_CH_DXCR_CM_Msk)) |
 939:C:/Users/Lenovo/workspace/dave_workspace/SOLAR_TOWER/Libraries/XMCLib/inc\xmc_usic.h ****                          ((uint32_t)combination_mode << USIC_CH_DXCR_CM_Pos);
 940:C:/Users/Lenovo/workspace/dave_workspace/SOLAR_TOWER/Libraries/XMCLib/inc\xmc_usic.h **** }
 941:C:/Users/Lenovo/workspace/dave_workspace/SOLAR_TOWER/Libraries/XMCLib/inc\xmc_usic.h **** 
 942:C:/Users/Lenovo/workspace/dave_workspace/SOLAR_TOWER/Libraries/XMCLib/inc\xmc_usic.h **** /**
 943:C:/Users/Lenovo/workspace/dave_workspace/SOLAR_TOWER/Libraries/XMCLib/inc\xmc_usic.h ****  * @param  channel Pointer to USIC channel handler of type @ref XMC_USIC_CH_t \n
 944:C:/Users/Lenovo/workspace/dave_workspace/SOLAR_TOWER/Libraries/XMCLib/inc\xmc_usic.h ****  * 				   \b Range: @ref XMC_USIC0_CH0, @ref XMC_USIC0_CH1 to @ref XMC_USIC2_CH1 based on device su
 945:C:/Users/Lenovo/workspace/dave_workspace/SOLAR_TOWER/Libraries/XMCLib/inc\xmc_usic.h ****  * @param  clock_source clock source for the BRG.
 946:C:/Users/Lenovo/workspace/dave_workspace/SOLAR_TOWER/Libraries/XMCLib/inc\xmc_usic.h ****  * @return None
 947:C:/Users/Lenovo/workspace/dave_workspace/SOLAR_TOWER/Libraries/XMCLib/inc\xmc_usic.h ****  *
 948:C:/Users/Lenovo/workspace/dave_workspace/SOLAR_TOWER/Libraries/XMCLib/inc\xmc_usic.h ****  * \par<b>Description</b><br>
 949:C:/Users/Lenovo/workspace/dave_workspace/SOLAR_TOWER/Libraries/XMCLib/inc\xmc_usic.h ****  * Sets the clock source for the BRG. \n\n
 950:C:/Users/Lenovo/workspace/dave_workspace/SOLAR_TOWER/Libraries/XMCLib/inc\xmc_usic.h ****  *
 951:C:/Users/Lenovo/workspace/dave_workspace/SOLAR_TOWER/Libraries/XMCLib/inc\xmc_usic.h ****  * \par<b>Related APIs:</b><BR>
 952:C:/Users/Lenovo/workspace/dave_workspace/SOLAR_TOWER/Libraries/XMCLib/inc\xmc_usic.h ****  * XMC_USIC_CH_SetInputTriggerCombinationMode(), XMC_USIC_CH_SetExternalClockBRGDivider()\n\n\n
 953:C:/Users/Lenovo/workspace/dave_workspace/SOLAR_TOWER/Libraries/XMCLib/inc\xmc_usic.h ****  */
 954:C:/Users/Lenovo/workspace/dave_workspace/SOLAR_TOWER/Libraries/XMCLib/inc\xmc_usic.h **** __STATIC_INLINE void XMC_USIC_CH_SetBRGInputClockSource(XMC_USIC_CH_t *const channel, const XMC_USI
 955:C:/Users/Lenovo/workspace/dave_workspace/SOLAR_TOWER/Libraries/XMCLib/inc\xmc_usic.h **** {
 956:C:/Users/Lenovo/workspace/dave_workspace/SOLAR_TOWER/Libraries/XMCLib/inc\xmc_usic.h ****   channel->BRG = (uint32_t)(channel->BRG & (~USIC_CH_BRG_CLKSEL_Msk)) | (uint32_t)(clock_source);
 957:C:/Users/Lenovo/workspace/dave_workspace/SOLAR_TOWER/Libraries/XMCLib/inc\xmc_usic.h **** }
 958:C:/Users/Lenovo/workspace/dave_workspace/SOLAR_TOWER/Libraries/XMCLib/inc\xmc_usic.h **** 
 959:C:/Users/Lenovo/workspace/dave_workspace/SOLAR_TOWER/Libraries/XMCLib/inc\xmc_usic.h **** /**
 960:C:/Users/Lenovo/workspace/dave_workspace/SOLAR_TOWER/Libraries/XMCLib/inc\xmc_usic.h ****  * @param channel Pointer to USIC channel handler of type @ref XMC_USIC_CH_t \n
 961:C:/Users/Lenovo/workspace/dave_workspace/SOLAR_TOWER/Libraries/XMCLib/inc\xmc_usic.h ****  * 				   \b Range: @ref XMC_USIC0_CH0, @ref XMC_USIC0_CH1 to @ref XMC_USIC2_CH1 based on device su
 962:C:/Users/Lenovo/workspace/dave_workspace/SOLAR_TOWER/Libraries/XMCLib/inc\xmc_usic.h ****  * @param data Data to be transmitted. \n
 963:C:/Users/Lenovo/workspace/dave_workspace/SOLAR_TOWER/Libraries/XMCLib/inc\xmc_usic.h ****  *           \b Range: 16bit unsigned data. minimum= 0, maximum= 65535
 964:C:/Users/Lenovo/workspace/dave_workspace/SOLAR_TOWER/Libraries/XMCLib/inc\xmc_usic.h ****  * @return None
 965:C:/Users/Lenovo/workspace/dave_workspace/SOLAR_TOWER/Libraries/XMCLib/inc\xmc_usic.h ****  *
 966:C:/Users/Lenovo/workspace/dave_workspace/SOLAR_TOWER/Libraries/XMCLib/inc\xmc_usic.h ****  * \par<b>Description</b><br>
 967:C:/Users/Lenovo/workspace/dave_workspace/SOLAR_TOWER/Libraries/XMCLib/inc\xmc_usic.h ****  * Writes data into the transmit buffer. \n\n
 968:C:/Users/Lenovo/workspace/dave_workspace/SOLAR_TOWER/Libraries/XMCLib/inc\xmc_usic.h ****  * The data provided is placed in TBUF[0U].
 969:C:/Users/Lenovo/workspace/dave_workspace/SOLAR_TOWER/Libraries/XMCLib/inc\xmc_usic.h ****  *
 970:C:/Users/Lenovo/workspace/dave_workspace/SOLAR_TOWER/Libraries/XMCLib/inc\xmc_usic.h ****  *
 971:C:/Users/Lenovo/workspace/dave_workspace/SOLAR_TOWER/Libraries/XMCLib/inc\xmc_usic.h ****  * \par<b>Related APIs:</b><BR>
 972:C:/Users/Lenovo/workspace/dave_workspace/SOLAR_TOWER/Libraries/XMCLib/inc\xmc_usic.h ****  * XMC_USIC_CH_WriteToTBUFTCI() \n\n\n
 973:C:/Users/Lenovo/workspace/dave_workspace/SOLAR_TOWER/Libraries/XMCLib/inc\xmc_usic.h ****  */
 974:C:/Users/Lenovo/workspace/dave_workspace/SOLAR_TOWER/Libraries/XMCLib/inc\xmc_usic.h **** __STATIC_INLINE void XMC_USIC_CH_WriteToTBUF(XMC_USIC_CH_t *const channel, const uint16_t data)
 975:C:/Users/Lenovo/workspace/dave_workspace/SOLAR_TOWER/Libraries/XMCLib/inc\xmc_usic.h **** {
 976:C:/Users/Lenovo/workspace/dave_workspace/SOLAR_TOWER/Libraries/XMCLib/inc\xmc_usic.h ****   channel->TBUF[0U] = data;
 977:C:/Users/Lenovo/workspace/dave_workspace/SOLAR_TOWER/Libraries/XMCLib/inc\xmc_usic.h **** }
 978:C:/Users/Lenovo/workspace/dave_workspace/SOLAR_TOWER/Libraries/XMCLib/inc\xmc_usic.h **** 
 979:C:/Users/Lenovo/workspace/dave_workspace/SOLAR_TOWER/Libraries/XMCLib/inc\xmc_usic.h **** /**
 980:C:/Users/Lenovo/workspace/dave_workspace/SOLAR_TOWER/Libraries/XMCLib/inc\xmc_usic.h ****  * @param channel Pointer to USIC channel handler of type @ref XMC_USIC_CH_t \n
 981:C:/Users/Lenovo/workspace/dave_workspace/SOLAR_TOWER/Libraries/XMCLib/inc\xmc_usic.h ****  * 				   \b Range: @ref XMC_USIC0_CH0, @ref XMC_USIC0_CH1 to @ref XMC_USIC2_CH1 based on device su
 982:C:/Users/Lenovo/workspace/dave_workspace/SOLAR_TOWER/Libraries/XMCLib/inc\xmc_usic.h ****  * @param data Data to be transmitted.
 983:C:/Users/Lenovo/workspace/dave_workspace/SOLAR_TOWER/Libraries/XMCLib/inc\xmc_usic.h ****  * @param transmit_control_information transmit control information to be configured while transmit
 984:C:/Users/Lenovo/workspace/dave_workspace/SOLAR_TOWER/Libraries/XMCLib/inc\xmc_usic.h ****  * 			\b Range: minimum= 0, maximum= 31.
 985:C:/Users/Lenovo/workspace/dave_workspace/SOLAR_TOWER/Libraries/XMCLib/inc\xmc_usic.h ****  * @return None
 986:C:/Users/Lenovo/workspace/dave_workspace/SOLAR_TOWER/Libraries/XMCLib/inc\xmc_usic.h ****  *
 987:C:/Users/Lenovo/workspace/dave_workspace/SOLAR_TOWER/Libraries/XMCLib/inc\xmc_usic.h ****  * \par<b>Description</b><br>
