   1              	 .cpu cortex-m0
   2              	 .fpu softvfp
   3              	 .eabi_attribute 20,1
   4              	 .eabi_attribute 21,1
   5              	 .eabi_attribute 23,3
   6              	 .eabi_attribute 24,1
   7              	 .eabi_attribute 25,1
   8              	 .eabi_attribute 26,1
   9              	 .eabi_attribute 30,6
  10              	 .eabi_attribute 34,0
  11              	 .eabi_attribute 18,4
  12              	 .code 16
  13              	 .file "xmc_can.c"
  14              	 .text
  15              	.Ltext0:
  16              	 .cfi_sections .debug_frame
  17              	 .section .text.XMC_CAN_IsPanelControlReady,"ax",%progbits
  18              	 .align 2
  19              	 .code 16
  20              	 .thumb_func
  22              	XMC_CAN_IsPanelControlReady:
  23              	.LFB61:
  24              	 .file 1 "C:/Users/Lenovo/workspace/dave_workspace/SOLAR_TOWER/Libraries/XMCLib/inc/xmc_can.h"
   1:C:/Users/Lenovo/workspace/dave_workspace/SOLAR_TOWER/Libraries/XMCLib/inc\xmc_can.h **** /**
   2:C:/Users/Lenovo/workspace/dave_workspace/SOLAR_TOWER/Libraries/XMCLib/inc\xmc_can.h ****  * @file xmc_can.h
   3:C:/Users/Lenovo/workspace/dave_workspace/SOLAR_TOWER/Libraries/XMCLib/inc\xmc_can.h ****  * @date 2017-11-09
   4:C:/Users/Lenovo/workspace/dave_workspace/SOLAR_TOWER/Libraries/XMCLib/inc\xmc_can.h ****  *
   5:C:/Users/Lenovo/workspace/dave_workspace/SOLAR_TOWER/Libraries/XMCLib/inc\xmc_can.h ****  * @cond
   6:C:/Users/Lenovo/workspace/dave_workspace/SOLAR_TOWER/Libraries/XMCLib/inc\xmc_can.h ****  **************************************************************************************************
   7:C:/Users/Lenovo/workspace/dave_workspace/SOLAR_TOWER/Libraries/XMCLib/inc\xmc_can.h ****  * XMClib v2.1.18 - XMC Peripheral Driver Library 
   8:C:/Users/Lenovo/workspace/dave_workspace/SOLAR_TOWER/Libraries/XMCLib/inc\xmc_can.h ****  *
   9:C:/Users/Lenovo/workspace/dave_workspace/SOLAR_TOWER/Libraries/XMCLib/inc\xmc_can.h ****  * Copyright (c) 2015-2018, Infineon Technologies AG
  10:C:/Users/Lenovo/workspace/dave_workspace/SOLAR_TOWER/Libraries/XMCLib/inc\xmc_can.h ****  * All rights reserved.                        
  11:C:/Users/Lenovo/workspace/dave_workspace/SOLAR_TOWER/Libraries/XMCLib/inc\xmc_can.h ****  *                                             
  12:C:/Users/Lenovo/workspace/dave_workspace/SOLAR_TOWER/Libraries/XMCLib/inc\xmc_can.h ****  * Redistribution and use in source and binary forms, with or without modification,are permitted pr
  13:C:/Users/Lenovo/workspace/dave_workspace/SOLAR_TOWER/Libraries/XMCLib/inc\xmc_can.h ****  * following conditions are met:   
  14:C:/Users/Lenovo/workspace/dave_workspace/SOLAR_TOWER/Libraries/XMCLib/inc\xmc_can.h ****  *                                                                              
  15:C:/Users/Lenovo/workspace/dave_workspace/SOLAR_TOWER/Libraries/XMCLib/inc\xmc_can.h ****  * Redistributions of source code must retain the above copyright notice, this list of conditions a
  16:C:/Users/Lenovo/workspace/dave_workspace/SOLAR_TOWER/Libraries/XMCLib/inc\xmc_can.h ****  * disclaimer.                        
  17:C:/Users/Lenovo/workspace/dave_workspace/SOLAR_TOWER/Libraries/XMCLib/inc\xmc_can.h ****  * 
  18:C:/Users/Lenovo/workspace/dave_workspace/SOLAR_TOWER/Libraries/XMCLib/inc\xmc_can.h ****  * Redistributions in binary form must reproduce the above copyright notice, this list of condition
  19:C:/Users/Lenovo/workspace/dave_workspace/SOLAR_TOWER/Libraries/XMCLib/inc\xmc_can.h ****  * disclaimer in the documentation and/or other materials provided with the distribution.          
  20:C:/Users/Lenovo/workspace/dave_workspace/SOLAR_TOWER/Libraries/XMCLib/inc\xmc_can.h ****  * 
  21:C:/Users/Lenovo/workspace/dave_workspace/SOLAR_TOWER/Libraries/XMCLib/inc\xmc_can.h ****  * Neither the name of the copyright holders nor the names of its contributors may be used to endor
  22:C:/Users/Lenovo/workspace/dave_workspace/SOLAR_TOWER/Libraries/XMCLib/inc\xmc_can.h ****  * products derived from this software without specific prior written permission.                  
  23:C:/Users/Lenovo/workspace/dave_workspace/SOLAR_TOWER/Libraries/XMCLib/inc\xmc_can.h ****  *                                                                              
  24:C:/Users/Lenovo/workspace/dave_workspace/SOLAR_TOWER/Libraries/XMCLib/inc\xmc_can.h ****  * THIS SOFTWARE IS PROVIDED BY THE COPYRIGHT HOLDERS AND CONTRIBUTORS "AS IS" AND ANY EXPRESS OR I
  25:C:/Users/Lenovo/workspace/dave_workspace/SOLAR_TOWER/Libraries/XMCLib/inc\xmc_can.h ****  * INCLUDING, BUT NOT LIMITED TO, THE IMPLIED WARRANTIES OF MERCHANTABILITY AND FITNESS FOR A PARTI
  26:C:/Users/Lenovo/workspace/dave_workspace/SOLAR_TOWER/Libraries/XMCLib/inc\xmc_can.h ****  * DISCLAIMED. IN NO EVENT SHALL THE COPYRIGHT HOLDER OR CONTRIBUTORS BE LIABLE  FOR ANY DIRECT, IN
  27:C:/Users/Lenovo/workspace/dave_workspace/SOLAR_TOWER/Libraries/XMCLib/inc\xmc_can.h ****  * SPECIAL, EXEMPLARY, OR CONSEQUENTIAL DAMAGES (INCLUDING, BUT NOT LIMITED TO, PROCUREMENT OF SUBS
  28:C:/Users/Lenovo/workspace/dave_workspace/SOLAR_TOWER/Libraries/XMCLib/inc\xmc_can.h ****  * SERVICES; LOSS OF USE, DATA, OR PROFITS; OR BUSINESS INTERRUPTION) HOWEVER CAUSED AND ON ANY THE
  29:C:/Users/Lenovo/workspace/dave_workspace/SOLAR_TOWER/Libraries/XMCLib/inc\xmc_can.h ****  * WHETHER IN CONTRACT, STRICT LIABILITY,OR TORT (INCLUDING NEGLIGENCE OR OTHERWISE) ARISING IN ANY
  30:C:/Users/Lenovo/workspace/dave_workspace/SOLAR_TOWER/Libraries/XMCLib/inc\xmc_can.h ****  * OF THIS SOFTWARE, EVEN IF ADVISED OF THE POSSIBILITY OF SUCH DAMAGE.                            
  31:C:/Users/Lenovo/workspace/dave_workspace/SOLAR_TOWER/Libraries/XMCLib/inc\xmc_can.h ****  *                                                                              
  32:C:/Users/Lenovo/workspace/dave_workspace/SOLAR_TOWER/Libraries/XMCLib/inc\xmc_can.h ****  * To improve the quality of the software, users are encouraged to share modifications, enhancement
  33:C:/Users/Lenovo/workspace/dave_workspace/SOLAR_TOWER/Libraries/XMCLib/inc\xmc_can.h ****  * Infineon Technologies AG dave@infineon.com).                                                    
  34:C:/Users/Lenovo/workspace/dave_workspace/SOLAR_TOWER/Libraries/XMCLib/inc\xmc_can.h ****  **************************************************************************************************
  35:C:/Users/Lenovo/workspace/dave_workspace/SOLAR_TOWER/Libraries/XMCLib/inc\xmc_can.h ****  *
  36:C:/Users/Lenovo/workspace/dave_workspace/SOLAR_TOWER/Libraries/XMCLib/inc\xmc_can.h ****  * Change History
  37:C:/Users/Lenovo/workspace/dave_workspace/SOLAR_TOWER/Libraries/XMCLib/inc\xmc_can.h ****  * --------------
  38:C:/Users/Lenovo/workspace/dave_workspace/SOLAR_TOWER/Libraries/XMCLib/inc\xmc_can.h ****  *
  39:C:/Users/Lenovo/workspace/dave_workspace/SOLAR_TOWER/Libraries/XMCLib/inc\xmc_can.h ****  * 2015-02-20:
  40:C:/Users/Lenovo/workspace/dave_workspace/SOLAR_TOWER/Libraries/XMCLib/inc\xmc_can.h ****  *     - Initial <br>
  41:C:/Users/Lenovo/workspace/dave_workspace/SOLAR_TOWER/Libraries/XMCLib/inc\xmc_can.h ****  *     - Documentation improved <br>
  42:C:/Users/Lenovo/workspace/dave_workspace/SOLAR_TOWER/Libraries/XMCLib/inc\xmc_can.h ****  *
  43:C:/Users/Lenovo/workspace/dave_workspace/SOLAR_TOWER/Libraries/XMCLib/inc\xmc_can.h ****  * 2015-05-20:
  44:C:/Users/Lenovo/workspace/dave_workspace/SOLAR_TOWER/Libraries/XMCLib/inc\xmc_can.h ****  *     - New elements have added in XMC_CAN_MO_t data structure <br>
  45:C:/Users/Lenovo/workspace/dave_workspace/SOLAR_TOWER/Libraries/XMCLib/inc\xmc_can.h ****  *     - XMC_CAN_MO_Config() signature has changed <br>
  46:C:/Users/Lenovo/workspace/dave_workspace/SOLAR_TOWER/Libraries/XMCLib/inc\xmc_can.h ****  *     - XMC_CAN_STATUS_t enum structure has updated. <br>
  47:C:/Users/Lenovo/workspace/dave_workspace/SOLAR_TOWER/Libraries/XMCLib/inc\xmc_can.h ****  *
  48:C:/Users/Lenovo/workspace/dave_workspace/SOLAR_TOWER/Libraries/XMCLib/inc\xmc_can.h ****  * 2015-06-20:
  49:C:/Users/Lenovo/workspace/dave_workspace/SOLAR_TOWER/Libraries/XMCLib/inc\xmc_can.h ****  *     - New APIs added: XMC_CAN_NODE_ClearStatus(),XMC_CAN_MO_ReceiveData(), XMC_CAN_GATEWAY_InitD
  50:C:/Users/Lenovo/workspace/dave_workspace/SOLAR_TOWER/Libraries/XMCLib/inc\xmc_can.h ****  *     - Removed version macros and declaration of GetDriverVersion API
  51:C:/Users/Lenovo/workspace/dave_workspace/SOLAR_TOWER/Libraries/XMCLib/inc\xmc_can.h ****  *      
  52:C:/Users/Lenovo/workspace/dave_workspace/SOLAR_TOWER/Libraries/XMCLib/inc\xmc_can.h ****  * 2015-07-09:
  53:C:/Users/Lenovo/workspace/dave_workspace/SOLAR_TOWER/Libraries/XMCLib/inc\xmc_can.h ****  *     - New API added: XMC_CAN_NODE_Enable. <br>
  54:C:/Users/Lenovo/workspace/dave_workspace/SOLAR_TOWER/Libraries/XMCLib/inc\xmc_can.h ****  *
  55:C:/Users/Lenovo/workspace/dave_workspace/SOLAR_TOWER/Libraries/XMCLib/inc\xmc_can.h ****  * 2015-09-01:
  56:C:/Users/Lenovo/workspace/dave_workspace/SOLAR_TOWER/Libraries/XMCLib/inc\xmc_can.h ****  *     - Removed fCANB clock support <br>
  57:C:/Users/Lenovo/workspace/dave_workspace/SOLAR_TOWER/Libraries/XMCLib/inc\xmc_can.h ****  *
  58:C:/Users/Lenovo/workspace/dave_workspace/SOLAR_TOWER/Libraries/XMCLib/inc\xmc_can.h ****  * 2015-09-15:
  59:C:/Users/Lenovo/workspace/dave_workspace/SOLAR_TOWER/Libraries/XMCLib/inc\xmc_can.h ****  *     - Added "xmc_can_map.h" include <br>
  60:C:/Users/Lenovo/workspace/dave_workspace/SOLAR_TOWER/Libraries/XMCLib/inc\xmc_can.h ****  *
  61:C:/Users/Lenovo/workspace/dave_workspace/SOLAR_TOWER/Libraries/XMCLib/inc\xmc_can.h ****  * 2016-06-07:
  62:C:/Users/Lenovo/workspace/dave_workspace/SOLAR_TOWER/Libraries/XMCLib/inc\xmc_can.h ****  *     - Added XMC_CAN_IsPanelControlReady()
  63:C:/Users/Lenovo/workspace/dave_workspace/SOLAR_TOWER/Libraries/XMCLib/inc\xmc_can.h ****  * 
  64:C:/Users/Lenovo/workspace/dave_workspace/SOLAR_TOWER/Libraries/XMCLib/inc\xmc_can.h ****  * 2017-11-09:
  65:C:/Users/Lenovo/workspace/dave_workspace/SOLAR_TOWER/Libraries/XMCLib/inc\xmc_can.h ****  *     - Added XMC_CAN_InitEx() and XMC_CAN_NODE_NominalBitTimeConfigureEx()
  66:C:/Users/Lenovo/workspace/dave_workspace/SOLAR_TOWER/Libraries/XMCLib/inc\xmc_can.h ****  *     - Make XMC_CAN_GetBaudrateClockSource(), XMC_CAN_SetBaudrateClockSource() and XMC_CAN_GetBau
  67:C:/Users/Lenovo/workspace/dave_workspace/SOLAR_TOWER/Libraries/XMCLib/inc\xmc_can.h ****  *
  68:C:/Users/Lenovo/workspace/dave_workspace/SOLAR_TOWER/Libraries/XMCLib/inc\xmc_can.h ****  * <b>Details of use for node configuration related APIs</b><br>
  69:C:/Users/Lenovo/workspace/dave_workspace/SOLAR_TOWER/Libraries/XMCLib/inc\xmc_can.h ****  * Please use the XMC_CAN_NODE_SetInitBit() and XMC_CAN_NODE_EnableConfigurationChange() before cal
  70:C:/Users/Lenovo/workspace/dave_workspace/SOLAR_TOWER/Libraries/XMCLib/inc\xmc_can.h ****  * related APIs.
  71:C:/Users/Lenovo/workspace/dave_workspace/SOLAR_TOWER/Libraries/XMCLib/inc\xmc_can.h ****  * XMC_CAN_NODE_DisableConfigurationChange() and  XMC_CAN_NODE_ResetInitBit() can be called for dis
  72:C:/Users/Lenovo/workspace/dave_workspace/SOLAR_TOWER/Libraries/XMCLib/inc\xmc_can.h ****  * change and enable the node for communication afterwards.
  73:C:/Users/Lenovo/workspace/dave_workspace/SOLAR_TOWER/Libraries/XMCLib/inc\xmc_can.h ****  * Do not use this when configuring the nominal bit time with XMC_CAN_NODE_NominalBitTimeConfigure(
  74:C:/Users/Lenovo/workspace/dave_workspace/SOLAR_TOWER/Libraries/XMCLib/inc\xmc_can.h ****  * Enable/Disable node configuration change is taken in account.
  75:C:/Users/Lenovo/workspace/dave_workspace/SOLAR_TOWER/Libraries/XMCLib/inc\xmc_can.h ****  *
  76:C:/Users/Lenovo/workspace/dave_workspace/SOLAR_TOWER/Libraries/XMCLib/inc\xmc_can.h ****  * <b>Example Usage:</b>
  77:C:/Users/Lenovo/workspace/dave_workspace/SOLAR_TOWER/Libraries/XMCLib/inc\xmc_can.h ****  * @code
  78:C:/Users/Lenovo/workspace/dave_workspace/SOLAR_TOWER/Libraries/XMCLib/inc\xmc_can.h ****  * //disabling the Node
  79:C:/Users/Lenovo/workspace/dave_workspace/SOLAR_TOWER/Libraries/XMCLib/inc\xmc_can.h ****  * XMC_CAN_NODE_SetInitBit(CAN_NODE0)
  80:C:/Users/Lenovo/workspace/dave_workspace/SOLAR_TOWER/Libraries/XMCLib/inc\xmc_can.h ****  * //allowing the configuration change
  81:C:/Users/Lenovo/workspace/dave_workspace/SOLAR_TOWER/Libraries/XMCLib/inc\xmc_can.h ****  * XMC_CAN_NODE_EnableConfigurationChange(CAN_NODE0)
  82:C:/Users/Lenovo/workspace/dave_workspace/SOLAR_TOWER/Libraries/XMCLib/inc\xmc_can.h ****  * //Node configuration
  83:C:/Users/Lenovo/workspace/dave_workspace/SOLAR_TOWER/Libraries/XMCLib/inc\xmc_can.h ****  * XMC_CAN_NODE_FrameCounterConfigure(CAN_NODE0,&can_node_frame_counter);
  84:C:/Users/Lenovo/workspace/dave_workspace/SOLAR_TOWER/Libraries/XMCLib/inc\xmc_can.h ****  * XMC_CAN_NODE_EnableLoopBack(CAN_NODE0)
  85:C:/Users/Lenovo/workspace/dave_workspace/SOLAR_TOWER/Libraries/XMCLib/inc\xmc_can.h ****  * //disable configuration
  86:C:/Users/Lenovo/workspace/dave_workspace/SOLAR_TOWER/Libraries/XMCLib/inc\xmc_can.h ****  * XMC_CAN_NODE_DisableConfigurationChange(CAN_NODE0)
  87:C:/Users/Lenovo/workspace/dave_workspace/SOLAR_TOWER/Libraries/XMCLib/inc\xmc_can.h ****  * //Enabling node for communication
  88:C:/Users/Lenovo/workspace/dave_workspace/SOLAR_TOWER/Libraries/XMCLib/inc\xmc_can.h ****  * XMC_CAN_NODE_ResetInitBit(CAN_NODE0)
  89:C:/Users/Lenovo/workspace/dave_workspace/SOLAR_TOWER/Libraries/XMCLib/inc\xmc_can.h ****  * @endcode
  90:C:/Users/Lenovo/workspace/dave_workspace/SOLAR_TOWER/Libraries/XMCLib/inc\xmc_can.h ****  *
  91:C:/Users/Lenovo/workspace/dave_workspace/SOLAR_TOWER/Libraries/XMCLib/inc\xmc_can.h ****  * 2016-06-20:
  92:C:/Users/Lenovo/workspace/dave_workspace/SOLAR_TOWER/Libraries/XMCLib/inc\xmc_can.h ****  *     - Fixed bug in XMC_CAN_MO_Config() <br>  
  93:C:/Users/Lenovo/workspace/dave_workspace/SOLAR_TOWER/Libraries/XMCLib/inc\xmc_can.h ****  * @endcond
  94:C:/Users/Lenovo/workspace/dave_workspace/SOLAR_TOWER/Libraries/XMCLib/inc\xmc_can.h ****  *
  95:C:/Users/Lenovo/workspace/dave_workspace/SOLAR_TOWER/Libraries/XMCLib/inc\xmc_can.h ****  */
  96:C:/Users/Lenovo/workspace/dave_workspace/SOLAR_TOWER/Libraries/XMCLib/inc\xmc_can.h **** 
  97:C:/Users/Lenovo/workspace/dave_workspace/SOLAR_TOWER/Libraries/XMCLib/inc\xmc_can.h **** #ifndef XMC_CAN_H
  98:C:/Users/Lenovo/workspace/dave_workspace/SOLAR_TOWER/Libraries/XMCLib/inc\xmc_can.h **** #define XMC_CAN_H
  99:C:/Users/Lenovo/workspace/dave_workspace/SOLAR_TOWER/Libraries/XMCLib/inc\xmc_can.h **** 
 100:C:/Users/Lenovo/workspace/dave_workspace/SOLAR_TOWER/Libraries/XMCLib/inc\xmc_can.h **** /**************************************************************************************************
 101:C:/Users/Lenovo/workspace/dave_workspace/SOLAR_TOWER/Libraries/XMCLib/inc\xmc_can.h ****  * HEADER FILES
 102:C:/Users/Lenovo/workspace/dave_workspace/SOLAR_TOWER/Libraries/XMCLib/inc\xmc_can.h ****  **************************************************************************************************
 103:C:/Users/Lenovo/workspace/dave_workspace/SOLAR_TOWER/Libraries/XMCLib/inc\xmc_can.h **** #include "xmc_common.h"
 104:C:/Users/Lenovo/workspace/dave_workspace/SOLAR_TOWER/Libraries/XMCLib/inc\xmc_can.h **** 
 105:C:/Users/Lenovo/workspace/dave_workspace/SOLAR_TOWER/Libraries/XMCLib/inc\xmc_can.h **** #if defined(CAN)
 106:C:/Users/Lenovo/workspace/dave_workspace/SOLAR_TOWER/Libraries/XMCLib/inc\xmc_can.h **** 
 107:C:/Users/Lenovo/workspace/dave_workspace/SOLAR_TOWER/Libraries/XMCLib/inc\xmc_can.h **** #include "xmc_scu.h"
 108:C:/Users/Lenovo/workspace/dave_workspace/SOLAR_TOWER/Libraries/XMCLib/inc\xmc_can.h **** #include "xmc_can_map.h"
 109:C:/Users/Lenovo/workspace/dave_workspace/SOLAR_TOWER/Libraries/XMCLib/inc\xmc_can.h **** #include <string.h>
 110:C:/Users/Lenovo/workspace/dave_workspace/SOLAR_TOWER/Libraries/XMCLib/inc\xmc_can.h **** 
 111:C:/Users/Lenovo/workspace/dave_workspace/SOLAR_TOWER/Libraries/XMCLib/inc\xmc_can.h **** /**
 112:C:/Users/Lenovo/workspace/dave_workspace/SOLAR_TOWER/Libraries/XMCLib/inc\xmc_can.h ****  * @addtogroup XMClib XMC Peripheral Library
 113:C:/Users/Lenovo/workspace/dave_workspace/SOLAR_TOWER/Libraries/XMCLib/inc\xmc_can.h ****  * @{
 114:C:/Users/Lenovo/workspace/dave_workspace/SOLAR_TOWER/Libraries/XMCLib/inc\xmc_can.h ****  */
 115:C:/Users/Lenovo/workspace/dave_workspace/SOLAR_TOWER/Libraries/XMCLib/inc\xmc_can.h **** 
 116:C:/Users/Lenovo/workspace/dave_workspace/SOLAR_TOWER/Libraries/XMCLib/inc\xmc_can.h **** /**
 117:C:/Users/Lenovo/workspace/dave_workspace/SOLAR_TOWER/Libraries/XMCLib/inc\xmc_can.h ****  * @addtogroup CAN
 118:C:/Users/Lenovo/workspace/dave_workspace/SOLAR_TOWER/Libraries/XMCLib/inc\xmc_can.h ****  * @brief Controller Area Network Controller (CAN) driver for the XMC microcontroller family.
 119:C:/Users/Lenovo/workspace/dave_workspace/SOLAR_TOWER/Libraries/XMCLib/inc\xmc_can.h ****  *
 120:C:/Users/Lenovo/workspace/dave_workspace/SOLAR_TOWER/Libraries/XMCLib/inc\xmc_can.h ****  * CAN driver provides transfer of CAN frames in accordance with CAN specificetion V2.0 B (active).
 121:C:/Users/Lenovo/workspace/dave_workspace/SOLAR_TOWER/Libraries/XMCLib/inc\xmc_can.h ****  * can receive and transmit standard frames with 11-bit identifiers as well as extended frames with
 122:C:/Users/Lenovo/workspace/dave_workspace/SOLAR_TOWER/Libraries/XMCLib/inc\xmc_can.h ****  * All CAN nodes share a common set of message objects. Each message object can be individually all
 123:C:/Users/Lenovo/workspace/dave_workspace/SOLAR_TOWER/Libraries/XMCLib/inc\xmc_can.h ****  * CAN nodes. 
 124:C:/Users/Lenovo/workspace/dave_workspace/SOLAR_TOWER/Libraries/XMCLib/inc\xmc_can.h ****  * Besides serving as a storage container for incoming and outgoing frames, message objects can be 
 125:C:/Users/Lenovo/workspace/dave_workspace/SOLAR_TOWER/Libraries/XMCLib/inc\xmc_can.h ****  * gateways between 
 126:C:/Users/Lenovo/workspace/dave_workspace/SOLAR_TOWER/Libraries/XMCLib/inc\xmc_can.h ****  * the CAN nodes or to setup a FIFO buffer. The CAN module provides Analyzer mode,Loop-back mode an
 127:C:/Users/Lenovo/workspace/dave_workspace/SOLAR_TOWER/Libraries/XMCLib/inc\xmc_can.h ****  * node analysis.
 128:C:/Users/Lenovo/workspace/dave_workspace/SOLAR_TOWER/Libraries/XMCLib/inc\xmc_can.h ****  * 
 129:C:/Users/Lenovo/workspace/dave_workspace/SOLAR_TOWER/Libraries/XMCLib/inc\xmc_can.h ****  * The driver is divided into five sections:
 130:C:/Users/Lenovo/workspace/dave_workspace/SOLAR_TOWER/Libraries/XMCLib/inc\xmc_can.h ****  * \par CAN Global features:
 131:C:/Users/Lenovo/workspace/dave_workspace/SOLAR_TOWER/Libraries/XMCLib/inc\xmc_can.h ****  * -# Allows to configure module frequency using function XMC_CAN_Init().
 132:C:/Users/Lenovo/workspace/dave_workspace/SOLAR_TOWER/Libraries/XMCLib/inc\xmc_can.h ****  * -# Allows to configure Module interrupt using configuration structure XMC_CAN_NODE_INTERRUPT_TRI
 133:C:/Users/Lenovo/workspace/dave_workspace/SOLAR_TOWER/Libraries/XMCLib/inc\xmc_can.h ****  *    XMC_CAN_EventTrigger().
 134:C:/Users/Lenovo/workspace/dave_workspace/SOLAR_TOWER/Libraries/XMCLib/inc\xmc_can.h ****  * 
 135:C:/Users/Lenovo/workspace/dave_workspace/SOLAR_TOWER/Libraries/XMCLib/inc\xmc_can.h ****  * \par CAN_NODE features:
 136:C:/Users/Lenovo/workspace/dave_workspace/SOLAR_TOWER/Libraries/XMCLib/inc\xmc_can.h ****  * -# Allows to set baud rate by configuration structure XMC_CAN_NODE_NOMINAL_BIT_TIME_CONFIG_t and
 137:C:/Users/Lenovo/workspace/dave_workspace/SOLAR_TOWER/Libraries/XMCLib/inc\xmc_can.h ****  *    function XMC_CAN_NODE_NominalBitTimeConfigure().
 138:C:/Users/Lenovo/workspace/dave_workspace/SOLAR_TOWER/Libraries/XMCLib/inc\xmc_can.h ****  * -# Allows to configure loop-back mode using fuction XMC_CAN_NODE_EnableLoopBack().
 139:C:/Users/Lenovo/workspace/dave_workspace/SOLAR_TOWER/Libraries/XMCLib/inc\xmc_can.h ****  * -# Allows to configure CAN Node analyzer using function XMC_CAN_NODE_SetAnalyzerMode().
 140:C:/Users/Lenovo/workspace/dave_workspace/SOLAR_TOWER/Libraries/XMCLib/inc\xmc_can.h ****  * -# Allows CAN node events enable/ disable by enum structure XMC_CAN_NODE_EVENT_t and functions X
 141:C:/Users/Lenovo/workspace/dave_workspace/SOLAR_TOWER/Libraries/XMCLib/inc\xmc_can.h ****  *    and XMC_CAN_NODE_DisableEvent().
 142:C:/Users/Lenovo/workspace/dave_workspace/SOLAR_TOWER/Libraries/XMCLib/inc\xmc_can.h ****  * -# Provides bit timming analysis, configuration structure XMC_CAN_NODE_FRAME_COUNTER_t and funct
 143:C:/Users/Lenovo/workspace/dave_workspace/SOLAR_TOWER/Libraries/XMCLib/inc\xmc_can.h ****  *    XMC_CAN_NODE_FrameCounterConfigure(). 
 144:C:/Users/Lenovo/workspace/dave_workspace/SOLAR_TOWER/Libraries/XMCLib/inc\xmc_can.h ****  *
 145:C:/Users/Lenovo/workspace/dave_workspace/SOLAR_TOWER/Libraries/XMCLib/inc\xmc_can.h ****  * \par CAN_MO features:
 146:C:/Users/Lenovo/workspace/dave_workspace/SOLAR_TOWER/Libraries/XMCLib/inc\xmc_can.h ****  * -# Allows message object initialization by configuration structure XMC_CAN_MO_t and function XMC
 147:C:/Users/Lenovo/workspace/dave_workspace/SOLAR_TOWER/Libraries/XMCLib/inc\xmc_can.h ****  * -# Allows transfer of message objects using functions XMC_CAN_MO_Transmit() and XMC_CAN_MO_Recei
 148:C:/Users/Lenovo/workspace/dave_workspace/SOLAR_TOWER/Libraries/XMCLib/inc\xmc_can.h ****  * -# Allows to configure Single Data Transfer and Single Transmit Trial using functions 
 149:C:/Users/Lenovo/workspace/dave_workspace/SOLAR_TOWER/Libraries/XMCLib/inc\xmc_can.h ****  * XMC_CAN_MO_EnableSingleTransmitTrial() and XMC_CAN_MO_EnableSingleTransmitTrial().
 150:C:/Users/Lenovo/workspace/dave_workspace/SOLAR_TOWER/Libraries/XMCLib/inc\xmc_can.h ****  * -# Allows to configure MO events using function XMC_CAN_MO_EnableEvent(). 
 151:C:/Users/Lenovo/workspace/dave_workspace/SOLAR_TOWER/Libraries/XMCLib/inc\xmc_can.h ****  *
 152:C:/Users/Lenovo/workspace/dave_workspace/SOLAR_TOWER/Libraries/XMCLib/inc\xmc_can.h ****  * \par CAN_FIFO features:
 153:C:/Users/Lenovo/workspace/dave_workspace/SOLAR_TOWER/Libraries/XMCLib/inc\xmc_can.h ****  * -# Allows message object FIFO structure by configuration structure XMC_CAN_FIFO_CONFIG_t and fun
 154:C:/Users/Lenovo/workspace/dave_workspace/SOLAR_TOWER/Libraries/XMCLib/inc\xmc_can.h ****  * XMC_CAN_TXFIFO_ConfigMOBaseObject() , XMC_CAN_RXFIFO_ConfigMOBaseObject() and XMC_CAN_TXFIFO_Tra
 155:C:/Users/Lenovo/workspace/dave_workspace/SOLAR_TOWER/Libraries/XMCLib/inc\xmc_can.h ****  *
 156:C:/Users/Lenovo/workspace/dave_workspace/SOLAR_TOWER/Libraries/XMCLib/inc\xmc_can.h ****  * \par CAN_GATEWAY features:
 157:C:/Users/Lenovo/workspace/dave_workspace/SOLAR_TOWER/Libraries/XMCLib/inc\xmc_can.h ****  * -# Provides Gateway mode, configuration structure XMC_CAN_GATEWAY_CONFIG_t and function XMC_CAN_
 158:C:/Users/Lenovo/workspace/dave_workspace/SOLAR_TOWER/Libraries/XMCLib/inc\xmc_can.h ****  *
 159:C:/Users/Lenovo/workspace/dave_workspace/SOLAR_TOWER/Libraries/XMCLib/inc\xmc_can.h ****  * @{
 160:C:/Users/Lenovo/workspace/dave_workspace/SOLAR_TOWER/Libraries/XMCLib/inc\xmc_can.h ****  */
 161:C:/Users/Lenovo/workspace/dave_workspace/SOLAR_TOWER/Libraries/XMCLib/inc\xmc_can.h **** 
 162:C:/Users/Lenovo/workspace/dave_workspace/SOLAR_TOWER/Libraries/XMCLib/inc\xmc_can.h **** /**************************************************************************************************
 163:C:/Users/Lenovo/workspace/dave_workspace/SOLAR_TOWER/Libraries/XMCLib/inc\xmc_can.h ****  * MACROS
 164:C:/Users/Lenovo/workspace/dave_workspace/SOLAR_TOWER/Libraries/XMCLib/inc\xmc_can.h ****  **************************************************************************************************
 165:C:/Users/Lenovo/workspace/dave_workspace/SOLAR_TOWER/Libraries/XMCLib/inc\xmc_can.h **** #define XMC_CAN_MO_MOAR_STDID_Pos (18U)   /**< Standard Identifier bitposition */
 166:C:/Users/Lenovo/workspace/dave_workspace/SOLAR_TOWER/Libraries/XMCLib/inc\xmc_can.h **** 
 167:C:/Users/Lenovo/workspace/dave_workspace/SOLAR_TOWER/Libraries/XMCLib/inc\xmc_can.h **** #define XMC_CAN_MO_MOAR_STDID_Msk ((0x000007FFUL) << XMC_CAN_MO_MOAR_STDID_Pos) /**< Standard Ident
 168:C:/Users/Lenovo/workspace/dave_workspace/SOLAR_TOWER/Libraries/XMCLib/inc\xmc_can.h **** 
 169:C:/Users/Lenovo/workspace/dave_workspace/SOLAR_TOWER/Libraries/XMCLib/inc\xmc_can.h **** #define CAN_NODE_NIPR_Msk         (0x7UL) /**< Node event mask */
 170:C:/Users/Lenovo/workspace/dave_workspace/SOLAR_TOWER/Libraries/XMCLib/inc\xmc_can.h **** 
 171:C:/Users/Lenovo/workspace/dave_workspace/SOLAR_TOWER/Libraries/XMCLib/inc\xmc_can.h **** #define CAN_MO_MOIPR_Msk          (0x7U)  /**< Message Object event mask */
 172:C:/Users/Lenovo/workspace/dave_workspace/SOLAR_TOWER/Libraries/XMCLib/inc\xmc_can.h **** 
 173:C:/Users/Lenovo/workspace/dave_workspace/SOLAR_TOWER/Libraries/XMCLib/inc\xmc_can.h **** /**************************************************************************************************
 174:C:/Users/Lenovo/workspace/dave_workspace/SOLAR_TOWER/Libraries/XMCLib/inc\xmc_can.h ****  * ENUMS
 175:C:/Users/Lenovo/workspace/dave_workspace/SOLAR_TOWER/Libraries/XMCLib/inc\xmc_can.h ****  **************************************************************************************************
 176:C:/Users/Lenovo/workspace/dave_workspace/SOLAR_TOWER/Libraries/XMCLib/inc\xmc_can.h **** /**
 177:C:/Users/Lenovo/workspace/dave_workspace/SOLAR_TOWER/Libraries/XMCLib/inc\xmc_can.h ****  *  Defines the status of CAN, to verify the CAN related API calls. Use type \a XMC_CAN_STATUS_t fo
 178:C:/Users/Lenovo/workspace/dave_workspace/SOLAR_TOWER/Libraries/XMCLib/inc\xmc_can.h **** */
 179:C:/Users/Lenovo/workspace/dave_workspace/SOLAR_TOWER/Libraries/XMCLib/inc\xmc_can.h **** typedef enum XMC_CAN_STATUS
 180:C:/Users/Lenovo/workspace/dave_workspace/SOLAR_TOWER/Libraries/XMCLib/inc\xmc_can.h **** {
 181:C:/Users/Lenovo/workspace/dave_workspace/SOLAR_TOWER/Libraries/XMCLib/inc\xmc_can.h ****   XMC_CAN_STATUS_SUCCESS,           /**< Driver accepted application request*/
 182:C:/Users/Lenovo/workspace/dave_workspace/SOLAR_TOWER/Libraries/XMCLib/inc\xmc_can.h ****   XMC_CAN_STATUS_ERROR,             /**< Returned when unknown error occurred */
 183:C:/Users/Lenovo/workspace/dave_workspace/SOLAR_TOWER/Libraries/XMCLib/inc\xmc_can.h ****   XMC_CAN_STATUS_BUSY,              /**< Driver is busy and can not handle request*/
 184:C:/Users/Lenovo/workspace/dave_workspace/SOLAR_TOWER/Libraries/XMCLib/inc\xmc_can.h ****   XMC_CAN_STATUS_MO_NOT_ACCEPTABLE, /**< Message object type not allowed*/
 185:C:/Users/Lenovo/workspace/dave_workspace/SOLAR_TOWER/Libraries/XMCLib/inc\xmc_can.h ****   XMC_CAN_STATUS_MO_DISABLED       /**< Returned if Message object is disabled */
 186:C:/Users/Lenovo/workspace/dave_workspace/SOLAR_TOWER/Libraries/XMCLib/inc\xmc_can.h **** } XMC_CAN_STATUS_t;
 187:C:/Users/Lenovo/workspace/dave_workspace/SOLAR_TOWER/Libraries/XMCLib/inc\xmc_can.h **** 
 188:C:/Users/Lenovo/workspace/dave_workspace/SOLAR_TOWER/Libraries/XMCLib/inc\xmc_can.h **** /**
 189:C:/Users/Lenovo/workspace/dave_workspace/SOLAR_TOWER/Libraries/XMCLib/inc\xmc_can.h **** * Defines CAN module Panel Commands . Use type \a XMC_CAN_PANCMD_t for this enum.
 190:C:/Users/Lenovo/workspace/dave_workspace/SOLAR_TOWER/Libraries/XMCLib/inc\xmc_can.h **** */
 191:C:/Users/Lenovo/workspace/dave_workspace/SOLAR_TOWER/Libraries/XMCLib/inc\xmc_can.h **** typedef enum XMC_CAN_PANCMD
 192:C:/Users/Lenovo/workspace/dave_workspace/SOLAR_TOWER/Libraries/XMCLib/inc\xmc_can.h **** {
 193:C:/Users/Lenovo/workspace/dave_workspace/SOLAR_TOWER/Libraries/XMCLib/inc\xmc_can.h ****   XMC_CAN_PANCMD_INIT_LIST = 1U,              /**< Command to initialize a list */
 194:C:/Users/Lenovo/workspace/dave_workspace/SOLAR_TOWER/Libraries/XMCLib/inc\xmc_can.h ****   XMC_CAN_PANCMD_STATIC_ALLOCATE = 2U,        /**< Command to activate static allocation */
 195:C:/Users/Lenovo/workspace/dave_workspace/SOLAR_TOWER/Libraries/XMCLib/inc\xmc_can.h ****   XMC_CAN_PANCMD_DYNAMIC_ALLOCATE = 3U,       /**< Command to activate dynamic allocation */
 196:C:/Users/Lenovo/workspace/dave_workspace/SOLAR_TOWER/Libraries/XMCLib/inc\xmc_can.h **** 
 197:C:/Users/Lenovo/workspace/dave_workspace/SOLAR_TOWER/Libraries/XMCLib/inc\xmc_can.h ****   XMC_CAN_PANCMD_STATIC_INSERT_BEFORE = 4U,   /**< Remove a message object from the list and insert
 198:C:/Users/Lenovo/workspace/dave_workspace/SOLAR_TOWER/Libraries/XMCLib/inc\xmc_can.h ****   XMC_CAN_PANCMD_DYNAMIC_INSERT_BEFORE = 5U,  /**< Command to activate dynamic allocation */
 199:C:/Users/Lenovo/workspace/dave_workspace/SOLAR_TOWER/Libraries/XMCLib/inc\xmc_can.h ****   XMC_CAN_PANCMD_STATIC_INSERT_BEHIND = 6U,   /**< Command to activate dynamic allocation */
 200:C:/Users/Lenovo/workspace/dave_workspace/SOLAR_TOWER/Libraries/XMCLib/inc\xmc_can.h ****   XMC_CAN_PANCMD_DYNAMIC_INSERT_BEHIND = 7U   /**< Command to activate dynamic allocation */
 201:C:/Users/Lenovo/workspace/dave_workspace/SOLAR_TOWER/Libraries/XMCLib/inc\xmc_can.h **** } XMC_CAN_PANCMD_t;
 202:C:/Users/Lenovo/workspace/dave_workspace/SOLAR_TOWER/Libraries/XMCLib/inc\xmc_can.h **** 
 203:C:/Users/Lenovo/workspace/dave_workspace/SOLAR_TOWER/Libraries/XMCLib/inc\xmc_can.h **** /**
 204:C:/Users/Lenovo/workspace/dave_workspace/SOLAR_TOWER/Libraries/XMCLib/inc\xmc_can.h **** * Defines loop Back Mode, to enable/disable an in-system test of the MultiCAN module .
 205:C:/Users/Lenovo/workspace/dave_workspace/SOLAR_TOWER/Libraries/XMCLib/inc\xmc_can.h **** * Use type \a XMC_CAN_LOOKBACKMODE_t for this enum.
 206:C:/Users/Lenovo/workspace/dave_workspace/SOLAR_TOWER/Libraries/XMCLib/inc\xmc_can.h **** */
 207:C:/Users/Lenovo/workspace/dave_workspace/SOLAR_TOWER/Libraries/XMCLib/inc\xmc_can.h **** typedef enum XMC_CAN_LOOKBACKMODE
 208:C:/Users/Lenovo/workspace/dave_workspace/SOLAR_TOWER/Libraries/XMCLib/inc\xmc_can.h **** {
 209:C:/Users/Lenovo/workspace/dave_workspace/SOLAR_TOWER/Libraries/XMCLib/inc\xmc_can.h ****   XMC_CAN_LOOKBACKMODE_ENABLED,   /**< Each CAN node can be connected to the internal CAN bus  */
 210:C:/Users/Lenovo/workspace/dave_workspace/SOLAR_TOWER/Libraries/XMCLib/inc\xmc_can.h ****   XMC_CAN_LOOKBACKMODE_DISABLED   /**< Each CAN node can be connected to the external CAN bus */
 211:C:/Users/Lenovo/workspace/dave_workspace/SOLAR_TOWER/Libraries/XMCLib/inc\xmc_can.h **** } XMC_CAN_LOOKBACKMODE_t;
 212:C:/Users/Lenovo/workspace/dave_workspace/SOLAR_TOWER/Libraries/XMCLib/inc\xmc_can.h **** 
 213:C:/Users/Lenovo/workspace/dave_workspace/SOLAR_TOWER/Libraries/XMCLib/inc\xmc_can.h **** /**
 214:C:/Users/Lenovo/workspace/dave_workspace/SOLAR_TOWER/Libraries/XMCLib/inc\xmc_can.h ****  * Defines Message Object direction. Use type \a XMC_CAN_MO_TYPE_t for this enum.
 215:C:/Users/Lenovo/workspace/dave_workspace/SOLAR_TOWER/Libraries/XMCLib/inc\xmc_can.h ****  */
 216:C:/Users/Lenovo/workspace/dave_workspace/SOLAR_TOWER/Libraries/XMCLib/inc\xmc_can.h **** typedef enum XMC_CAN_MO_TYPE
 217:C:/Users/Lenovo/workspace/dave_workspace/SOLAR_TOWER/Libraries/XMCLib/inc\xmc_can.h **** {
 218:C:/Users/Lenovo/workspace/dave_workspace/SOLAR_TOWER/Libraries/XMCLib/inc\xmc_can.h ****   XMC_CAN_MO_TYPE_RECMSGOBJ,   /**< Receive Message Object selected */
 219:C:/Users/Lenovo/workspace/dave_workspace/SOLAR_TOWER/Libraries/XMCLib/inc\xmc_can.h ****   XMC_CAN_MO_TYPE_TRANSMSGOBJ  /**< Transmit Message Object selected */
 220:C:/Users/Lenovo/workspace/dave_workspace/SOLAR_TOWER/Libraries/XMCLib/inc\xmc_can.h **** } XMC_CAN_MO_TYPE_t;
 221:C:/Users/Lenovo/workspace/dave_workspace/SOLAR_TOWER/Libraries/XMCLib/inc\xmc_can.h **** 
 222:C:/Users/Lenovo/workspace/dave_workspace/SOLAR_TOWER/Libraries/XMCLib/inc\xmc_can.h **** /**
 223:C:/Users/Lenovo/workspace/dave_workspace/SOLAR_TOWER/Libraries/XMCLib/inc\xmc_can.h ****  * Defines Data frame types. Use type \a XMC_CAN_FRAME_TYPE_t for this enum.
 224:C:/Users/Lenovo/workspace/dave_workspace/SOLAR_TOWER/Libraries/XMCLib/inc\xmc_can.h ****  */
 225:C:/Users/Lenovo/workspace/dave_workspace/SOLAR_TOWER/Libraries/XMCLib/inc\xmc_can.h **** typedef enum XMC_CAN_FRAME_TYPE
 226:C:/Users/Lenovo/workspace/dave_workspace/SOLAR_TOWER/Libraries/XMCLib/inc\xmc_can.h **** {
 227:C:/Users/Lenovo/workspace/dave_workspace/SOLAR_TOWER/Libraries/XMCLib/inc\xmc_can.h ****   XMC_CAN_FRAME_TYPE_STANDARD_11BITS, /**< Standard type identifier*/
 228:C:/Users/Lenovo/workspace/dave_workspace/SOLAR_TOWER/Libraries/XMCLib/inc\xmc_can.h ****   XMC_CAN_FRAME_TYPE_EXTENDED_29BITS  /**< Extended type identifier*/
 229:C:/Users/Lenovo/workspace/dave_workspace/SOLAR_TOWER/Libraries/XMCLib/inc\xmc_can.h **** } XMC_CAN_FRAME_TYPE_t;
 230:C:/Users/Lenovo/workspace/dave_workspace/SOLAR_TOWER/Libraries/XMCLib/inc\xmc_can.h **** 
 231:C:/Users/Lenovo/workspace/dave_workspace/SOLAR_TOWER/Libraries/XMCLib/inc\xmc_can.h **** 
 232:C:/Users/Lenovo/workspace/dave_workspace/SOLAR_TOWER/Libraries/XMCLib/inc\xmc_can.h **** /**
 233:C:/Users/Lenovo/workspace/dave_workspace/SOLAR_TOWER/Libraries/XMCLib/inc\xmc_can.h ****  * Defines arbitration mode for transmit acceptance filtering. Use type \a XMC_CAN_ARBITRATION_MODE
 234:C:/Users/Lenovo/workspace/dave_workspace/SOLAR_TOWER/Libraries/XMCLib/inc\xmc_can.h ****  */
 235:C:/Users/Lenovo/workspace/dave_workspace/SOLAR_TOWER/Libraries/XMCLib/inc\xmc_can.h **** typedef enum XMC_CAN_ARBITRATION_MODE
 236:C:/Users/Lenovo/workspace/dave_workspace/SOLAR_TOWER/Libraries/XMCLib/inc\xmc_can.h **** {
 237:C:/Users/Lenovo/workspace/dave_workspace/SOLAR_TOWER/Libraries/XMCLib/inc\xmc_can.h ****   XMC_CAN_ARBITRATION_MODE_ORDER_BASED_PRIO_1 = 1U,   /**< Transmit acceptance based in the order(p
 238:C:/Users/Lenovo/workspace/dave_workspace/SOLAR_TOWER/Libraries/XMCLib/inc\xmc_can.h ****   XMC_CAN_ARBITRATION_MODE_IDE_DIR_BASED_PRIO_2 = 2U, /**< Transmit acceptance filtering is based o
 239:C:/Users/Lenovo/workspace/dave_workspace/SOLAR_TOWER/Libraries/XMCLib/inc\xmc_can.h ****   XMC_CAN_ARBITRATION_MODE_ORDER_BASED_PRIO_3 = 3U    /**< Transmit acceptance based in the order *
 240:C:/Users/Lenovo/workspace/dave_workspace/SOLAR_TOWER/Libraries/XMCLib/inc\xmc_can.h **** } XMC_CAN_ARBITRATION_MODE_t;
 241:C:/Users/Lenovo/workspace/dave_workspace/SOLAR_TOWER/Libraries/XMCLib/inc\xmc_can.h **** 
 242:C:/Users/Lenovo/workspace/dave_workspace/SOLAR_TOWER/Libraries/XMCLib/inc\xmc_can.h **** /**
 243:C:/Users/Lenovo/workspace/dave_workspace/SOLAR_TOWER/Libraries/XMCLib/inc\xmc_can.h ****  * Defines the operation mode of the frame counter. Use type \a XMC_CAN_FRAME_COUNT_MODE_t for this
 244:C:/Users/Lenovo/workspace/dave_workspace/SOLAR_TOWER/Libraries/XMCLib/inc\xmc_can.h ****  */
 245:C:/Users/Lenovo/workspace/dave_workspace/SOLAR_TOWER/Libraries/XMCLib/inc\xmc_can.h **** typedef enum XMC_CAN_FRAME_COUNT_MODE
 246:C:/Users/Lenovo/workspace/dave_workspace/SOLAR_TOWER/Libraries/XMCLib/inc\xmc_can.h **** {
 247:C:/Users/Lenovo/workspace/dave_workspace/SOLAR_TOWER/Libraries/XMCLib/inc\xmc_can.h ****   XMC_CAN_FRAME_COUNT_MODE = 0U,       /**< Frame Count Mode */
 248:C:/Users/Lenovo/workspace/dave_workspace/SOLAR_TOWER/Libraries/XMCLib/inc\xmc_can.h ****   XMC_CAN_FRAME_COUNT_MODE_TIME_STAMP = 1U,  /**< The frame counter is incremented with the beginni
 249:C:/Users/Lenovo/workspace/dave_workspace/SOLAR_TOWER/Libraries/XMCLib/inc\xmc_can.h ****   XMC_CAN_FRAME_COUNT_MODE_BIT_TIMING = 2U   /**< Used for baud rate detection and analysis of the 
 250:C:/Users/Lenovo/workspace/dave_workspace/SOLAR_TOWER/Libraries/XMCLib/inc\xmc_can.h **** } XMC_CAN_FRAME_COUNT_MODE_t;
 251:C:/Users/Lenovo/workspace/dave_workspace/SOLAR_TOWER/Libraries/XMCLib/inc\xmc_can.h **** 
 252:C:/Users/Lenovo/workspace/dave_workspace/SOLAR_TOWER/Libraries/XMCLib/inc\xmc_can.h **** /**
 253:C:/Users/Lenovo/workspace/dave_workspace/SOLAR_TOWER/Libraries/XMCLib/inc\xmc_can.h ****  * Defines the Divider Modes. Use type \a XMC_CAN_DM_t for this enum.
 254:C:/Users/Lenovo/workspace/dave_workspace/SOLAR_TOWER/Libraries/XMCLib/inc\xmc_can.h ****  */
 255:C:/Users/Lenovo/workspace/dave_workspace/SOLAR_TOWER/Libraries/XMCLib/inc\xmc_can.h **** typedef enum XMC_CAN_DM
 256:C:/Users/Lenovo/workspace/dave_workspace/SOLAR_TOWER/Libraries/XMCLib/inc\xmc_can.h **** {
 257:C:/Users/Lenovo/workspace/dave_workspace/SOLAR_TOWER/Libraries/XMCLib/inc\xmc_can.h ****   XMC_CAN_DM_NORMAL = 1U,      /**< Normal divider mode */
 258:C:/Users/Lenovo/workspace/dave_workspace/SOLAR_TOWER/Libraries/XMCLib/inc\xmc_can.h ****   XMC_CAN_DM_FRACTIONAL = 2U,  /**< Fractional divider mode */
 259:C:/Users/Lenovo/workspace/dave_workspace/SOLAR_TOWER/Libraries/XMCLib/inc\xmc_can.h ****   XMC_CAN_DM_OFF = 3U          /**< Divider Mode in off-state*/
 260:C:/Users/Lenovo/workspace/dave_workspace/SOLAR_TOWER/Libraries/XMCLib/inc\xmc_can.h **** } XMC_CAN_DM_t;
 261:C:/Users/Lenovo/workspace/dave_workspace/SOLAR_TOWER/Libraries/XMCLib/inc\xmc_can.h **** 
 262:C:/Users/Lenovo/workspace/dave_workspace/SOLAR_TOWER/Libraries/XMCLib/inc\xmc_can.h **** /**
 263:C:/Users/Lenovo/workspace/dave_workspace/SOLAR_TOWER/Libraries/XMCLib/inc\xmc_can.h ****  * Defines mask value for CAN Message Object set status. Use type \a XMC_CAN_MO_SET_STATUS_t for th
 264:C:/Users/Lenovo/workspace/dave_workspace/SOLAR_TOWER/Libraries/XMCLib/inc\xmc_can.h ****  */
 265:C:/Users/Lenovo/workspace/dave_workspace/SOLAR_TOWER/Libraries/XMCLib/inc\xmc_can.h **** typedef enum XMC_CAN_MO_SET_STATUS
 266:C:/Users/Lenovo/workspace/dave_workspace/SOLAR_TOWER/Libraries/XMCLib/inc\xmc_can.h **** {
 267:C:/Users/Lenovo/workspace/dave_workspace/SOLAR_TOWER/Libraries/XMCLib/inc\xmc_can.h ****   XMC_CAN_MO_SET_STATUS_RX_PENDING = CAN_MO_MOCTR_SETRXPND_Msk,     /**< Set receive pending */
 268:C:/Users/Lenovo/workspace/dave_workspace/SOLAR_TOWER/Libraries/XMCLib/inc\xmc_can.h ****   XMC_CAN_MO_SET_STATUS_TX_PENDING = CAN_MO_MOCTR_SETTXPND_Msk,     /**< Set transmit pending */
 269:C:/Users/Lenovo/workspace/dave_workspace/SOLAR_TOWER/Libraries/XMCLib/inc\xmc_can.h ****   XMC_CAN_MO_SET_STATUS_RX_UPDATING = CAN_MO_MOCTR_SETRXUPD_Msk,    /**< Set receive updating */
 270:C:/Users/Lenovo/workspace/dave_workspace/SOLAR_TOWER/Libraries/XMCLib/inc\xmc_can.h ****   XMC_CAN_MO_SET_STATUS_NEW_DATA = CAN_MO_MOCTR_SETNEWDAT_Msk,      /**< Set new data */
 271:C:/Users/Lenovo/workspace/dave_workspace/SOLAR_TOWER/Libraries/XMCLib/inc\xmc_can.h ****   XMC_CAN_MO_SET_STATUS_MESSAGE_LOST = CAN_MO_MOCTR_SETMSGLST_Msk,  /**< Set message lost */
 272:C:/Users/Lenovo/workspace/dave_workspace/SOLAR_TOWER/Libraries/XMCLib/inc\xmc_can.h ****   XMC_CAN_MO_SET_STATUS_MESSAGE_VALID = CAN_MO_MOCTR_SETMSGVAL_Msk, /**< Set message valid */
 273:C:/Users/Lenovo/workspace/dave_workspace/SOLAR_TOWER/Libraries/XMCLib/inc\xmc_can.h ****   XMC_CAN_MO_SET_STATUS_RX_TX_SELECTED = CAN_MO_MOCTR_SETRTSEL_Msk, /**< Set transmit/receive selec
 274:C:/Users/Lenovo/workspace/dave_workspace/SOLAR_TOWER/Libraries/XMCLib/inc\xmc_can.h ****   XMC_CAN_MO_SET_STATUS_RX_ENABLE = CAN_MO_MOCTR_SETRXEN_Msk,       /**< Set receive enable */
 275:C:/Users/Lenovo/workspace/dave_workspace/SOLAR_TOWER/Libraries/XMCLib/inc\xmc_can.h ****   XMC_CAN_MO_SET_STATUS_TX_REQUEST = CAN_MO_MOCTR_SETTXRQ_Msk,      /**< Set transmit request */
 276:C:/Users/Lenovo/workspace/dave_workspace/SOLAR_TOWER/Libraries/XMCLib/inc\xmc_can.h ****   XMC_CAN_MO_SET_STATUS_TX_ENABLE0 = CAN_MO_MOCTR_SETTXEN0_Msk,     /**< Set transmit enable 0 */
 277:C:/Users/Lenovo/workspace/dave_workspace/SOLAR_TOWER/Libraries/XMCLib/inc\xmc_can.h ****   XMC_CAN_MO_SET_STATUS_TX_ENABLE1 = CAN_MO_MOCTR_SETTXEN1_Msk,     /**< Set transmit enable 1 */
 278:C:/Users/Lenovo/workspace/dave_workspace/SOLAR_TOWER/Libraries/XMCLib/inc\xmc_can.h ****   XMC_CAN_MO_SET_STATUS_MESSAGE_DIRECTION = CAN_MO_MOCTR_SETDIR_Msk /**< Set message direction */
 279:C:/Users/Lenovo/workspace/dave_workspace/SOLAR_TOWER/Libraries/XMCLib/inc\xmc_can.h **** } XMC_CAN_MO_SET_STATUS_t;
 280:C:/Users/Lenovo/workspace/dave_workspace/SOLAR_TOWER/Libraries/XMCLib/inc\xmc_can.h **** 
 281:C:/Users/Lenovo/workspace/dave_workspace/SOLAR_TOWER/Libraries/XMCLib/inc\xmc_can.h **** /**
 282:C:/Users/Lenovo/workspace/dave_workspace/SOLAR_TOWER/Libraries/XMCLib/inc\xmc_can.h ****  * Defines mask value for CAN Message Object reset status. Use type \a XMC_CAN_MO_RESET_STATUS_t fo
 283:C:/Users/Lenovo/workspace/dave_workspace/SOLAR_TOWER/Libraries/XMCLib/inc\xmc_can.h ****  */
 284:C:/Users/Lenovo/workspace/dave_workspace/SOLAR_TOWER/Libraries/XMCLib/inc\xmc_can.h **** typedef enum XMC_CAN_MO_RESET_STATUS
 285:C:/Users/Lenovo/workspace/dave_workspace/SOLAR_TOWER/Libraries/XMCLib/inc\xmc_can.h **** {
 286:C:/Users/Lenovo/workspace/dave_workspace/SOLAR_TOWER/Libraries/XMCLib/inc\xmc_can.h ****   XMC_CAN_MO_RESET_STATUS_RX_PENDING = CAN_MO_MOCTR_RESRXPND_Msk,     /**< Reset receive pending */
 287:C:/Users/Lenovo/workspace/dave_workspace/SOLAR_TOWER/Libraries/XMCLib/inc\xmc_can.h ****   XMC_CAN_MO_RESET_STATUS_TX_PENDING = CAN_MO_MOCTR_RESTXPND_Msk,     /**< Reset transmit pending *
 288:C:/Users/Lenovo/workspace/dave_workspace/SOLAR_TOWER/Libraries/XMCLib/inc\xmc_can.h ****   XMC_CAN_MO_RESET_STATUS_RX_UPDATING = CAN_MO_MOCTR_RESRXUPD_Msk,    /**< Reset receive updating *
 289:C:/Users/Lenovo/workspace/dave_workspace/SOLAR_TOWER/Libraries/XMCLib/inc\xmc_can.h ****   XMC_CAN_MO_RESET_STATUS_NEW_DATA = CAN_MO_MOCTR_RESNEWDAT_Msk,      /**< Reset new data */
 290:C:/Users/Lenovo/workspace/dave_workspace/SOLAR_TOWER/Libraries/XMCLib/inc\xmc_can.h ****   XMC_CAN_MO_RESET_STATUS_MESSAGE_LOST = CAN_MO_MOCTR_RESMSGLST_Msk,  /**< Reset message lost */
 291:C:/Users/Lenovo/workspace/dave_workspace/SOLAR_TOWER/Libraries/XMCLib/inc\xmc_can.h ****   XMC_CAN_MO_RESET_STATUS_MESSAGE_VALID = CAN_MO_MOCTR_RESMSGVAL_Msk, /**< Reset message valid */
 292:C:/Users/Lenovo/workspace/dave_workspace/SOLAR_TOWER/Libraries/XMCLib/inc\xmc_can.h ****   XMC_CAN_MO_RESET_STATUS_RX_TX_SELECTED = CAN_MO_MOCTR_RESRTSEL_Msk, /**< Reset transmit/receive s
 293:C:/Users/Lenovo/workspace/dave_workspace/SOLAR_TOWER/Libraries/XMCLib/inc\xmc_can.h ****   XMC_CAN_MO_RESET_STATUS_RX_ENABLE = CAN_MO_MOCTR_RESRXEN_Msk,       /**< Reset receive enable */
 294:C:/Users/Lenovo/workspace/dave_workspace/SOLAR_TOWER/Libraries/XMCLib/inc\xmc_can.h ****   XMC_CAN_MO_RESET_STATUS_TX_REQUEST = CAN_MO_MOCTR_RESTXRQ_Msk,      /**< Reset transmit request *
 295:C:/Users/Lenovo/workspace/dave_workspace/SOLAR_TOWER/Libraries/XMCLib/inc\xmc_can.h ****   XMC_CAN_MO_RESET_STATUS_TX_ENABLE0 = CAN_MO_MOCTR_RESTXEN0_Msk,     /**< Reset transmit enable 0 
 296:C:/Users/Lenovo/workspace/dave_workspace/SOLAR_TOWER/Libraries/XMCLib/inc\xmc_can.h ****   XMC_CAN_MO_RESET_STATUS_TX_ENABLE1 = CAN_MO_MOCTR_RESTXEN1_Msk,     /**< Reset transmit enable 1 
 297:C:/Users/Lenovo/workspace/dave_workspace/SOLAR_TOWER/Libraries/XMCLib/inc\xmc_can.h ****   XMC_CAN_MO_RESET_STATUS_MESSAGE_DIRECTION = CAN_MO_MOCTR_RESDIR_Msk /**< Reset message direction 
 298:C:/Users/Lenovo/workspace/dave_workspace/SOLAR_TOWER/Libraries/XMCLib/inc\xmc_can.h **** } XMC_CAN_MO_RESET_STATUS_t;
 299:C:/Users/Lenovo/workspace/dave_workspace/SOLAR_TOWER/Libraries/XMCLib/inc\xmc_can.h **** 
 300:C:/Users/Lenovo/workspace/dave_workspace/SOLAR_TOWER/Libraries/XMCLib/inc\xmc_can.h **** /**
 301:C:/Users/Lenovo/workspace/dave_workspace/SOLAR_TOWER/Libraries/XMCLib/inc\xmc_can.h ****  * Defines mask value for CAN Message Object status. Use type \a XMC_CAN_MO_STATUS_t for this enum.
 302:C:/Users/Lenovo/workspace/dave_workspace/SOLAR_TOWER/Libraries/XMCLib/inc\xmc_can.h ****  */
 303:C:/Users/Lenovo/workspace/dave_workspace/SOLAR_TOWER/Libraries/XMCLib/inc\xmc_can.h **** typedef enum XMC_CAN_MO_STATUS
 304:C:/Users/Lenovo/workspace/dave_workspace/SOLAR_TOWER/Libraries/XMCLib/inc\xmc_can.h **** {
 305:C:/Users/Lenovo/workspace/dave_workspace/SOLAR_TOWER/Libraries/XMCLib/inc\xmc_can.h ****   XMC_CAN_MO_STATUS_RX_PENDING = CAN_MO_MOSTAT_RXPND_Msk,                   /**< Defines message ha
 306:C:/Users/Lenovo/workspace/dave_workspace/SOLAR_TOWER/Libraries/XMCLib/inc\xmc_can.h ****   XMC_CAN_MO_STATUS_TX_PENDING = CAN_MO_MOSTAT_TXPND_Msk,                   /**< Defines message ha
 307:C:/Users/Lenovo/workspace/dave_workspace/SOLAR_TOWER/Libraries/XMCLib/inc\xmc_can.h ****   XMC_CAN_MO_STATUS_RX_UPDATING = CAN_MO_MOSTAT_RXUPD_Msk,                  /**< Defines Message id
 308:C:/Users/Lenovo/workspace/dave_workspace/SOLAR_TOWER/Libraries/XMCLib/inc\xmc_can.h ****   XMC_CAN_MO_STATUS_NEW_DATA = CAN_MO_MOSTAT_NEWDAT_Msk,                    /**< Defines no update 
 309:C:/Users/Lenovo/workspace/dave_workspace/SOLAR_TOWER/Libraries/XMCLib/inc\xmc_can.h ****   XMC_CAN_MO_STATUS_MESSAGE_LOST = CAN_MO_MOSTAT_MSGLST_Msk,                /**< CAN message is los
 310:C:/Users/Lenovo/workspace/dave_workspace/SOLAR_TOWER/Libraries/XMCLib/inc\xmc_can.h ****   XMC_CAN_MO_STATUS_MESSAGE_VALID = CAN_MO_MOSTAT_MSGVAL_Msk,               /**< Message valid */
 311:C:/Users/Lenovo/workspace/dave_workspace/SOLAR_TOWER/Libraries/XMCLib/inc\xmc_can.h ****   XMC_CAN_MO_STATUS_RX_TX_SELECTED = CAN_MO_MOSTAT_RTSEL_Msk,               /**< Transmit/Receive s
 312:C:/Users/Lenovo/workspace/dave_workspace/SOLAR_TOWER/Libraries/XMCLib/inc\xmc_can.h ****   XMC_CAN_MO_STATUS_RX_ENABLE = CAN_MO_MOSTAT_RXEN_Msk,                     /**< Receive enable */
 313:C:/Users/Lenovo/workspace/dave_workspace/SOLAR_TOWER/Libraries/XMCLib/inc\xmc_can.h ****   XMC_CAN_MO_STATUS_TX_REQUEST = CAN_MO_MOSTAT_TXRQ_Msk,                    /**< Transmit request *
 314:C:/Users/Lenovo/workspace/dave_workspace/SOLAR_TOWER/Libraries/XMCLib/inc\xmc_can.h ****   XMC_CAN_MO_STATUS_TX_ENABLE0 = CAN_MO_MOSTAT_TXEN0_Msk,                   /**< Transmit enable 0 
 315:C:/Users/Lenovo/workspace/dave_workspace/SOLAR_TOWER/Libraries/XMCLib/inc\xmc_can.h ****   XMC_CAN_MO_STATUS_TX_ENABLE1 = CAN_MO_MOSTAT_TXEN1_Msk,                   /**< Transmit enable 1 
 316:C:/Users/Lenovo/workspace/dave_workspace/SOLAR_TOWER/Libraries/XMCLib/inc\xmc_can.h ****   XMC_CAN_MO_STATUS_MESSAGE_DIRECTION = CAN_MO_MOSTAT_DIR_Msk,              /**< Message direction 
 317:C:/Users/Lenovo/workspace/dave_workspace/SOLAR_TOWER/Libraries/XMCLib/inc\xmc_can.h ****   XMC_CAN_MO_STATUS_LIST = CAN_MO_MOSTAT_LIST_Msk,                          /**< List allocation */
 318:C:/Users/Lenovo/workspace/dave_workspace/SOLAR_TOWER/Libraries/XMCLib/inc\xmc_can.h ****   XMC_CAN_MO_STATUS_POINTER_TO_PREVIOUS_MO = CAN_MO_MOSTAT_PPREV_Msk,     /**< Pointer to previous 
 319:C:/Users/Lenovo/workspace/dave_workspace/SOLAR_TOWER/Libraries/XMCLib/inc\xmc_can.h ****   XMC_CAN_MO_STATUS_POINTER_TO_NEXT_MO = (int32_t)CAN_MO_MOSTAT_PNEXT_Msk   /**< Pointer to next Me
 320:C:/Users/Lenovo/workspace/dave_workspace/SOLAR_TOWER/Libraries/XMCLib/inc\xmc_can.h **** } XMC_CAN_MO_STATUS_t;
 321:C:/Users/Lenovo/workspace/dave_workspace/SOLAR_TOWER/Libraries/XMCLib/inc\xmc_can.h **** 
 322:C:/Users/Lenovo/workspace/dave_workspace/SOLAR_TOWER/Libraries/XMCLib/inc\xmc_can.h **** /**
 323:C:/Users/Lenovo/workspace/dave_workspace/SOLAR_TOWER/Libraries/XMCLib/inc\xmc_can.h ****  * Defines mask value for CAN Node status. Use type \a XMC_CAN_NODE_STATUS_t for this enum.
 324:C:/Users/Lenovo/workspace/dave_workspace/SOLAR_TOWER/Libraries/XMCLib/inc\xmc_can.h ****  */
 325:C:/Users/Lenovo/workspace/dave_workspace/SOLAR_TOWER/Libraries/XMCLib/inc\xmc_can.h **** typedef enum XMC_CAN_NODE_STATUS
 326:C:/Users/Lenovo/workspace/dave_workspace/SOLAR_TOWER/Libraries/XMCLib/inc\xmc_can.h **** {
 327:C:/Users/Lenovo/workspace/dave_workspace/SOLAR_TOWER/Libraries/XMCLib/inc\xmc_can.h ****   XMC_CAN_NODE_STATUS_LAST_ERROR_CODE = CAN_NODE_NSR_LEC_Msk,       /**< Last Error Code */
 328:C:/Users/Lenovo/workspace/dave_workspace/SOLAR_TOWER/Libraries/XMCLib/inc\xmc_can.h ****   XMC_CAN_NODE_STATUS_TX_OK = CAN_NODE_NSR_TXOK_Msk,                /**< Message transmitted succes
 329:C:/Users/Lenovo/workspace/dave_workspace/SOLAR_TOWER/Libraries/XMCLib/inc\xmc_can.h ****   XMC_CAN_NODE_STATUS_RX_OK = CAN_NODE_NSR_RXOK_Msk,                /**< Message received successfu
 330:C:/Users/Lenovo/workspace/dave_workspace/SOLAR_TOWER/Libraries/XMCLib/inc\xmc_can.h ****   XMC_CAN_NODE_STATUS_ALERT_WARNING = CAN_NODE_NSR_ALERT_Msk,       /**< Alert warning */
 331:C:/Users/Lenovo/workspace/dave_workspace/SOLAR_TOWER/Libraries/XMCLib/inc\xmc_can.h ****   XMC_CAN_NODE_STATUS_ERROR_WARNING_STATUS = CAN_NODE_NSR_EWRN_Msk, /**< Error warning status */
 332:C:/Users/Lenovo/workspace/dave_workspace/SOLAR_TOWER/Libraries/XMCLib/inc\xmc_can.h ****   XMC_CAN_NODE_STATUS_BUS_OFF= CAN_NODE_NSR_BOFF_Msk,       /**< Bus-off status */
 333:C:/Users/Lenovo/workspace/dave_workspace/SOLAR_TOWER/Libraries/XMCLib/inc\xmc_can.h ****   XMC_CAN_NODE_STATUS_LIST_LENGTH_ERROR = CAN_NODE_NSR_LLE_Msk,     /**< List length error */
 334:C:/Users/Lenovo/workspace/dave_workspace/SOLAR_TOWER/Libraries/XMCLib/inc\xmc_can.h ****   XMC_CAN_NODE_STATUS_LIST_OBJECT_ERROR = CAN_NODE_NSR_LOE_Msk,     /**< List object error */
 335:C:/Users/Lenovo/workspace/dave_workspace/SOLAR_TOWER/Libraries/XMCLib/inc\xmc_can.h **** #if !defined(MULTICAN_PLUS)
 336:C:/Users/Lenovo/workspace/dave_workspace/SOLAR_TOWER/Libraries/XMCLib/inc\xmc_can.h ****   XMC_CAN_NODE_STATUS_SUSPENDED_ACK = CAN_NODE_NSR_SUSACK_Msk       /**< Suspend Acknowledge */
 337:C:/Users/Lenovo/workspace/dave_workspace/SOLAR_TOWER/Libraries/XMCLib/inc\xmc_can.h **** #endif
 338:C:/Users/Lenovo/workspace/dave_workspace/SOLAR_TOWER/Libraries/XMCLib/inc\xmc_can.h **** } XMC_CAN_NODE_STATUS_t;
 339:C:/Users/Lenovo/workspace/dave_workspace/SOLAR_TOWER/Libraries/XMCLib/inc\xmc_can.h **** 
 340:C:/Users/Lenovo/workspace/dave_workspace/SOLAR_TOWER/Libraries/XMCLib/inc\xmc_can.h **** /**
 341:C:/Users/Lenovo/workspace/dave_workspace/SOLAR_TOWER/Libraries/XMCLib/inc\xmc_can.h ****  * Defines mask value for CAN Node control like initialization, node disable and analyzer mode .
 342:C:/Users/Lenovo/workspace/dave_workspace/SOLAR_TOWER/Libraries/XMCLib/inc\xmc_can.h ****  * Use type \a XMC_CAN_NODE_CONTROL_t for this enum.
 343:C:/Users/Lenovo/workspace/dave_workspace/SOLAR_TOWER/Libraries/XMCLib/inc\xmc_can.h ****  */
 344:C:/Users/Lenovo/workspace/dave_workspace/SOLAR_TOWER/Libraries/XMCLib/inc\xmc_can.h **** typedef enum XMC_CAN_NODE_CONTROL
 345:C:/Users/Lenovo/workspace/dave_workspace/SOLAR_TOWER/Libraries/XMCLib/inc\xmc_can.h **** {
 346:C:/Users/Lenovo/workspace/dave_workspace/SOLAR_TOWER/Libraries/XMCLib/inc\xmc_can.h ****   XMC_CAN_NODE_CONTROL_NODE_INIT = CAN_NODE_NCR_INIT_Msk,            /**< Node initialization */
 347:C:/Users/Lenovo/workspace/dave_workspace/SOLAR_TOWER/Libraries/XMCLib/inc\xmc_can.h ****   XMC_CAN_NODE_CONTROL_TX_INT_ENABLE = CAN_NODE_NCR_TRIE_Msk,        /**< Transfer event enable */
 348:C:/Users/Lenovo/workspace/dave_workspace/SOLAR_TOWER/Libraries/XMCLib/inc\xmc_can.h ****   XMC_CAN_NODE_CONTROL_LEC_INT_ENABLE = CAN_NODE_NCR_LECIE_Msk,      /**< LEC Indicated Error Event
 349:C:/Users/Lenovo/workspace/dave_workspace/SOLAR_TOWER/Libraries/XMCLib/inc\xmc_can.h ****   XMC_CAN_NODE_CONTROL_ALERT_INT_ENABLE = CAN_NODE_NCR_ALIE_Msk,     /**< Alert Event Enable */
 350:C:/Users/Lenovo/workspace/dave_workspace/SOLAR_TOWER/Libraries/XMCLib/inc\xmc_can.h ****   XMC_CAN_NODE_CONTROL_CAN_DISABLE = CAN_NODE_NCR_CANDIS_Msk,        /**< CAN disable */
 351:C:/Users/Lenovo/workspace/dave_workspace/SOLAR_TOWER/Libraries/XMCLib/inc\xmc_can.h ****   XMC_CAN_NODE_CONTROL_CONF_CHANGE_ENABLE= CAN_NODE_NCR_CCE_Msk,     /**< Configuration change enab
 352:C:/Users/Lenovo/workspace/dave_workspace/SOLAR_TOWER/Libraries/XMCLib/inc\xmc_can.h ****   XMC_CAN_NODE_CONTROL_CAN_ANALYZER_NODEDE = CAN_NODE_NCR_CALM_Msk,  /**< CAN Analyzer mode */
 353:C:/Users/Lenovo/workspace/dave_workspace/SOLAR_TOWER/Libraries/XMCLib/inc\xmc_can.h **** #if !defined(MULTICAN_PLUS)
 354:C:/Users/Lenovo/workspace/dave_workspace/SOLAR_TOWER/Libraries/XMCLib/inc\xmc_can.h ****   XMC_CAN_NODE_CONTROL_SUSPENDED_ENABLE = CAN_NODE_NCR_SUSEN_Msk     /**< Suspend Enable */
 355:C:/Users/Lenovo/workspace/dave_workspace/SOLAR_TOWER/Libraries/XMCLib/inc\xmc_can.h **** #endif
 356:C:/Users/Lenovo/workspace/dave_workspace/SOLAR_TOWER/Libraries/XMCLib/inc\xmc_can.h **** } XMC_CAN_NODE_CONTROL_t;
 357:C:/Users/Lenovo/workspace/dave_workspace/SOLAR_TOWER/Libraries/XMCLib/inc\xmc_can.h **** 
 358:C:/Users/Lenovo/workspace/dave_workspace/SOLAR_TOWER/Libraries/XMCLib/inc\xmc_can.h **** /**
 359:C:/Users/Lenovo/workspace/dave_workspace/SOLAR_TOWER/Libraries/XMCLib/inc\xmc_can.h ****  * Defines mask value for CAN Node events. Use type \a XMC_CAN_NODE_EVENT_t for this enum.
 360:C:/Users/Lenovo/workspace/dave_workspace/SOLAR_TOWER/Libraries/XMCLib/inc\xmc_can.h ****  */
 361:C:/Users/Lenovo/workspace/dave_workspace/SOLAR_TOWER/Libraries/XMCLib/inc\xmc_can.h **** typedef enum XMC_CAN_NODE_EVENT
 362:C:/Users/Lenovo/workspace/dave_workspace/SOLAR_TOWER/Libraries/XMCLib/inc\xmc_can.h **** {
 363:C:/Users/Lenovo/workspace/dave_workspace/SOLAR_TOWER/Libraries/XMCLib/inc\xmc_can.h ****   XMC_CAN_NODE_EVENT_TX_INT = CAN_NODE_NCR_TRIE_Msk,   /**< Node Transfer OK Event */
 364:C:/Users/Lenovo/workspace/dave_workspace/SOLAR_TOWER/Libraries/XMCLib/inc\xmc_can.h ****   XMC_CAN_NODE_EVENT_ALERT = CAN_NODE_NCR_ALIE_Msk,    /**< Node Alert Event */
 365:C:/Users/Lenovo/workspace/dave_workspace/SOLAR_TOWER/Libraries/XMCLib/inc\xmc_can.h ****   XMC_CAN_NODE_EVENT_LEC = CAN_NODE_NCR_LECIE_Msk,     /**< Last Error code Event */
 366:C:/Users/Lenovo/workspace/dave_workspace/SOLAR_TOWER/Libraries/XMCLib/inc\xmc_can.h ****   XMC_CAN_NODE_EVENT_CFCIE = CAN_NODE_NFCR_CFCIE_Msk   /**< CAN Frame Count Event  */
 367:C:/Users/Lenovo/workspace/dave_workspace/SOLAR_TOWER/Libraries/XMCLib/inc\xmc_can.h **** } XMC_CAN_NODE_EVENT_t;
 368:C:/Users/Lenovo/workspace/dave_workspace/SOLAR_TOWER/Libraries/XMCLib/inc\xmc_can.h **** 
 369:C:/Users/Lenovo/workspace/dave_workspace/SOLAR_TOWER/Libraries/XMCLib/inc\xmc_can.h **** /**
 370:C:/Users/Lenovo/workspace/dave_workspace/SOLAR_TOWER/Libraries/XMCLib/inc\xmc_can.h ****  * Defines mask value for CAN node pointer events position. Use type \a XMC_CAN_NODE_POINTER_EVENT_
 371:C:/Users/Lenovo/workspace/dave_workspace/SOLAR_TOWER/Libraries/XMCLib/inc\xmc_can.h ****  */
 372:C:/Users/Lenovo/workspace/dave_workspace/SOLAR_TOWER/Libraries/XMCLib/inc\xmc_can.h **** typedef enum XMC_CAN_NODE_POINTER_EVENT
 373:C:/Users/Lenovo/workspace/dave_workspace/SOLAR_TOWER/Libraries/XMCLib/inc\xmc_can.h **** {
 374:C:/Users/Lenovo/workspace/dave_workspace/SOLAR_TOWER/Libraries/XMCLib/inc\xmc_can.h ****   XMC_CAN_NODE_POINTER_EVENT_ALERT = CAN_NODE_NIPR_ALINP_Pos,           /**< Node Alert Event node 
 375:C:/Users/Lenovo/workspace/dave_workspace/SOLAR_TOWER/Libraries/XMCLib/inc\xmc_can.h ****   XMC_CAN_NODE_POINTER_EVENT_LEC = CAN_NODE_NIPR_LECINP_Pos,            /**< Last Error code Event 
 376:C:/Users/Lenovo/workspace/dave_workspace/SOLAR_TOWER/Libraries/XMCLib/inc\xmc_can.h ****   XMC_CAN_NODE_POINTER_EVENT_TRANSFER_OK = CAN_NODE_NIPR_TRINP_Pos,     /**< Transmit Event node po
 377:C:/Users/Lenovo/workspace/dave_workspace/SOLAR_TOWER/Libraries/XMCLib/inc\xmc_can.h ****   XMC_CAN_NODE_POINTER_EVENT_FRAME_COUNTER = CAN_NODE_NIPR_CFCINP_Pos   /**< CAN Frame Count Event 
 378:C:/Users/Lenovo/workspace/dave_workspace/SOLAR_TOWER/Libraries/XMCLib/inc\xmc_can.h **** } XMC_CAN_NODE_POINTER_EVENT_t;
 379:C:/Users/Lenovo/workspace/dave_workspace/SOLAR_TOWER/Libraries/XMCLib/inc\xmc_can.h **** 
 380:C:/Users/Lenovo/workspace/dave_workspace/SOLAR_TOWER/Libraries/XMCLib/inc\xmc_can.h **** /**
 381:C:/Users/Lenovo/workspace/dave_workspace/SOLAR_TOWER/Libraries/XMCLib/inc\xmc_can.h ****  * Defines CAN Message Object event node pointer position. Use type \a XMC_CAN_MO_POINTER_EVENT_t f
 382:C:/Users/Lenovo/workspace/dave_workspace/SOLAR_TOWER/Libraries/XMCLib/inc\xmc_can.h ****  */
 383:C:/Users/Lenovo/workspace/dave_workspace/SOLAR_TOWER/Libraries/XMCLib/inc\xmc_can.h **** typedef enum XMC_CAN_MO_POINTER_EVENT
 384:C:/Users/Lenovo/workspace/dave_workspace/SOLAR_TOWER/Libraries/XMCLib/inc\xmc_can.h **** {
 385:C:/Users/Lenovo/workspace/dave_workspace/SOLAR_TOWER/Libraries/XMCLib/inc\xmc_can.h ****   XMC_CAN_MO_POINTER_EVENT_TRANSMIT = CAN_MO_MOIPR_TXINP_Pos,     /**< Transmit Event node pointer 
 386:C:/Users/Lenovo/workspace/dave_workspace/SOLAR_TOWER/Libraries/XMCLib/inc\xmc_can.h ****   XMC_CAN_MO_POINTER_EVENT_RECEIVE = CAN_MO_MOIPR_RXINP_Pos       /**< Receive Event node pointer *
 387:C:/Users/Lenovo/workspace/dave_workspace/SOLAR_TOWER/Libraries/XMCLib/inc\xmc_can.h **** } XMC_CAN_MO_POINTER_EVENT_t;
 388:C:/Users/Lenovo/workspace/dave_workspace/SOLAR_TOWER/Libraries/XMCLib/inc\xmc_can.h **** 
 389:C:/Users/Lenovo/workspace/dave_workspace/SOLAR_TOWER/Libraries/XMCLib/inc\xmc_can.h **** /**
 390:C:/Users/Lenovo/workspace/dave_workspace/SOLAR_TOWER/Libraries/XMCLib/inc\xmc_can.h ****  * Defines mask value for CAN Message Object event type. Use type \a XMC_CAN_MO_EVENT_t for this en
 391:C:/Users/Lenovo/workspace/dave_workspace/SOLAR_TOWER/Libraries/XMCLib/inc\xmc_can.h ****  */
 392:C:/Users/Lenovo/workspace/dave_workspace/SOLAR_TOWER/Libraries/XMCLib/inc\xmc_can.h **** typedef enum XMC_CAN_MO_EVENT
 393:C:/Users/Lenovo/workspace/dave_workspace/SOLAR_TOWER/Libraries/XMCLib/inc\xmc_can.h **** {
 394:C:/Users/Lenovo/workspace/dave_workspace/SOLAR_TOWER/Libraries/XMCLib/inc\xmc_can.h ****   XMC_CAN_MO_EVENT_TRANSMIT = CAN_MO_MOFCR_TXIE_Msk,  /**< Message Object transmit event */
 395:C:/Users/Lenovo/workspace/dave_workspace/SOLAR_TOWER/Libraries/XMCLib/inc\xmc_can.h ****   XMC_CAN_MO_EVENT_RECEIVE = CAN_MO_MOFCR_RXIE_Msk,   /**< Message Object receive event */
 396:C:/Users/Lenovo/workspace/dave_workspace/SOLAR_TOWER/Libraries/XMCLib/inc\xmc_can.h ****   XMC_CAN_MO_EVENT_OVERFLOW = CAN_MO_MOFCR_OVIE_Msk,  /**< Message Object overflow event */
 397:C:/Users/Lenovo/workspace/dave_workspace/SOLAR_TOWER/Libraries/XMCLib/inc\xmc_can.h **** } XMC_CAN_MO_EVENT_t;
 398:C:/Users/Lenovo/workspace/dave_workspace/SOLAR_TOWER/Libraries/XMCLib/inc\xmc_can.h **** 
 399:C:/Users/Lenovo/workspace/dave_workspace/SOLAR_TOWER/Libraries/XMCLib/inc\xmc_can.h **** /**
 400:C:/Users/Lenovo/workspace/dave_workspace/SOLAR_TOWER/Libraries/XMCLib/inc\xmc_can.h ****  * Defines the possible receive inputs. Use type \a XMC_CAN_NODE_RECEIVE_INPUT_t for this enum.
 401:C:/Users/Lenovo/workspace/dave_workspace/SOLAR_TOWER/Libraries/XMCLib/inc\xmc_can.h ****  */
 402:C:/Users/Lenovo/workspace/dave_workspace/SOLAR_TOWER/Libraries/XMCLib/inc\xmc_can.h **** typedef enum XMC_CAN_NODE_RECEIVE_INPUT
 403:C:/Users/Lenovo/workspace/dave_workspace/SOLAR_TOWER/Libraries/XMCLib/inc\xmc_can.h **** {
 404:C:/Users/Lenovo/workspace/dave_workspace/SOLAR_TOWER/Libraries/XMCLib/inc\xmc_can.h ****   XMC_CAN_NODE_RECEIVE_INPUT_RXDCA,   /**< CAN Receive Input A */
 405:C:/Users/Lenovo/workspace/dave_workspace/SOLAR_TOWER/Libraries/XMCLib/inc\xmc_can.h ****   XMC_CAN_NODE_RECEIVE_INPUT_RXDCB,   /**< CAN Receive Input B */
 406:C:/Users/Lenovo/workspace/dave_workspace/SOLAR_TOWER/Libraries/XMCLib/inc\xmc_can.h ****   XMC_CAN_NODE_RECEIVE_INPUT_RXDCC,   /**< CAN Receive Input C */
 407:C:/Users/Lenovo/workspace/dave_workspace/SOLAR_TOWER/Libraries/XMCLib/inc\xmc_can.h ****   XMC_CAN_NODE_RECEIVE_INPUT_RXDCD,   /**< CAN Receive Input D */
 408:C:/Users/Lenovo/workspace/dave_workspace/SOLAR_TOWER/Libraries/XMCLib/inc\xmc_can.h ****   XMC_CAN_NODE_RECEIVE_INPUT_RXDCE,   /**< CAN Receive Input E */
 409:C:/Users/Lenovo/workspace/dave_workspace/SOLAR_TOWER/Libraries/XMCLib/inc\xmc_can.h ****   XMC_CAN_NODE_RECEIVE_INPUT_RXDCF,   /**< CAN Receive Input F */
 410:C:/Users/Lenovo/workspace/dave_workspace/SOLAR_TOWER/Libraries/XMCLib/inc\xmc_can.h ****   XMC_CAN_NODE_RECEIVE_INPUT_RXDCG,   /**< CAN Receive Input G */
 411:C:/Users/Lenovo/workspace/dave_workspace/SOLAR_TOWER/Libraries/XMCLib/inc\xmc_can.h ****   XMC_CAN_NODE_RECEIVE_INPUT_RXDCH    /**< CAN Receive Input H */
 412:C:/Users/Lenovo/workspace/dave_workspace/SOLAR_TOWER/Libraries/XMCLib/inc\xmc_can.h **** } XMC_CAN_NODE_RECEIVE_INPUT_t;
 413:C:/Users/Lenovo/workspace/dave_workspace/SOLAR_TOWER/Libraries/XMCLib/inc\xmc_can.h **** 
 414:C:/Users/Lenovo/workspace/dave_workspace/SOLAR_TOWER/Libraries/XMCLib/inc\xmc_can.h **** /**
 415:C:/Users/Lenovo/workspace/dave_workspace/SOLAR_TOWER/Libraries/XMCLib/inc\xmc_can.h ****  * Defines last error transfer direction. Use type \a XMC_CAN_NODE_LAST_ERROR_DIR_t for this enum.
 416:C:/Users/Lenovo/workspace/dave_workspace/SOLAR_TOWER/Libraries/XMCLib/inc\xmc_can.h ****  */
 417:C:/Users/Lenovo/workspace/dave_workspace/SOLAR_TOWER/Libraries/XMCLib/inc\xmc_can.h **** typedef enum XMC_CAN_NODE_LAST_ERROR_DIR
 418:C:/Users/Lenovo/workspace/dave_workspace/SOLAR_TOWER/Libraries/XMCLib/inc\xmc_can.h **** {
 419:C:/Users/Lenovo/workspace/dave_workspace/SOLAR_TOWER/Libraries/XMCLib/inc\xmc_can.h ****   XMC_CAN_NODE_LAST_ERROR_DIR_WHILE_NODE_RECEPCION,    /**< The last error occurred while the CAN n
 420:C:/Users/Lenovo/workspace/dave_workspace/SOLAR_TOWER/Libraries/XMCLib/inc\xmc_can.h ****   XMC_CAN_NODE_LAST_ERROR_DIR_WHILE_NODE_TRANSMISSION  /**< The last error occurred while the CAN n
 421:C:/Users/Lenovo/workspace/dave_workspace/SOLAR_TOWER/Libraries/XMCLib/inc\xmc_can.h **** } XMC_CAN_NODE_LAST_ERROR_DIR_t;
 422:C:/Users/Lenovo/workspace/dave_workspace/SOLAR_TOWER/Libraries/XMCLib/inc\xmc_can.h **** 
 423:C:/Users/Lenovo/workspace/dave_workspace/SOLAR_TOWER/Libraries/XMCLib/inc\xmc_can.h **** 
 424:C:/Users/Lenovo/workspace/dave_workspace/SOLAR_TOWER/Libraries/XMCLib/inc\xmc_can.h **** /**
 425:C:/Users/Lenovo/workspace/dave_workspace/SOLAR_TOWER/Libraries/XMCLib/inc\xmc_can.h ****  * Defines last error increment. Use type \a XMC_CAN_NODE_LAST_ERROR_INC_t for this enum.
 426:C:/Users/Lenovo/workspace/dave_workspace/SOLAR_TOWER/Libraries/XMCLib/inc\xmc_can.h ****  */
 427:C:/Users/Lenovo/workspace/dave_workspace/SOLAR_TOWER/Libraries/XMCLib/inc\xmc_can.h **** typedef enum XMC_CAN_NODE_LAST_ERROR_INC
 428:C:/Users/Lenovo/workspace/dave_workspace/SOLAR_TOWER/Libraries/XMCLib/inc\xmc_can.h **** {
 429:C:/Users/Lenovo/workspace/dave_workspace/SOLAR_TOWER/Libraries/XMCLib/inc\xmc_can.h ****   XMC_CAN_NODE_LAST_ERROR_INC_1, /**< The last error led to an error counter increment of 1. */
 430:C:/Users/Lenovo/workspace/dave_workspace/SOLAR_TOWER/Libraries/XMCLib/inc\xmc_can.h ****   XMC_CAN_NODE_LAST_ERROR_INC_8  /**< The last error led to an error counter increment of 8. */
 431:C:/Users/Lenovo/workspace/dave_workspace/SOLAR_TOWER/Libraries/XMCLib/inc\xmc_can.h **** } XMC_CAN_NODE_LAST_ERROR_INC_t;
 432:C:/Users/Lenovo/workspace/dave_workspace/SOLAR_TOWER/Libraries/XMCLib/inc\xmc_can.h **** 
 433:C:/Users/Lenovo/workspace/dave_workspace/SOLAR_TOWER/Libraries/XMCLib/inc\xmc_can.h **** /**
 434:C:/Users/Lenovo/workspace/dave_workspace/SOLAR_TOWER/Libraries/XMCLib/inc\xmc_can.h ****  * Defines interrupt request on interrupt output line INT_O[n]. Use type \a XMC_CAN_NODE_INTERRUPT_
 435:C:/Users/Lenovo/workspace/dave_workspace/SOLAR_TOWER/Libraries/XMCLib/inc\xmc_can.h ****  */
 436:C:/Users/Lenovo/workspace/dave_workspace/SOLAR_TOWER/Libraries/XMCLib/inc\xmc_can.h **** typedef enum XMC_CAN_NODE_INTERRUPT_TRIGGER
 437:C:/Users/Lenovo/workspace/dave_workspace/SOLAR_TOWER/Libraries/XMCLib/inc\xmc_can.h **** {
 438:C:/Users/Lenovo/workspace/dave_workspace/SOLAR_TOWER/Libraries/XMCLib/inc\xmc_can.h ****   XMC_CAN_NODE_INTR_TRIGGER_0 = 0x1U,
 439:C:/Users/Lenovo/workspace/dave_workspace/SOLAR_TOWER/Libraries/XMCLib/inc\xmc_can.h ****   XMC_CAN_NODE_INTR_TRIGGER_1 = 0x2U,
 440:C:/Users/Lenovo/workspace/dave_workspace/SOLAR_TOWER/Libraries/XMCLib/inc\xmc_can.h ****   XMC_CAN_NODE_INTR_TRIGGER_2 = 0x4U,
 441:C:/Users/Lenovo/workspace/dave_workspace/SOLAR_TOWER/Libraries/XMCLib/inc\xmc_can.h ****   XMC_CAN_NODE_INTR_TRIGGER_3 = 0x8U,
 442:C:/Users/Lenovo/workspace/dave_workspace/SOLAR_TOWER/Libraries/XMCLib/inc\xmc_can.h ****   XMC_CAN_NODE_INTR_TRIGGER_4 = 0x16U,
 443:C:/Users/Lenovo/workspace/dave_workspace/SOLAR_TOWER/Libraries/XMCLib/inc\xmc_can.h ****   XMC_CAN_NODE_INTR_TRIGGER_5 = 0x32U,
 444:C:/Users/Lenovo/workspace/dave_workspace/SOLAR_TOWER/Libraries/XMCLib/inc\xmc_can.h ****   XMC_CAN_NODE_INTR_TRIGGER_6 = 0x64U,
 445:C:/Users/Lenovo/workspace/dave_workspace/SOLAR_TOWER/Libraries/XMCLib/inc\xmc_can.h ****   XMC_CAN_NODE_INTR_TRIGGER_7 = 0x128U,
 446:C:/Users/Lenovo/workspace/dave_workspace/SOLAR_TOWER/Libraries/XMCLib/inc\xmc_can.h **** } XMC_CAN_NODE_INTERRUPT_TRIGGER_t;
 447:C:/Users/Lenovo/workspace/dave_workspace/SOLAR_TOWER/Libraries/XMCLib/inc\xmc_can.h **** 
 448:C:/Users/Lenovo/workspace/dave_workspace/SOLAR_TOWER/Libraries/XMCLib/inc\xmc_can.h **** /**
 449:C:/Users/Lenovo/workspace/dave_workspace/SOLAR_TOWER/Libraries/XMCLib/inc\xmc_can.h ****  * Defines the Clock source used for the MCAN baudrate generator 
 450:C:/Users/Lenovo/workspace/dave_workspace/SOLAR_TOWER/Libraries/XMCLib/inc\xmc_can.h ****  */
 451:C:/Users/Lenovo/workspace/dave_workspace/SOLAR_TOWER/Libraries/XMCLib/inc\xmc_can.h **** typedef enum XMC_CAN_CANCLKSRC
 452:C:/Users/Lenovo/workspace/dave_workspace/SOLAR_TOWER/Libraries/XMCLib/inc\xmc_can.h **** {  
 453:C:/Users/Lenovo/workspace/dave_workspace/SOLAR_TOWER/Libraries/XMCLib/inc\xmc_can.h **** #if defined(MULTICAN_PLUS) || defined(DOXYGEN)
 454:C:/Users/Lenovo/workspace/dave_workspace/SOLAR_TOWER/Libraries/XMCLib/inc\xmc_can.h **** #if (UC_FAMILY == XMC4)
 455:C:/Users/Lenovo/workspace/dave_workspace/SOLAR_TOWER/Libraries/XMCLib/inc\xmc_can.h ****   XMC_CAN_CANCLKSRC_FPERI = 0x1U, /**< Use peripheral clock as MCAN baudrate generator input clock.
 456:C:/Users/Lenovo/workspace/dave_workspace/SOLAR_TOWER/Libraries/XMCLib/inc\xmc_can.h **** #else
 457:C:/Users/Lenovo/workspace/dave_workspace/SOLAR_TOWER/Libraries/XMCLib/inc\xmc_can.h ****   XMC_CAN_CANCLKSRC_MCLK = 0x1U, /**< Use peripheral clock as MCAN baudrate generator input clock. 
 458:C:/Users/Lenovo/workspace/dave_workspace/SOLAR_TOWER/Libraries/XMCLib/inc\xmc_can.h **** #endif
 459:C:/Users/Lenovo/workspace/dave_workspace/SOLAR_TOWER/Libraries/XMCLib/inc\xmc_can.h ****   XMC_CAN_CANCLKSRC_FOHP = 0x2U, /**< Use high performance oscillator (fOHP) as MCAN baudrate gener
 460:C:/Users/Lenovo/workspace/dave_workspace/SOLAR_TOWER/Libraries/XMCLib/inc\xmc_can.h **** #else
 461:C:/Users/Lenovo/workspace/dave_workspace/SOLAR_TOWER/Libraries/XMCLib/inc\xmc_can.h ****   XMC_CAN_CANCLKSRC_FPERI = 0x1U, /**< Use peripheral clock as MCAN baudrate generator input clock.
 462:C:/Users/Lenovo/workspace/dave_workspace/SOLAR_TOWER/Libraries/XMCLib/inc\xmc_can.h **** #endif
 463:C:/Users/Lenovo/workspace/dave_workspace/SOLAR_TOWER/Libraries/XMCLib/inc\xmc_can.h **** } XMC_CAN_CANCLKSRC_t;
 464:C:/Users/Lenovo/workspace/dave_workspace/SOLAR_TOWER/Libraries/XMCLib/inc\xmc_can.h **** 
 465:C:/Users/Lenovo/workspace/dave_workspace/SOLAR_TOWER/Libraries/XMCLib/inc\xmc_can.h **** /**************************************************************************************************
 466:C:/Users/Lenovo/workspace/dave_workspace/SOLAR_TOWER/Libraries/XMCLib/inc\xmc_can.h ****  * DATA STRUCTURES
 467:C:/Users/Lenovo/workspace/dave_workspace/SOLAR_TOWER/Libraries/XMCLib/inc\xmc_can.h ****  **************************************************************************************************
 468:C:/Users/Lenovo/workspace/dave_workspace/SOLAR_TOWER/Libraries/XMCLib/inc\xmc_can.h **** /**
 469:C:/Users/Lenovo/workspace/dave_workspace/SOLAR_TOWER/Libraries/XMCLib/inc\xmc_can.h ****  * Defines CAN node Nominal Bit Time. Use type \a XMC_CAN_NODE_NOMINAL_BIT_TIME_CONFIG_t for this s
 470:C:/Users/Lenovo/workspace/dave_workspace/SOLAR_TOWER/Libraries/XMCLib/inc\xmc_can.h **** */
 471:C:/Users/Lenovo/workspace/dave_workspace/SOLAR_TOWER/Libraries/XMCLib/inc\xmc_can.h **** typedef struct XMC_CAN_NODE_NOMINAL_BIT_TIME_CONFIG
 472:C:/Users/Lenovo/workspace/dave_workspace/SOLAR_TOWER/Libraries/XMCLib/inc\xmc_can.h **** {
 473:C:/Users/Lenovo/workspace/dave_workspace/SOLAR_TOWER/Libraries/XMCLib/inc\xmc_can.h ****   uint32_t can_frequency;       /**< Frequency of the CAN module(fCAN). \a can_frequency shall be r
 474:C:/Users/Lenovo/workspace/dave_workspace/SOLAR_TOWER/Libraries/XMCLib/inc\xmc_can.h ****   uint32_t baudrate;          /**< Specifies the node baud rate. Unit: baud \a baudrate shall be ra
 475:C:/Users/Lenovo/workspace/dave_workspace/SOLAR_TOWER/Libraries/XMCLib/inc\xmc_can.h ****   uint16_t sample_point;      /**< Sample point is used to compensate mismatch between transmitter 
 476:C:/Users/Lenovo/workspace/dave_workspace/SOLAR_TOWER/Libraries/XMCLib/inc\xmc_can.h ****                    the synchronization segment. Sample point. Range = [0, 10000] with respect [0%, 
 477:C:/Users/Lenovo/workspace/dave_workspace/SOLAR_TOWER/Libraries/XMCLib/inc\xmc_can.h ****   uint16_t sjw;               /**< (Re) Synchronization Jump Width. Range:0-3 */
 478:C:/Users/Lenovo/workspace/dave_workspace/SOLAR_TOWER/Libraries/XMCLib/inc\xmc_can.h **** } XMC_CAN_NODE_NOMINAL_BIT_TIME_CONFIG_t;
 479:C:/Users/Lenovo/workspace/dave_workspace/SOLAR_TOWER/Libraries/XMCLib/inc\xmc_can.h **** 
 480:C:/Users/Lenovo/workspace/dave_workspace/SOLAR_TOWER/Libraries/XMCLib/inc\xmc_can.h **** /**
 481:C:/Users/Lenovo/workspace/dave_workspace/SOLAR_TOWER/Libraries/XMCLib/inc\xmc_can.h ****  * Defines base, top and bottom of CAN Message Object FIFO Structure. Use type \a XMC_CAN_FIFO_CONF
 482:C:/Users/Lenovo/workspace/dave_workspace/SOLAR_TOWER/Libraries/XMCLib/inc\xmc_can.h ****  * A FIFO consists of one base object and n slave objects.
 483:C:/Users/Lenovo/workspace/dave_workspace/SOLAR_TOWER/Libraries/XMCLib/inc\xmc_can.h ****  */
 484:C:/Users/Lenovo/workspace/dave_workspace/SOLAR_TOWER/Libraries/XMCLib/inc\xmc_can.h **** typedef struct XMC_CAN_FIFO_CONFIG
 485:C:/Users/Lenovo/workspace/dave_workspace/SOLAR_TOWER/Libraries/XMCLib/inc\xmc_can.h **** {
 486:C:/Users/Lenovo/workspace/dave_workspace/SOLAR_TOWER/Libraries/XMCLib/inc\xmc_can.h ****   uint8_t fifo_bottom;    /**< points to the first element(slave object) in a FIFO structure.Range 
 487:C:/Users/Lenovo/workspace/dave_workspace/SOLAR_TOWER/Libraries/XMCLib/inc\xmc_can.h ****   uint8_t fifo_top;     /**< points to the last element(slave object) in a FIFO structure. Range :0
 488:C:/Users/Lenovo/workspace/dave_workspace/SOLAR_TOWER/Libraries/XMCLib/inc\xmc_can.h ****   uint8_t fifo_base;    /**< points to the actual target object(Base object) within a FIFO/Gateway 
 489:C:/Users/Lenovo/workspace/dave_workspace/SOLAR_TOWER/Libraries/XMCLib/inc\xmc_can.h **** } XMC_CAN_FIFO_CONFIG_t;
 490:C:/Users/Lenovo/workspace/dave_workspace/SOLAR_TOWER/Libraries/XMCLib/inc\xmc_can.h **** 
 491:C:/Users/Lenovo/workspace/dave_workspace/SOLAR_TOWER/Libraries/XMCLib/inc\xmc_can.h **** /**
 492:C:/Users/Lenovo/workspace/dave_workspace/SOLAR_TOWER/Libraries/XMCLib/inc\xmc_can.h ****  * Defines CAN Gateway FIFO structure and provides additional options for gateway destination objec
 493:C:/Users/Lenovo/workspace/dave_workspace/SOLAR_TOWER/Libraries/XMCLib/inc\xmc_can.h ****  * Use type \a XMC_CAN_GATEWAY_CONFIG_t for this structure.
 494:C:/Users/Lenovo/workspace/dave_workspace/SOLAR_TOWER/Libraries/XMCLib/inc\xmc_can.h ****  */
 495:C:/Users/Lenovo/workspace/dave_workspace/SOLAR_TOWER/Libraries/XMCLib/inc\xmc_can.h **** typedef struct XMC_CAN_GATEWAY_CONFIG
 496:C:/Users/Lenovo/workspace/dave_workspace/SOLAR_TOWER/Libraries/XMCLib/inc\xmc_can.h **** {
 497:C:/Users/Lenovo/workspace/dave_workspace/SOLAR_TOWER/Libraries/XMCLib/inc\xmc_can.h ****   uint8_t gateway_bottom;       /**< points to the first element(gateway destination object) in a F
 498:C:/Users/Lenovo/workspace/dave_workspace/SOLAR_TOWER/Libraries/XMCLib/inc\xmc_can.h ****   uint8_t gateway_top;        /**< points to the last element(gateway destination object) in a FIFO
 499:C:/Users/Lenovo/workspace/dave_workspace/SOLAR_TOWER/Libraries/XMCLib/inc\xmc_can.h ****   uint8_t gateway_base;       /**< points to the actual target object within a FIFO/Gateway structu
 500:C:/Users/Lenovo/workspace/dave_workspace/SOLAR_TOWER/Libraries/XMCLib/inc\xmc_can.h ****   bool gateway_data_frame_send;   /**< TXRQ updated in the gateway destination object after the int
 501:C:/Users/Lenovo/workspace/dave_workspace/SOLAR_TOWER/Libraries/XMCLib/inc\xmc_can.h ****                                          to the gateway destination object */
 502:C:/Users/Lenovo/workspace/dave_workspace/SOLAR_TOWER/Libraries/XMCLib/inc\xmc_can.h ****   bool gateway_identifier_copy;   /**< The identifier of the gateway source object (after storing t
 503:C:/Users/Lenovo/workspace/dave_workspace/SOLAR_TOWER/Libraries/XMCLib/inc\xmc_can.h ****                                          to the gateway destination object. */
 504:C:/Users/Lenovo/workspace/dave_workspace/SOLAR_TOWER/Libraries/XMCLib/inc\xmc_can.h **** 
 505:C:/Users/Lenovo/workspace/dave_workspace/SOLAR_TOWER/Libraries/XMCLib/inc\xmc_can.h ****   bool gateway_data_length_code_copy; /**< Data length code of the gateway source object (after sto
 506:C:/Users/Lenovo/workspace/dave_workspace/SOLAR_TOWER/Libraries/XMCLib/inc\xmc_can.h ****                                            gateway destination object */
 507:C:/Users/Lenovo/workspace/dave_workspace/SOLAR_TOWER/Libraries/XMCLib/inc\xmc_can.h ****   bool gateway_data_copy;  /**< Data fields in registers MODATALn and MODATAHn of the gateway sourc
 508:C:/Users/Lenovo/workspace/dave_workspace/SOLAR_TOWER/Libraries/XMCLib/inc\xmc_can.h ****                                 are copied to the gateway destination.*/
 509:C:/Users/Lenovo/workspace/dave_workspace/SOLAR_TOWER/Libraries/XMCLib/inc\xmc_can.h **** 
 510:C:/Users/Lenovo/workspace/dave_workspace/SOLAR_TOWER/Libraries/XMCLib/inc\xmc_can.h **** } XMC_CAN_GATEWAY_CONFIG_t;
 511:C:/Users/Lenovo/workspace/dave_workspace/SOLAR_TOWER/Libraries/XMCLib/inc\xmc_can.h **** 
 512:C:/Users/Lenovo/workspace/dave_workspace/SOLAR_TOWER/Libraries/XMCLib/inc\xmc_can.h **** /**
 513:C:/Users/Lenovo/workspace/dave_workspace/SOLAR_TOWER/Libraries/XMCLib/inc\xmc_can.h **** * Defines CAN Global Initialization structure
 514:C:/Users/Lenovo/workspace/dave_workspace/SOLAR_TOWER/Libraries/XMCLib/inc\xmc_can.h **** */
 515:C:/Users/Lenovo/workspace/dave_workspace/SOLAR_TOWER/Libraries/XMCLib/inc\xmc_can.h **** typedef CAN_GLOBAL_TypeDef XMC_CAN_t;
 516:C:/Users/Lenovo/workspace/dave_workspace/SOLAR_TOWER/Libraries/XMCLib/inc\xmc_can.h **** 
 517:C:/Users/Lenovo/workspace/dave_workspace/SOLAR_TOWER/Libraries/XMCLib/inc\xmc_can.h **** /*Anonymous structure/union guard start*/
 518:C:/Users/Lenovo/workspace/dave_workspace/SOLAR_TOWER/Libraries/XMCLib/inc\xmc_can.h **** #if defined(__CC_ARM)
 519:C:/Users/Lenovo/workspace/dave_workspace/SOLAR_TOWER/Libraries/XMCLib/inc\xmc_can.h ****   #pragma push
 520:C:/Users/Lenovo/workspace/dave_workspace/SOLAR_TOWER/Libraries/XMCLib/inc\xmc_can.h ****   #pragma anon_unions
 521:C:/Users/Lenovo/workspace/dave_workspace/SOLAR_TOWER/Libraries/XMCLib/inc\xmc_can.h **** #elif defined(__TASKING__)
 522:C:/Users/Lenovo/workspace/dave_workspace/SOLAR_TOWER/Libraries/XMCLib/inc\xmc_can.h ****   #pragma warning 586
 523:C:/Users/Lenovo/workspace/dave_workspace/SOLAR_TOWER/Libraries/XMCLib/inc\xmc_can.h **** #endif
 524:C:/Users/Lenovo/workspace/dave_workspace/SOLAR_TOWER/Libraries/XMCLib/inc\xmc_can.h **** 
 525:C:/Users/Lenovo/workspace/dave_workspace/SOLAR_TOWER/Libraries/XMCLib/inc\xmc_can.h **** /**
 526:C:/Users/Lenovo/workspace/dave_workspace/SOLAR_TOWER/Libraries/XMCLib/inc\xmc_can.h ****  * Defines frame counter configuration. Use type \a XMC_CAN_NODE_FRAME_COUNTER_t for this structure
 527:C:/Users/Lenovo/workspace/dave_workspace/SOLAR_TOWER/Libraries/XMCLib/inc\xmc_can.h ****  * It provides configuration of frame counter that counts transmitted/received CAN frames or obtain
 528:C:/Users/Lenovo/workspace/dave_workspace/SOLAR_TOWER/Libraries/XMCLib/inc\xmc_can.h ****  * when a frame has been started to transmit or be received by the CAN node.
 529:C:/Users/Lenovo/workspace/dave_workspace/SOLAR_TOWER/Libraries/XMCLib/inc\xmc_can.h **** */
 530:C:/Users/Lenovo/workspace/dave_workspace/SOLAR_TOWER/Libraries/XMCLib/inc\xmc_can.h **** typedef struct XMC_CAN_NODE_FRAME_COUNTER
 531:C:/Users/Lenovo/workspace/dave_workspace/SOLAR_TOWER/Libraries/XMCLib/inc\xmc_can.h **** {
 532:C:/Users/Lenovo/workspace/dave_workspace/SOLAR_TOWER/Libraries/XMCLib/inc\xmc_can.h **** 
 533:C:/Users/Lenovo/workspace/dave_workspace/SOLAR_TOWER/Libraries/XMCLib/inc\xmc_can.h ****   union{
 534:C:/Users/Lenovo/workspace/dave_workspace/SOLAR_TOWER/Libraries/XMCLib/inc\xmc_can.h ****     struct{
 535:C:/Users/Lenovo/workspace/dave_workspace/SOLAR_TOWER/Libraries/XMCLib/inc\xmc_can.h ****       uint32_t : 16;
 536:C:/Users/Lenovo/workspace/dave_workspace/SOLAR_TOWER/Libraries/XMCLib/inc\xmc_can.h ****       uint32_t can_frame_count_selection:3;   /**<   Defines function of the frame counter  */
 537:C:/Users/Lenovo/workspace/dave_workspace/SOLAR_TOWER/Libraries/XMCLib/inc\xmc_can.h ****       uint32_t can_frame_count_mode:2;      /**<   Determines the operation mode of the frame count
 538:C:/Users/Lenovo/workspace/dave_workspace/SOLAR_TOWER/Libraries/XMCLib/inc\xmc_can.h ****       uint32_t : 11;
 539:C:/Users/Lenovo/workspace/dave_workspace/SOLAR_TOWER/Libraries/XMCLib/inc\xmc_can.h ****     };
 540:C:/Users/Lenovo/workspace/dave_workspace/SOLAR_TOWER/Libraries/XMCLib/inc\xmc_can.h ****     uint32_t nfcr;
 541:C:/Users/Lenovo/workspace/dave_workspace/SOLAR_TOWER/Libraries/XMCLib/inc\xmc_can.h **** 
 542:C:/Users/Lenovo/workspace/dave_workspace/SOLAR_TOWER/Libraries/XMCLib/inc\xmc_can.h ****   };
 543:C:/Users/Lenovo/workspace/dave_workspace/SOLAR_TOWER/Libraries/XMCLib/inc\xmc_can.h **** } XMC_CAN_NODE_FRAME_COUNTER_t;
 544:C:/Users/Lenovo/workspace/dave_workspace/SOLAR_TOWER/Libraries/XMCLib/inc\xmc_can.h **** 
 545:C:/Users/Lenovo/workspace/dave_workspace/SOLAR_TOWER/Libraries/XMCLib/inc\xmc_can.h **** /**
 546:C:/Users/Lenovo/workspace/dave_workspace/SOLAR_TOWER/Libraries/XMCLib/inc\xmc_can.h ****  *Defines Node Runtime structure.
 547:C:/Users/Lenovo/workspace/dave_workspace/SOLAR_TOWER/Libraries/XMCLib/inc\xmc_can.h **** */
 548:C:/Users/Lenovo/workspace/dave_workspace/SOLAR_TOWER/Libraries/XMCLib/inc\xmc_can.h **** typedef CAN_NODE_TypeDef  XMC_CAN_NODE_t;            /**<  pointer to the Node CAN register */
 549:C:/Users/Lenovo/workspace/dave_workspace/SOLAR_TOWER/Libraries/XMCLib/inc\xmc_can.h **** 
 550:C:/Users/Lenovo/workspace/dave_workspace/SOLAR_TOWER/Libraries/XMCLib/inc\xmc_can.h **** /**
 551:C:/Users/Lenovo/workspace/dave_workspace/SOLAR_TOWER/Libraries/XMCLib/inc\xmc_can.h ****  * Defines CAN Message Object runtime elements. Use type \a XMC_CAN_MO_t for this structure.
 552:C:/Users/Lenovo/workspace/dave_workspace/SOLAR_TOWER/Libraries/XMCLib/inc\xmc_can.h ****  */
 553:C:/Users/Lenovo/workspace/dave_workspace/SOLAR_TOWER/Libraries/XMCLib/inc\xmc_can.h **** typedef struct XMC_CAN_MO
 554:C:/Users/Lenovo/workspace/dave_workspace/SOLAR_TOWER/Libraries/XMCLib/inc\xmc_can.h **** {
 555:C:/Users/Lenovo/workspace/dave_workspace/SOLAR_TOWER/Libraries/XMCLib/inc\xmc_can.h ****   CAN_MO_TypeDef *can_mo_ptr;                     /**< Pointer to the Message Object CAN register *
 556:C:/Users/Lenovo/workspace/dave_workspace/SOLAR_TOWER/Libraries/XMCLib/inc\xmc_can.h ****   union{
 557:C:/Users/Lenovo/workspace/dave_workspace/SOLAR_TOWER/Libraries/XMCLib/inc\xmc_can.h ****     struct{
 558:C:/Users/Lenovo/workspace/dave_workspace/SOLAR_TOWER/Libraries/XMCLib/inc\xmc_can.h ****       uint32_t can_identifier:29;            /**< standard (11 bit)/Extended (29 bit) message ident
 559:C:/Users/Lenovo/workspace/dave_workspace/SOLAR_TOWER/Libraries/XMCLib/inc\xmc_can.h ****       uint32_t can_id_mode:1;                /**< Standard/Extended identifier support */
 560:C:/Users/Lenovo/workspace/dave_workspace/SOLAR_TOWER/Libraries/XMCLib/inc\xmc_can.h ****       uint32_t can_priority:2;               /**< Arbitration Mode/Priority */
 561:C:/Users/Lenovo/workspace/dave_workspace/SOLAR_TOWER/Libraries/XMCLib/inc\xmc_can.h ****     };
 562:C:/Users/Lenovo/workspace/dave_workspace/SOLAR_TOWER/Libraries/XMCLib/inc\xmc_can.h ****     uint32_t mo_ar;
 563:C:/Users/Lenovo/workspace/dave_workspace/SOLAR_TOWER/Libraries/XMCLib/inc\xmc_can.h ****   };
 564:C:/Users/Lenovo/workspace/dave_workspace/SOLAR_TOWER/Libraries/XMCLib/inc\xmc_can.h ****   union{
 565:C:/Users/Lenovo/workspace/dave_workspace/SOLAR_TOWER/Libraries/XMCLib/inc\xmc_can.h ****     struct{
 566:C:/Users/Lenovo/workspace/dave_workspace/SOLAR_TOWER/Libraries/XMCLib/inc\xmc_can.h ****       uint32_t can_id_mask:29;              /**< CAN Identifier of Message Object */
 567:C:/Users/Lenovo/workspace/dave_workspace/SOLAR_TOWER/Libraries/XMCLib/inc\xmc_can.h ****       uint32_t can_ide_mask:1;              /**< Identifier Extension Bit of Message Object */
 568:C:/Users/Lenovo/workspace/dave_workspace/SOLAR_TOWER/Libraries/XMCLib/inc\xmc_can.h ****     };
 569:C:/Users/Lenovo/workspace/dave_workspace/SOLAR_TOWER/Libraries/XMCLib/inc\xmc_can.h ****     uint32_t mo_amr;
 570:C:/Users/Lenovo/workspace/dave_workspace/SOLAR_TOWER/Libraries/XMCLib/inc\xmc_can.h ****   };
 571:C:/Users/Lenovo/workspace/dave_workspace/SOLAR_TOWER/Libraries/XMCLib/inc\xmc_can.h ****   uint8_t can_data_length;                        /**< Message data length, Range:0-8 */
 572:C:/Users/Lenovo/workspace/dave_workspace/SOLAR_TOWER/Libraries/XMCLib/inc\xmc_can.h **** 
 573:C:/Users/Lenovo/workspace/dave_workspace/SOLAR_TOWER/Libraries/XMCLib/inc\xmc_can.h ****   union{
 574:C:/Users/Lenovo/workspace/dave_workspace/SOLAR_TOWER/Libraries/XMCLib/inc\xmc_can.h **** 
 575:C:/Users/Lenovo/workspace/dave_workspace/SOLAR_TOWER/Libraries/XMCLib/inc\xmc_can.h ****       uint8_t can_data_byte[8];                 /**< Each position of the array represents a data b
 576:C:/Users/Lenovo/workspace/dave_workspace/SOLAR_TOWER/Libraries/XMCLib/inc\xmc_can.h ****       uint16_t can_data_word[4];                /**< Each position of the array represents a 16 bit
 577:C:/Users/Lenovo/workspace/dave_workspace/SOLAR_TOWER/Libraries/XMCLib/inc\xmc_can.h ****       uint32_t can_data[2];                     /**< can_data[0] lower 4 bytes of the data. can_dat
 578:C:/Users/Lenovo/workspace/dave_workspace/SOLAR_TOWER/Libraries/XMCLib/inc\xmc_can.h ****                               of the data */
 579:C:/Users/Lenovo/workspace/dave_workspace/SOLAR_TOWER/Libraries/XMCLib/inc\xmc_can.h ****       uint64_t can_data_long;                   /** Data of the Message Object*/
 580:C:/Users/Lenovo/workspace/dave_workspace/SOLAR_TOWER/Libraries/XMCLib/inc\xmc_can.h ****       };
 581:C:/Users/Lenovo/workspace/dave_workspace/SOLAR_TOWER/Libraries/XMCLib/inc\xmc_can.h **** 
 582:C:/Users/Lenovo/workspace/dave_workspace/SOLAR_TOWER/Libraries/XMCLib/inc\xmc_can.h ****   XMC_CAN_MO_TYPE_t can_mo_type;                  /**<  Message Type */
 583:C:/Users/Lenovo/workspace/dave_workspace/SOLAR_TOWER/Libraries/XMCLib/inc\xmc_can.h **** 
 584:C:/Users/Lenovo/workspace/dave_workspace/SOLAR_TOWER/Libraries/XMCLib/inc\xmc_can.h **** } XMC_CAN_MO_t;
 585:C:/Users/Lenovo/workspace/dave_workspace/SOLAR_TOWER/Libraries/XMCLib/inc\xmc_can.h **** /*Anonymous structure/union guard end*/
 586:C:/Users/Lenovo/workspace/dave_workspace/SOLAR_TOWER/Libraries/XMCLib/inc\xmc_can.h **** #if defined(__CC_ARM)
 587:C:/Users/Lenovo/workspace/dave_workspace/SOLAR_TOWER/Libraries/XMCLib/inc\xmc_can.h ****   #pragma pop
 588:C:/Users/Lenovo/workspace/dave_workspace/SOLAR_TOWER/Libraries/XMCLib/inc\xmc_can.h **** #elif defined(__TASKING__)
 589:C:/Users/Lenovo/workspace/dave_workspace/SOLAR_TOWER/Libraries/XMCLib/inc\xmc_can.h ****   #pragma warning restore
 590:C:/Users/Lenovo/workspace/dave_workspace/SOLAR_TOWER/Libraries/XMCLib/inc\xmc_can.h **** #endif
 591:C:/Users/Lenovo/workspace/dave_workspace/SOLAR_TOWER/Libraries/XMCLib/inc\xmc_can.h **** /**************************************************************************************************
 592:C:/Users/Lenovo/workspace/dave_workspace/SOLAR_TOWER/Libraries/XMCLib/inc\xmc_can.h ****  * API Prototypes
 593:C:/Users/Lenovo/workspace/dave_workspace/SOLAR_TOWER/Libraries/XMCLib/inc\xmc_can.h ****  **************************************************************************************************
 594:C:/Users/Lenovo/workspace/dave_workspace/SOLAR_TOWER/Libraries/XMCLib/inc\xmc_can.h **** #ifdef __cplusplus
 595:C:/Users/Lenovo/workspace/dave_workspace/SOLAR_TOWER/Libraries/XMCLib/inc\xmc_can.h **** extern "C" {
 596:C:/Users/Lenovo/workspace/dave_workspace/SOLAR_TOWER/Libraries/XMCLib/inc\xmc_can.h **** #endif
 597:C:/Users/Lenovo/workspace/dave_workspace/SOLAR_TOWER/Libraries/XMCLib/inc\xmc_can.h **** 
 598:C:/Users/Lenovo/workspace/dave_workspace/SOLAR_TOWER/Libraries/XMCLib/inc\xmc_can.h **** /**
 599:C:/Users/Lenovo/workspace/dave_workspace/SOLAR_TOWER/Libraries/XMCLib/inc\xmc_can.h ****  *
 600:C:/Users/Lenovo/workspace/dave_workspace/SOLAR_TOWER/Libraries/XMCLib/inc\xmc_can.h ****  * @param obj Pointer pointing to XMC_CAN Global Initialization structure. Defines CAN global regis
 601:C:/Users/Lenovo/workspace/dave_workspace/SOLAR_TOWER/Libraries/XMCLib/inc\xmc_can.h ****  *        for details.
 602:C:/Users/Lenovo/workspace/dave_workspace/SOLAR_TOWER/Libraries/XMCLib/inc\xmc_can.h ****  *
 603:C:/Users/Lenovo/workspace/dave_workspace/SOLAR_TOWER/Libraries/XMCLib/inc\xmc_can.h ****  * @return None
 604:C:/Users/Lenovo/workspace/dave_workspace/SOLAR_TOWER/Libraries/XMCLib/inc\xmc_can.h ****  *
 605:C:/Users/Lenovo/workspace/dave_workspace/SOLAR_TOWER/Libraries/XMCLib/inc\xmc_can.h ****  * \par<b>Description:</b><br>
 606:C:/Users/Lenovo/workspace/dave_workspace/SOLAR_TOWER/Libraries/XMCLib/inc\xmc_can.h ****  *  Disables CAN module. In disabled state, no registers of CAN module can be read or written excep
 607:C:/Users/Lenovo/workspace/dave_workspace/SOLAR_TOWER/Libraries/XMCLib/inc\xmc_can.h ****  *
 608:C:/Users/Lenovo/workspace/dave_workspace/SOLAR_TOWER/Libraries/XMCLib/inc\xmc_can.h ****  * \par<b>Related APIs:</b><BR>
 609:C:/Users/Lenovo/workspace/dave_workspace/SOLAR_TOWER/Libraries/XMCLib/inc\xmc_can.h ****  * XMC_CAN_Enable()\n\n\n
 610:C:/Users/Lenovo/workspace/dave_workspace/SOLAR_TOWER/Libraries/XMCLib/inc\xmc_can.h ****  *
 611:C:/Users/Lenovo/workspace/dave_workspace/SOLAR_TOWER/Libraries/XMCLib/inc\xmc_can.h ****  */
 612:C:/Users/Lenovo/workspace/dave_workspace/SOLAR_TOWER/Libraries/XMCLib/inc\xmc_can.h **** 
 613:C:/Users/Lenovo/workspace/dave_workspace/SOLAR_TOWER/Libraries/XMCLib/inc\xmc_can.h **** void XMC_CAN_Disable(XMC_CAN_t *const obj);
 614:C:/Users/Lenovo/workspace/dave_workspace/SOLAR_TOWER/Libraries/XMCLib/inc\xmc_can.h **** 
 615:C:/Users/Lenovo/workspace/dave_workspace/SOLAR_TOWER/Libraries/XMCLib/inc\xmc_can.h **** /**
 616:C:/Users/Lenovo/workspace/dave_workspace/SOLAR_TOWER/Libraries/XMCLib/inc\xmc_can.h ****  *
 617:C:/Users/Lenovo/workspace/dave_workspace/SOLAR_TOWER/Libraries/XMCLib/inc\xmc_can.h ****  * @param obj Pointer pointing to XMC_CAN Global Initialization structure. Defines CAN global regis
 618:C:/Users/Lenovo/workspace/dave_workspace/SOLAR_TOWER/Libraries/XMCLib/inc\xmc_can.h ****  *         for details.
 619:C:/Users/Lenovo/workspace/dave_workspace/SOLAR_TOWER/Libraries/XMCLib/inc\xmc_can.h ****  *
 620:C:/Users/Lenovo/workspace/dave_workspace/SOLAR_TOWER/Libraries/XMCLib/inc\xmc_can.h ****  * @return None
 621:C:/Users/Lenovo/workspace/dave_workspace/SOLAR_TOWER/Libraries/XMCLib/inc\xmc_can.h ****  *
 622:C:/Users/Lenovo/workspace/dave_workspace/SOLAR_TOWER/Libraries/XMCLib/inc\xmc_can.h ****  * \par<b>Description:</b><br>
 623:C:/Users/Lenovo/workspace/dave_workspace/SOLAR_TOWER/Libraries/XMCLib/inc\xmc_can.h ****  *  Enables CAN module and initializes all CAN registers to reset values. It is required to re-conf
 624:C:/Users/Lenovo/workspace/dave_workspace/SOLAR_TOWER/Libraries/XMCLib/inc\xmc_can.h ****  *  before any data transfer. It configures CAN_CLC.DISR bit.
 625:C:/Users/Lenovo/workspace/dave_workspace/SOLAR_TOWER/Libraries/XMCLib/inc\xmc_can.h ****  *
 626:C:/Users/Lenovo/workspace/dave_workspace/SOLAR_TOWER/Libraries/XMCLib/inc\xmc_can.h ****  * \par<b>Related APIs:</b><BR>
 627:C:/Users/Lenovo/workspace/dave_workspace/SOLAR_TOWER/Libraries/XMCLib/inc\xmc_can.h ****  *  XMC_CAN_Disable()\n\n\n
 628:C:/Users/Lenovo/workspace/dave_workspace/SOLAR_TOWER/Libraries/XMCLib/inc\xmc_can.h ****  *
 629:C:/Users/Lenovo/workspace/dave_workspace/SOLAR_TOWER/Libraries/XMCLib/inc\xmc_can.h ****  */
 630:C:/Users/Lenovo/workspace/dave_workspace/SOLAR_TOWER/Libraries/XMCLib/inc\xmc_can.h **** 
 631:C:/Users/Lenovo/workspace/dave_workspace/SOLAR_TOWER/Libraries/XMCLib/inc\xmc_can.h **** void XMC_CAN_Enable(XMC_CAN_t *const obj);
 632:C:/Users/Lenovo/workspace/dave_workspace/SOLAR_TOWER/Libraries/XMCLib/inc\xmc_can.h **** 
 633:C:/Users/Lenovo/workspace/dave_workspace/SOLAR_TOWER/Libraries/XMCLib/inc\xmc_can.h **** /**
 634:C:/Users/Lenovo/workspace/dave_workspace/SOLAR_TOWER/Libraries/XMCLib/inc\xmc_can.h ****  *
 635:C:/Users/Lenovo/workspace/dave_workspace/SOLAR_TOWER/Libraries/XMCLib/inc\xmc_can.h ****  * @param obj Pointer pointing to XMC_CAN Global Initialization structure. Defines CAN global regis
 636:C:/Users/Lenovo/workspace/dave_workspace/SOLAR_TOWER/Libraries/XMCLib/inc\xmc_can.h ****  *       for details.
 637:C:/Users/Lenovo/workspace/dave_workspace/SOLAR_TOWER/Libraries/XMCLib/inc\xmc_can.h ****  *
 638:C:/Users/Lenovo/workspace/dave_workspace/SOLAR_TOWER/Libraries/XMCLib/inc\xmc_can.h ****  * @param node_num  CAN node number,Range : 0-2
 639:C:/Users/Lenovo/workspace/dave_workspace/SOLAR_TOWER/Libraries/XMCLib/inc\xmc_can.h ****  * @param mo_num  CAN Message Object number,Range : 0-63
 640:C:/Users/Lenovo/workspace/dave_workspace/SOLAR_TOWER/Libraries/XMCLib/inc\xmc_can.h ****  *
 641:C:/Users/Lenovo/workspace/dave_workspace/SOLAR_TOWER/Libraries/XMCLib/inc\xmc_can.h ****  * @return None
 642:C:/Users/Lenovo/workspace/dave_workspace/SOLAR_TOWER/Libraries/XMCLib/inc\xmc_can.h ****  *
 643:C:/Users/Lenovo/workspace/dave_workspace/SOLAR_TOWER/Libraries/XMCLib/inc\xmc_can.h ****  * \par<b>Description:</b><br>
 644:C:/Users/Lenovo/workspace/dave_workspace/SOLAR_TOWER/Libraries/XMCLib/inc\xmc_can.h ****  *  Allocates Message Object from free list to node list. Each \a node_num is linked to one unique 
 645:C:/Users/Lenovo/workspace/dave_workspace/SOLAR_TOWER/Libraries/XMCLib/inc\xmc_can.h ****  *  A CAN node performs message transfer only with the \a mo_num message objects that are allocated
 646:C:/Users/Lenovo/workspace/dave_workspace/SOLAR_TOWER/Libraries/XMCLib/inc\xmc_can.h ****  *  It configures PANCTR register.
 647:C:/Users/Lenovo/workspace/dave_workspace/SOLAR_TOWER/Libraries/XMCLib/inc\xmc_can.h ****  *
 648:C:/Users/Lenovo/workspace/dave_workspace/SOLAR_TOWER/Libraries/XMCLib/inc\xmc_can.h ****  * \par<b>Related APIs:</b><BR>
 649:C:/Users/Lenovo/workspace/dave_workspace/SOLAR_TOWER/Libraries/XMCLib/inc\xmc_can.h ****  *  None
 650:C:/Users/Lenovo/workspace/dave_workspace/SOLAR_TOWER/Libraries/XMCLib/inc\xmc_can.h ****  *
 651:C:/Users/Lenovo/workspace/dave_workspace/SOLAR_TOWER/Libraries/XMCLib/inc\xmc_can.h ****  */
 652:C:/Users/Lenovo/workspace/dave_workspace/SOLAR_TOWER/Libraries/XMCLib/inc\xmc_can.h **** 
 653:C:/Users/Lenovo/workspace/dave_workspace/SOLAR_TOWER/Libraries/XMCLib/inc\xmc_can.h **** void XMC_CAN_AllocateMOtoNodeList(XMC_CAN_t *const obj, const uint8_t node_num, const uint8_t mo_nu
 654:C:/Users/Lenovo/workspace/dave_workspace/SOLAR_TOWER/Libraries/XMCLib/inc\xmc_can.h **** 
 655:C:/Users/Lenovo/workspace/dave_workspace/SOLAR_TOWER/Libraries/XMCLib/inc\xmc_can.h **** /**
 656:C:/Users/Lenovo/workspace/dave_workspace/SOLAR_TOWER/Libraries/XMCLib/inc\xmc_can.h ****  *
 657:C:/Users/Lenovo/workspace/dave_workspace/SOLAR_TOWER/Libraries/XMCLib/inc\xmc_can.h ****  * @param obj Pointer pointing to XMC_CAN Global Initialization structure. Defines CAN global regis
 658:C:/Users/Lenovo/workspace/dave_workspace/SOLAR_TOWER/Libraries/XMCLib/inc\xmc_can.h ****  *       for details.
 659:C:/Users/Lenovo/workspace/dave_workspace/SOLAR_TOWER/Libraries/XMCLib/inc\xmc_can.h ****  *
 660:C:/Users/Lenovo/workspace/dave_workspace/SOLAR_TOWER/Libraries/XMCLib/inc\xmc_can.h ****  * @return Ready status of list controller
 661:C:/Users/Lenovo/workspace/dave_workspace/SOLAR_TOWER/Libraries/XMCLib/inc\xmc_can.h ****  *
 662:C:/Users/Lenovo/workspace/dave_workspace/SOLAR_TOWER/Libraries/XMCLib/inc\xmc_can.h ****  * \par<b>Description:</b><br>
 663:C:/Users/Lenovo/workspace/dave_workspace/SOLAR_TOWER/Libraries/XMCLib/inc\xmc_can.h ****  *  Returns ready status of the list controller
 664:C:/Users/Lenovo/workspace/dave_workspace/SOLAR_TOWER/Libraries/XMCLib/inc\xmc_can.h ****  *
 665:C:/Users/Lenovo/workspace/dave_workspace/SOLAR_TOWER/Libraries/XMCLib/inc\xmc_can.h ****  * \par<b>Related APIs:</b><BR>
 666:C:/Users/Lenovo/workspace/dave_workspace/SOLAR_TOWER/Libraries/XMCLib/inc\xmc_can.h ****  *  XMC_CAN_PanelControl()
 667:C:/Users/Lenovo/workspace/dave_workspace/SOLAR_TOWER/Libraries/XMCLib/inc\xmc_can.h ****  *
 668:C:/Users/Lenovo/workspace/dave_workspace/SOLAR_TOWER/Libraries/XMCLib/inc\xmc_can.h ****  */
 669:C:/Users/Lenovo/workspace/dave_workspace/SOLAR_TOWER/Libraries/XMCLib/inc\xmc_can.h **** __STATIC_INLINE bool XMC_CAN_IsPanelControlReady(XMC_CAN_t *const obj)
 670:C:/Users/Lenovo/workspace/dave_workspace/SOLAR_TOWER/Libraries/XMCLib/inc\xmc_can.h **** {
  25              	 .loc 1 670 0
  26              	 .cfi_startproc
  27 0000 80B5     	 push {r7,lr}
  28              	.LCFI0:
  29              	 .cfi_def_cfa_offset 8
  30              	 .cfi_offset 7,-8
  31              	 .cfi_offset 14,-4
  32 0002 82B0     	 sub sp,sp,#8
  33              	.LCFI1:
  34              	 .cfi_def_cfa_offset 16
  35 0004 00AF     	 add r7,sp,#0
  36              	.LCFI2:
  37              	 .cfi_def_cfa_register 7
  38 0006 7860     	 str r0,[r7,#4]
 671:C:/Users/Lenovo/workspace/dave_workspace/SOLAR_TOWER/Libraries/XMCLib/inc\xmc_can.h ****   return (bool)((obj->PANCTR & (CAN_PANCTR_BUSY_Msk | CAN_PANCTR_RBUSY_Msk)) == 0);
  39              	 .loc 1 671 0
  40 0008 7A68     	 ldr r2,[r7,#4]
  41 000a E223     	 mov r3,#226
  42 000c 5B00     	 lsl r3,r3,#1
  43 000e D258     	 ldr r2,[r2,r3]
  44 0010 C023     	 mov r3,#192
  45 0012 9B00     	 lsl r3,r3,#2
  46 0014 1340     	 and r3,r2
  47 0016 5A42     	 neg r2,r3
  48 0018 5341     	 adc r3,r3,r2
  49 001a DBB2     	 uxtb r3,r3
 672:C:/Users/Lenovo/workspace/dave_workspace/SOLAR_TOWER/Libraries/XMCLib/inc\xmc_can.h **** }
  50              	 .loc 1 672 0
  51 001c 181C     	 mov r0,r3
  52 001e BD46     	 mov sp,r7
  53 0020 02B0     	 add sp,sp,#8
  54              	 
  55 0022 80BD     	 pop {r7,pc}
  56              	 .cfi_endproc
  57              	.LFE61:
  59              	 .section .text.XMC_CAN_PanelControl,"ax",%progbits
  60              	 .align 2
  61              	 .code 16
  62              	 .thumb_func
  64              	XMC_CAN_PanelControl:
  65              	.LFB62:
 673:C:/Users/Lenovo/workspace/dave_workspace/SOLAR_TOWER/Libraries/XMCLib/inc\xmc_can.h **** 
 674:C:/Users/Lenovo/workspace/dave_workspace/SOLAR_TOWER/Libraries/XMCLib/inc\xmc_can.h **** /**
 675:C:/Users/Lenovo/workspace/dave_workspace/SOLAR_TOWER/Libraries/XMCLib/inc\xmc_can.h ****  *
 676:C:/Users/Lenovo/workspace/dave_workspace/SOLAR_TOWER/Libraries/XMCLib/inc\xmc_can.h ****  * @param obj Pointer pointing to XMC_CAN Global Initialization structure. Defines CAN global regis
 677:C:/Users/Lenovo/workspace/dave_workspace/SOLAR_TOWER/Libraries/XMCLib/inc\xmc_can.h ****  *        for details.
 678:C:/Users/Lenovo/workspace/dave_workspace/SOLAR_TOWER/Libraries/XMCLib/inc\xmc_can.h ****  *
 679:C:/Users/Lenovo/workspace/dave_workspace/SOLAR_TOWER/Libraries/XMCLib/inc\xmc_can.h ****  * @param pancmd panal command selection. Refer @ref XMC_CAN_PANCMD_t for valid values.
 680:C:/Users/Lenovo/workspace/dave_workspace/SOLAR_TOWER/Libraries/XMCLib/inc\xmc_can.h ****  * @param arg1   Panel Argument 1,Range : 0-2
 681:C:/Users/Lenovo/workspace/dave_workspace/SOLAR_TOWER/Libraries/XMCLib/inc\xmc_can.h ****  * @param arg2   Panel Argument 2, Range : 0-63
 682:C:/Users/Lenovo/workspace/dave_workspace/SOLAR_TOWER/Libraries/XMCLib/inc\xmc_can.h ****  *
 683:C:/Users/Lenovo/workspace/dave_workspace/SOLAR_TOWER/Libraries/XMCLib/inc\xmc_can.h ****  * @return None
 684:C:/Users/Lenovo/workspace/dave_workspace/SOLAR_TOWER/Libraries/XMCLib/inc\xmc_can.h ****  *
 685:C:/Users/Lenovo/workspace/dave_workspace/SOLAR_TOWER/Libraries/XMCLib/inc\xmc_can.h ****  * \par<b>Description:</b><br>
 686:C:/Users/Lenovo/workspace/dave_workspace/SOLAR_TOWER/Libraries/XMCLib/inc\xmc_can.h ****  *  Configures the panel command and panel arguments. A panel operation consists of a command code 
 687:C:/Users/Lenovo/workspace/dave_workspace/SOLAR_TOWER/Libraries/XMCLib/inc\xmc_can.h ****  *  panel arguments (PANAR1, PANAR2). Commands that have a return value deliver it to the PANAR1 bi
 688:C:/Users/Lenovo/workspace/dave_workspace/SOLAR_TOWER/Libraries/XMCLib/inc\xmc_can.h ****  *  return an error flag deliver it to bit 31 of the Panel Control Register, this means bit 7 of PA
 689:C:/Users/Lenovo/workspace/dave_workspace/SOLAR_TOWER/Libraries/XMCLib/inc\xmc_can.h ****  *  panel argument PANAR1,\a arg2 represents panel argument PANAR2 and \a pancmd represents command
 690:C:/Users/Lenovo/workspace/dave_workspace/SOLAR_TOWER/Libraries/XMCLib/inc\xmc_can.h ****  *  register.
 691:C:/Users/Lenovo/workspace/dave_workspace/SOLAR_TOWER/Libraries/XMCLib/inc\xmc_can.h ****  *
 692:C:/Users/Lenovo/workspace/dave_workspace/SOLAR_TOWER/Libraries/XMCLib/inc\xmc_can.h ****  * \par<b>Related APIs:</b><BR>
 693:C:/Users/Lenovo/workspace/dave_workspace/SOLAR_TOWER/Libraries/XMCLib/inc\xmc_can.h ****  *  None
 694:C:/Users/Lenovo/workspace/dave_workspace/SOLAR_TOWER/Libraries/XMCLib/inc\xmc_can.h ****  *
 695:C:/Users/Lenovo/workspace/dave_workspace/SOLAR_TOWER/Libraries/XMCLib/inc\xmc_can.h ****  */
 696:C:/Users/Lenovo/workspace/dave_workspace/SOLAR_TOWER/Libraries/XMCLib/inc\xmc_can.h **** 
 697:C:/Users/Lenovo/workspace/dave_workspace/SOLAR_TOWER/Libraries/XMCLib/inc\xmc_can.h **** __STATIC_INLINE void XMC_CAN_PanelControl(XMC_CAN_t *const obj,
 698:C:/Users/Lenovo/workspace/dave_workspace/SOLAR_TOWER/Libraries/XMCLib/inc\xmc_can.h ****                                           const XMC_CAN_PANCMD_t pancmd,
 699:C:/Users/Lenovo/workspace/dave_workspace/SOLAR_TOWER/Libraries/XMCLib/inc\xmc_can.h ****                                       const uint8_t arg1,
 700:C:/Users/Lenovo/workspace/dave_workspace/SOLAR_TOWER/Libraries/XMCLib/inc\xmc_can.h ****                                       const uint8_t arg2)
 701:C:/Users/Lenovo/workspace/dave_workspace/SOLAR_TOWER/Libraries/XMCLib/inc\xmc_can.h **** {
  66              	 .loc 1 701 0
  67              	 .cfi_startproc
  68 0000 90B5     	 push {r4,r7,lr}
  69              	.LCFI3:
  70              	 .cfi_def_cfa_offset 12
  71              	 .cfi_offset 4,-12
  72              	 .cfi_offset 7,-8
  73              	 .cfi_offset 14,-4
  74 0002 83B0     	 sub sp,sp,#12
  75              	.LCFI4:
  76              	 .cfi_def_cfa_offset 24
  77 0004 00AF     	 add r7,sp,#0
  78              	.LCFI5:
  79              	 .cfi_def_cfa_register 7
  80 0006 7860     	 str r0,[r7,#4]
  81 0008 0C1C     	 mov r4,r1
  82 000a 101C     	 mov r0,r2
  83 000c 191C     	 mov r1,r3
  84 000e FB1C     	 add r3,r7,#3
  85 0010 221C     	 add r2,r4,#0
  86 0012 1A70     	 strb r2,[r3]
  87 0014 BB1C     	 add r3,r7,#2
  88 0016 021C     	 add r2,r0,#0
  89 0018 1A70     	 strb r2,[r3]
  90 001a 7B1C     	 add r3,r7,#1
  91 001c 0A1C     	 add r2,r1,#0
  92 001e 1A70     	 strb r2,[r3]
 702:C:/Users/Lenovo/workspace/dave_workspace/SOLAR_TOWER/Libraries/XMCLib/inc\xmc_can.h ****   obj->PANCTR = (((uint32_t)pancmd << CAN_PANCTR_PANCMD_Pos) & (uint32_t)CAN_PANCTR_PANCMD_Msk) |
  93              	 .loc 1 702 0
  94 0020 FB1C     	 add r3,r7,#3
  95 0022 1A78     	 ldrb r2,[r3]
 703:C:/Users/Lenovo/workspace/dave_workspace/SOLAR_TOWER/Libraries/XMCLib/inc\xmc_can.h ****             (((uint32_t)arg1 << CAN_PANCTR_PANAR1_Pos) & (uint32_t)CAN_PANCTR_PANAR1_Msk) |
  96              	 .loc 1 703 0
  97 0024 BB1C     	 add r3,r7,#2
  98 0026 1B78     	 ldrb r3,[r3]
  99 0028 1904     	 lsl r1,r3,#16
 100 002a FF23     	 mov r3,#255
 101 002c 1B04     	 lsl r3,r3,#16
 102 002e 0B40     	 and r3,r1
 702:C:/Users/Lenovo/workspace/dave_workspace/SOLAR_TOWER/Libraries/XMCLib/inc\xmc_can.h ****   obj->PANCTR = (((uint32_t)pancmd << CAN_PANCTR_PANCMD_Pos) & (uint32_t)CAN_PANCTR_PANCMD_Msk) |
 103              	 .loc 1 702 0
 104 0030 1A43     	 orr r2,r3
 704:C:/Users/Lenovo/workspace/dave_workspace/SOLAR_TOWER/Libraries/XMCLib/inc\xmc_can.h ****             (((uint32_t)arg2 << CAN_PANCTR_PANAR2_Pos) & (uint32_t)CAN_PANCTR_PANAR2_Msk);
 105              	 .loc 1 704 0
 106 0032 7B1C     	 add r3,r7,#1
 107 0034 1B78     	 ldrb r3,[r3]
 108 0036 1B06     	 lsl r3,r3,#24
 703:C:/Users/Lenovo/workspace/dave_workspace/SOLAR_TOWER/Libraries/XMCLib/inc\xmc_can.h ****             (((uint32_t)arg1 << CAN_PANCTR_PANAR1_Pos) & (uint32_t)CAN_PANCTR_PANAR1_Msk) |
 109              	 .loc 1 703 0
 110 0038 1A43     	 orr r2,r3
 111 003a 111C     	 mov r1,r2
 702:C:/Users/Lenovo/workspace/dave_workspace/SOLAR_TOWER/Libraries/XMCLib/inc\xmc_can.h ****   obj->PANCTR = (((uint32_t)pancmd << CAN_PANCTR_PANCMD_Pos) & (uint32_t)CAN_PANCTR_PANCMD_Msk) |
 112              	 .loc 1 702 0
 113 003c 7A68     	 ldr r2,[r7,#4]
 114 003e E223     	 mov r3,#226
 115 0040 5B00     	 lsl r3,r3,#1
 116 0042 D150     	 str r1,[r2,r3]
 705:C:/Users/Lenovo/workspace/dave_workspace/SOLAR_TOWER/Libraries/XMCLib/inc\xmc_can.h **** }
 117              	 .loc 1 705 0
 118 0044 BD46     	 mov sp,r7
 119 0046 03B0     	 add sp,sp,#12
 120              	 
 121 0048 90BD     	 pop {r4,r7,pc}
 122              	 .cfi_endproc
 123              	.LFE62:
 125 004a C046     	 .section .text.XMC_CAN_NODE_EnableConfigurationChange,"ax",%progbits
 126              	 .align 2
 127              	 .code 16
 128              	 .thumb_func
 130              	XMC_CAN_NODE_EnableConfigurationChange:
 131              	.LFB78:
 706:C:/Users/Lenovo/workspace/dave_workspace/SOLAR_TOWER/Libraries/XMCLib/inc\xmc_can.h **** 
 707:C:/Users/Lenovo/workspace/dave_workspace/SOLAR_TOWER/Libraries/XMCLib/inc\xmc_can.h **** 
 708:C:/Users/Lenovo/workspace/dave_workspace/SOLAR_TOWER/Libraries/XMCLib/inc\xmc_can.h **** /**
 709:C:/Users/Lenovo/workspace/dave_workspace/SOLAR_TOWER/Libraries/XMCLib/inc\xmc_can.h ****  *
 710:C:/Users/Lenovo/workspace/dave_workspace/SOLAR_TOWER/Libraries/XMCLib/inc\xmc_can.h ****  * @param obj Pointer pointing to XMC_CAN Global Initialization structure. Defines CAN global regis
 711:C:/Users/Lenovo/workspace/dave_workspace/SOLAR_TOWER/Libraries/XMCLib/inc\xmc_can.h ****  *        for details.
 712:C:/Users/Lenovo/workspace/dave_workspace/SOLAR_TOWER/Libraries/XMCLib/inc\xmc_can.h ****  *
 713:C:/Users/Lenovo/workspace/dave_workspace/SOLAR_TOWER/Libraries/XMCLib/inc\xmc_can.h ****  * @param service_requestr  Interrupt trigger number selection. Refer @ref XMC_CAN_NODE_INTERRUPT_T
 714:C:/Users/Lenovo/workspace/dave_workspace/SOLAR_TOWER/Libraries/XMCLib/inc\xmc_can.h ****  *               Multiple interrupt trigger events can be ORed.
 715:C:/Users/Lenovo/workspace/dave_workspace/SOLAR_TOWER/Libraries/XMCLib/inc\xmc_can.h ****  *
 716:C:/Users/Lenovo/workspace/dave_workspace/SOLAR_TOWER/Libraries/XMCLib/inc\xmc_can.h ****  * @return None
 717:C:/Users/Lenovo/workspace/dave_workspace/SOLAR_TOWER/Libraries/XMCLib/inc\xmc_can.h ****  *
 718:C:/Users/Lenovo/workspace/dave_workspace/SOLAR_TOWER/Libraries/XMCLib/inc\xmc_can.h ****  * \par<b>Description:</b><br>
 719:C:/Users/Lenovo/workspace/dave_workspace/SOLAR_TOWER/Libraries/XMCLib/inc\xmc_can.h ****  *  Configures multiple interrupt requests with a single write operation. \a service_requestr repre
 720:C:/Users/Lenovo/workspace/dave_workspace/SOLAR_TOWER/Libraries/XMCLib/inc\xmc_can.h ****  *  request or multiple.It configures MITR register.
 721:C:/Users/Lenovo/workspace/dave_workspace/SOLAR_TOWER/Libraries/XMCLib/inc\xmc_can.h ****  *
 722:C:/Users/Lenovo/workspace/dave_workspace/SOLAR_TOWER/Libraries/XMCLib/inc\xmc_can.h ****  * \par<b>Related APIs:</b><BR>
 723:C:/Users/Lenovo/workspace/dave_workspace/SOLAR_TOWER/Libraries/XMCLib/inc\xmc_can.h ****  *  None
 724:C:/Users/Lenovo/workspace/dave_workspace/SOLAR_TOWER/Libraries/XMCLib/inc\xmc_can.h ****  *
 725:C:/Users/Lenovo/workspace/dave_workspace/SOLAR_TOWER/Libraries/XMCLib/inc\xmc_can.h ****  */
 726:C:/Users/Lenovo/workspace/dave_workspace/SOLAR_TOWER/Libraries/XMCLib/inc\xmc_can.h **** 
 727:C:/Users/Lenovo/workspace/dave_workspace/SOLAR_TOWER/Libraries/XMCLib/inc\xmc_can.h **** __STATIC_INLINE void XMC_CAN_EventTrigger(XMC_CAN_t *const obj,const XMC_CAN_NODE_INTERRUPT_TRIGGER
 728:C:/Users/Lenovo/workspace/dave_workspace/SOLAR_TOWER/Libraries/XMCLib/inc\xmc_can.h **** {
 729:C:/Users/Lenovo/workspace/dave_workspace/SOLAR_TOWER/Libraries/XMCLib/inc\xmc_can.h ****   obj->MITR = ((uint32_t)service_requestr << CAN_MITR_IT_Pos) & (uint32_t)CAN_MITR_IT_Msk;
 730:C:/Users/Lenovo/workspace/dave_workspace/SOLAR_TOWER/Libraries/XMCLib/inc\xmc_can.h **** }
 731:C:/Users/Lenovo/workspace/dave_workspace/SOLAR_TOWER/Libraries/XMCLib/inc\xmc_can.h **** 
 732:C:/Users/Lenovo/workspace/dave_workspace/SOLAR_TOWER/Libraries/XMCLib/inc\xmc_can.h **** 
 733:C:/Users/Lenovo/workspace/dave_workspace/SOLAR_TOWER/Libraries/XMCLib/inc\xmc_can.h **** /**
 734:C:/Users/Lenovo/workspace/dave_workspace/SOLAR_TOWER/Libraries/XMCLib/inc\xmc_can.h ****  *
 735:C:/Users/Lenovo/workspace/dave_workspace/SOLAR_TOWER/Libraries/XMCLib/inc\xmc_can.h ****  * @param obj Pointer pointing to XMC_CAN Global Initialization structure. Defines CAN global regis
 736:C:/Users/Lenovo/workspace/dave_workspace/SOLAR_TOWER/Libraries/XMCLib/inc\xmc_can.h ****  *        for details.
 737:C:/Users/Lenovo/workspace/dave_workspace/SOLAR_TOWER/Libraries/XMCLib/inc\xmc_can.h ****  *
 738:C:/Users/Lenovo/workspace/dave_workspace/SOLAR_TOWER/Libraries/XMCLib/inc\xmc_can.h ****  * @param clksrc CAN module frequency clock source
 739:C:/Users/Lenovo/workspace/dave_workspace/SOLAR_TOWER/Libraries/XMCLib/inc\xmc_can.h ****  * @param can_frequency CAN module frequency(fCAN). 
 740:C:/Users/Lenovo/workspace/dave_workspace/SOLAR_TOWER/Libraries/XMCLib/inc\xmc_can.h ****  *        The can_frequency shall be an integer divisor of the CAN clock source frequency (fPERI/fM
 741:C:/Users/Lenovo/workspace/dave_workspace/SOLAR_TOWER/Libraries/XMCLib/inc\xmc_can.h ****  *        it should be selected such that if fulfills the minimum operating frequency specified in 
 742:C:/Users/Lenovo/workspace/dave_workspace/SOLAR_TOWER/Libraries/XMCLib/inc\xmc_can.h ****  *        In addition the can_frequency shall be an integer multiple of the baudrate.
 743:C:/Users/Lenovo/workspace/dave_workspace/SOLAR_TOWER/Libraries/XMCLib/inc\xmc_can.h ****  *        Max. value: Max. clock source frequency, i.e. if using fOHP and using a XTAL of 20MHz the
 744:C:/Users/Lenovo/workspace/dave_workspace/SOLAR_TOWER/Libraries/XMCLib/inc\xmc_can.h ****  *
 745:C:/Users/Lenovo/workspace/dave_workspace/SOLAR_TOWER/Libraries/XMCLib/inc\xmc_can.h ****  * @return Actual frequency
 746:C:/Users/Lenovo/workspace/dave_workspace/SOLAR_TOWER/Libraries/XMCLib/inc\xmc_can.h ****  *
 747:C:/Users/Lenovo/workspace/dave_workspace/SOLAR_TOWER/Libraries/XMCLib/inc\xmc_can.h ****  * \par<b>Description:</b><br>
 748:C:/Users/Lenovo/workspace/dave_workspace/SOLAR_TOWER/Libraries/XMCLib/inc\xmc_can.h ****  * Similar to XMC_CAN_Init() configures clock rate of the module timer clock fCAN. 
 749:C:/Users/Lenovo/workspace/dave_workspace/SOLAR_TOWER/Libraries/XMCLib/inc\xmc_can.h ****  * The difference being that only the normal divider is used to avoid jitter.
 750:C:/Users/Lenovo/workspace/dave_workspace/SOLAR_TOWER/Libraries/XMCLib/inc\xmc_can.h ****  * In addition the actual achievable frequency is returned.
 751:C:/Users/Lenovo/workspace/dave_workspace/SOLAR_TOWER/Libraries/XMCLib/inc\xmc_can.h ****  * @note Use XMC_CAN_InitEx() for new projects. XMC_CAN_Init() is kept for backward compatibility r
 752:C:/Users/Lenovo/workspace/dave_workspace/SOLAR_TOWER/Libraries/XMCLib/inc\xmc_can.h ****  *
 753:C:/Users/Lenovo/workspace/dave_workspace/SOLAR_TOWER/Libraries/XMCLib/inc\xmc_can.h ****  * Altering CAN module \a can_frequency shall affects baud rate, call XMC_CAN_NODE_NominalBitTimeCo
 754:C:/Users/Lenovo/workspace/dave_workspace/SOLAR_TOWER/Libraries/XMCLib/inc\xmc_can.h ****  * It configures FDR register.
 755:C:/Users/Lenovo/workspace/dave_workspace/SOLAR_TOWER/Libraries/XMCLib/inc\xmc_can.h ****  *
 756:C:/Users/Lenovo/workspace/dave_workspace/SOLAR_TOWER/Libraries/XMCLib/inc\xmc_can.h ****  * \par<b>Related APIs:</b><BR>
 757:C:/Users/Lenovo/workspace/dave_workspace/SOLAR_TOWER/Libraries/XMCLib/inc\xmc_can.h ****  * XMC_CAN_NODE_NominalBitTimeConfigure(), XMC_CAN_NODE_NominalBitTimeConfigureEx()\n\n\n
 758:C:/Users/Lenovo/workspace/dave_workspace/SOLAR_TOWER/Libraries/XMCLib/inc\xmc_can.h ****  *
 759:C:/Users/Lenovo/workspace/dave_workspace/SOLAR_TOWER/Libraries/XMCLib/inc\xmc_can.h ****  */
 760:C:/Users/Lenovo/workspace/dave_workspace/SOLAR_TOWER/Libraries/XMCLib/inc\xmc_can.h **** uint32_t XMC_CAN_InitEx(XMC_CAN_t *const obj, XMC_CAN_CANCLKSRC_t clksrc, uint32_t can_frequency);
 761:C:/Users/Lenovo/workspace/dave_workspace/SOLAR_TOWER/Libraries/XMCLib/inc\xmc_can.h **** 
 762:C:/Users/Lenovo/workspace/dave_workspace/SOLAR_TOWER/Libraries/XMCLib/inc\xmc_can.h **** /**
 763:C:/Users/Lenovo/workspace/dave_workspace/SOLAR_TOWER/Libraries/XMCLib/inc\xmc_can.h ****  * @param obj Pointer pointing to XMC_CAN Global Initialization structure. Defines CAN global regis
 764:C:/Users/Lenovo/workspace/dave_workspace/SOLAR_TOWER/Libraries/XMCLib/inc\xmc_can.h ****  *        for details.
 765:C:/Users/Lenovo/workspace/dave_workspace/SOLAR_TOWER/Libraries/XMCLib/inc\xmc_can.h ****  *
 766:C:/Users/Lenovo/workspace/dave_workspace/SOLAR_TOWER/Libraries/XMCLib/inc\xmc_can.h ****  * @return Baudrate generator clock source
 767:C:/Users/Lenovo/workspace/dave_workspace/SOLAR_TOWER/Libraries/XMCLib/inc\xmc_can.h ****  *
 768:C:/Users/Lenovo/workspace/dave_workspace/SOLAR_TOWER/Libraries/XMCLib/inc\xmc_can.h ****  * \par<b>Description:</b><br>
 769:C:/Users/Lenovo/workspace/dave_workspace/SOLAR_TOWER/Libraries/XMCLib/inc\xmc_can.h ****  * Returns CAN baudrate generator clock source
 770:C:/Users/Lenovo/workspace/dave_workspace/SOLAR_TOWER/Libraries/XMCLib/inc\xmc_can.h ****  *
 771:C:/Users/Lenovo/workspace/dave_workspace/SOLAR_TOWER/Libraries/XMCLib/inc\xmc_can.h ****  * @note Use only for XMC1400 series and XMC47/4800 series projects
 772:C:/Users/Lenovo/workspace/dave_workspace/SOLAR_TOWER/Libraries/XMCLib/inc\xmc_can.h ****  *
 773:C:/Users/Lenovo/workspace/dave_workspace/SOLAR_TOWER/Libraries/XMCLib/inc\xmc_can.h ****  */
 774:C:/Users/Lenovo/workspace/dave_workspace/SOLAR_TOWER/Libraries/XMCLib/inc\xmc_can.h **** XMC_CAN_CANCLKSRC_t XMC_CAN_GetBaudrateClockSource(XMC_CAN_t *const obj);
 775:C:/Users/Lenovo/workspace/dave_workspace/SOLAR_TOWER/Libraries/XMCLib/inc\xmc_can.h **** 
 776:C:/Users/Lenovo/workspace/dave_workspace/SOLAR_TOWER/Libraries/XMCLib/inc\xmc_can.h **** /**
 777:C:/Users/Lenovo/workspace/dave_workspace/SOLAR_TOWER/Libraries/XMCLib/inc\xmc_can.h ****  * @param obj Pointer pointing to XMC_CAN Global Initialization structure. Defines CAN global regis
 778:C:/Users/Lenovo/workspace/dave_workspace/SOLAR_TOWER/Libraries/XMCLib/inc\xmc_can.h ****  *        for details.
 779:C:/Users/Lenovo/workspace/dave_workspace/SOLAR_TOWER/Libraries/XMCLib/inc\xmc_can.h ****  *
 780:C:/Users/Lenovo/workspace/dave_workspace/SOLAR_TOWER/Libraries/XMCLib/inc\xmc_can.h ****  * @return None
 781:C:/Users/Lenovo/workspace/dave_workspace/SOLAR_TOWER/Libraries/XMCLib/inc\xmc_can.h ****  * 
 782:C:/Users/Lenovo/workspace/dave_workspace/SOLAR_TOWER/Libraries/XMCLib/inc\xmc_can.h ****  * \par<b>Description:</b><br>
 783:C:/Users/Lenovo/workspace/dave_workspace/SOLAR_TOWER/Libraries/XMCLib/inc\xmc_can.h ****  * Sets CAN baudrate generator clock source
 784:C:/Users/Lenovo/workspace/dave_workspace/SOLAR_TOWER/Libraries/XMCLib/inc\xmc_can.h ****  *
 785:C:/Users/Lenovo/workspace/dave_workspace/SOLAR_TOWER/Libraries/XMCLib/inc\xmc_can.h ****  * @note Use only for XMC1400 series and XMC47/4800 series projects
 786:C:/Users/Lenovo/workspace/dave_workspace/SOLAR_TOWER/Libraries/XMCLib/inc\xmc_can.h ****  *
 787:C:/Users/Lenovo/workspace/dave_workspace/SOLAR_TOWER/Libraries/XMCLib/inc\xmc_can.h ****  */
 788:C:/Users/Lenovo/workspace/dave_workspace/SOLAR_TOWER/Libraries/XMCLib/inc\xmc_can.h **** void XMC_CAN_SetBaudrateClockSource(XMC_CAN_t *const obj,const XMC_CAN_CANCLKSRC_t source);
 789:C:/Users/Lenovo/workspace/dave_workspace/SOLAR_TOWER/Libraries/XMCLib/inc\xmc_can.h **** 
 790:C:/Users/Lenovo/workspace/dave_workspace/SOLAR_TOWER/Libraries/XMCLib/inc\xmc_can.h **** /**
 791:C:/Users/Lenovo/workspace/dave_workspace/SOLAR_TOWER/Libraries/XMCLib/inc\xmc_can.h ****  * @param obj Pointer pointing to XMC_CAN Global Initialization structure. Defines CAN global regis
 792:C:/Users/Lenovo/workspace/dave_workspace/SOLAR_TOWER/Libraries/XMCLib/inc\xmc_can.h ****  *        for details.
 793:C:/Users/Lenovo/workspace/dave_workspace/SOLAR_TOWER/Libraries/XMCLib/inc\xmc_can.h ****  *
 794:C:/Users/Lenovo/workspace/dave_workspace/SOLAR_TOWER/Libraries/XMCLib/inc\xmc_can.h ****  * @return baudrate generator input clock frequency 
 795:C:/Users/Lenovo/workspace/dave_workspace/SOLAR_TOWER/Libraries/XMCLib/inc\xmc_can.h ****  *
 796:C:/Users/Lenovo/workspace/dave_workspace/SOLAR_TOWER/Libraries/XMCLib/inc\xmc_can.h ****  * \par<b>Description:</b><br>
 797:C:/Users/Lenovo/workspace/dave_workspace/SOLAR_TOWER/Libraries/XMCLib/inc\xmc_can.h ****  * Gets CAN baudrate generator input clock frequency
 798:C:/Users/Lenovo/workspace/dave_workspace/SOLAR_TOWER/Libraries/XMCLib/inc\xmc_can.h ****  *
 799:C:/Users/Lenovo/workspace/dave_workspace/SOLAR_TOWER/Libraries/XMCLib/inc\xmc_can.h ****  * @note Use only for XMC1400 series and XMC47/4800 series projects
 800:C:/Users/Lenovo/workspace/dave_workspace/SOLAR_TOWER/Libraries/XMCLib/inc\xmc_can.h ****  *
 801:C:/Users/Lenovo/workspace/dave_workspace/SOLAR_TOWER/Libraries/XMCLib/inc\xmc_can.h ****  */
 802:C:/Users/Lenovo/workspace/dave_workspace/SOLAR_TOWER/Libraries/XMCLib/inc\xmc_can.h **** uint32_t XMC_CAN_GetBaudrateClockFrequency(XMC_CAN_t *const obj);
 803:C:/Users/Lenovo/workspace/dave_workspace/SOLAR_TOWER/Libraries/XMCLib/inc\xmc_can.h **** 
 804:C:/Users/Lenovo/workspace/dave_workspace/SOLAR_TOWER/Libraries/XMCLib/inc\xmc_can.h **** #if defined(MULTICAN_PLUS) || defined(DOXYGEN)
 805:C:/Users/Lenovo/workspace/dave_workspace/SOLAR_TOWER/Libraries/XMCLib/inc\xmc_can.h **** /**
 806:C:/Users/Lenovo/workspace/dave_workspace/SOLAR_TOWER/Libraries/XMCLib/inc\xmc_can.h ****  *
 807:C:/Users/Lenovo/workspace/dave_workspace/SOLAR_TOWER/Libraries/XMCLib/inc\xmc_can.h ****  * @param obj Pointer pointing to XMC_CAN Global Initialization structure. Defines CAN global regis
 808:C:/Users/Lenovo/workspace/dave_workspace/SOLAR_TOWER/Libraries/XMCLib/inc\xmc_can.h ****  *        for details.
 809:C:/Users/Lenovo/workspace/dave_workspace/SOLAR_TOWER/Libraries/XMCLib/inc\xmc_can.h ****  *
 810:C:/Users/Lenovo/workspace/dave_workspace/SOLAR_TOWER/Libraries/XMCLib/inc\xmc_can.h ****  * @param clksrc CAN module frequency clock source.
 811:C:/Users/Lenovo/workspace/dave_workspace/SOLAR_TOWER/Libraries/XMCLib/inc\xmc_can.h ****  * @param can_frequency CAN module frequency(fCAN). Max. value: Max. clock source frequency, i.e. i
 812:C:/Users/Lenovo/workspace/dave_workspace/SOLAR_TOWER/Libraries/XMCLib/inc\xmc_can.h ****  * @note Use clksrc parameter only for XMC1400 series and XMC47/4800 series projects, otherwise omi
 813:C:/Users/Lenovo/workspace/dave_workspace/SOLAR_TOWER/Libraries/XMCLib/inc\xmc_can.h ****  *
 814:C:/Users/Lenovo/workspace/dave_workspace/SOLAR_TOWER/Libraries/XMCLib/inc\xmc_can.h ****  * @return None
 815:C:/Users/Lenovo/workspace/dave_workspace/SOLAR_TOWER/Libraries/XMCLib/inc\xmc_can.h ****  *
 816:C:/Users/Lenovo/workspace/dave_workspace/SOLAR_TOWER/Libraries/XMCLib/inc\xmc_can.h ****  * \par<b>Description:</b><br>
 817:C:/Users/Lenovo/workspace/dave_workspace/SOLAR_TOWER/Libraries/XMCLib/inc\xmc_can.h ****  * Configures clock rate of the module timer clock fCAN. Altering CAN module \a can_frequency shall
 818:C:/Users/Lenovo/workspace/dave_workspace/SOLAR_TOWER/Libraries/XMCLib/inc\xmc_can.h ****  * call XMC_CAN_NODE_NominalBitTimeConfigure() or XMC_CAN_NODE_NominalBitTimeConfigureEx() to confi
 819:C:/Users/Lenovo/workspace/dave_workspace/SOLAR_TOWER/Libraries/XMCLib/inc\xmc_can.h ****  * It configures FDR register.
 820:C:/Users/Lenovo/workspace/dave_workspace/SOLAR_TOWER/Libraries/XMCLib/inc\xmc_can.h ****  *
 821:C:/Users/Lenovo/workspace/dave_workspace/SOLAR_TOWER/Libraries/XMCLib/inc\xmc_can.h ****  * @note Use XMC_CAN_InitEx() for new projects. XMC_CAN_Init() is kept for backward compatibility r
 822:C:/Users/Lenovo/workspace/dave_workspace/SOLAR_TOWER/Libraries/XMCLib/inc\xmc_can.h ****  *
 823:C:/Users/Lenovo/workspace/dave_workspace/SOLAR_TOWER/Libraries/XMCLib/inc\xmc_can.h ****  * \par<b>Related APIs:</b><BR>
 824:C:/Users/Lenovo/workspace/dave_workspace/SOLAR_TOWER/Libraries/XMCLib/inc\xmc_can.h ****  * XMC_CAN_NODE_NominalBitTimeConfigure(), XMC_CAN_NODE_NominalBitTimeConfigureEx(), XMC_CAN_InitEx
 825:C:/Users/Lenovo/workspace/dave_workspace/SOLAR_TOWER/Libraries/XMCLib/inc\xmc_can.h ****  *
 826:C:/Users/Lenovo/workspace/dave_workspace/SOLAR_TOWER/Libraries/XMCLib/inc\xmc_can.h ****  */
 827:C:/Users/Lenovo/workspace/dave_workspace/SOLAR_TOWER/Libraries/XMCLib/inc\xmc_can.h **** void XMC_CAN_Init(XMC_CAN_t *const obj, XMC_CAN_CANCLKSRC_t clksrc, uint32_t can_frequency);
 828:C:/Users/Lenovo/workspace/dave_workspace/SOLAR_TOWER/Libraries/XMCLib/inc\xmc_can.h **** #else
 829:C:/Users/Lenovo/workspace/dave_workspace/SOLAR_TOWER/Libraries/XMCLib/inc\xmc_can.h **** void XMC_CAN_Init(XMC_CAN_t *const obj, uint32_t can_frequency);
 830:C:/Users/Lenovo/workspace/dave_workspace/SOLAR_TOWER/Libraries/XMCLib/inc\xmc_can.h **** #endif
 831:C:/Users/Lenovo/workspace/dave_workspace/SOLAR_TOWER/Libraries/XMCLib/inc\xmc_can.h **** 
 832:C:/Users/Lenovo/workspace/dave_workspace/SOLAR_TOWER/Libraries/XMCLib/inc\xmc_can.h **** /**
 833:C:/Users/Lenovo/workspace/dave_workspace/SOLAR_TOWER/Libraries/XMCLib/inc\xmc_can.h ****  *
 834:C:/Users/Lenovo/workspace/dave_workspace/SOLAR_TOWER/Libraries/XMCLib/inc\xmc_can.h ****  * @param can_mo Pointer to Message Object structure. Refer @ref XMC_CAN_MO_t data structure for de
 835:C:/Users/Lenovo/workspace/dave_workspace/SOLAR_TOWER/Libraries/XMCLib/inc\xmc_can.h ****  *
 836:C:/Users/Lenovo/workspace/dave_workspace/SOLAR_TOWER/Libraries/XMCLib/inc\xmc_can.h ****  * @return None
 837:C:/Users/Lenovo/workspace/dave_workspace/SOLAR_TOWER/Libraries/XMCLib/inc\xmc_can.h ****  *
 838:C:/Users/Lenovo/workspace/dave_workspace/SOLAR_TOWER/Libraries/XMCLib/inc\xmc_can.h ****  * \par<b>Description:</b><br>
 839:C:/Users/Lenovo/workspace/dave_workspace/SOLAR_TOWER/Libraries/XMCLib/inc\xmc_can.h ****  * Initializes CAN message object. Initialization includes configuring Message Object identifier ty
 840:C:/Users/Lenovo/workspace/dave_workspace/SOLAR_TOWER/Libraries/XMCLib/inc\xmc_can.h ****  * identifier value, Message Object type, and transfer requests. It configures FDR register.
 841:C:/Users/Lenovo/workspace/dave_workspace/SOLAR_TOWER/Libraries/XMCLib/inc\xmc_can.h ****  *
 842:C:/Users/Lenovo/workspace/dave_workspace/SOLAR_TOWER/Libraries/XMCLib/inc\xmc_can.h ****  * \par<b>Related APIs:</b><BR>
 843:C:/Users/Lenovo/workspace/dave_workspace/SOLAR_TOWER/Libraries/XMCLib/inc\xmc_can.h ****  * None
 844:C:/Users/Lenovo/workspace/dave_workspace/SOLAR_TOWER/Libraries/XMCLib/inc\xmc_can.h ****  *
 845:C:/Users/Lenovo/workspace/dave_workspace/SOLAR_TOWER/Libraries/XMCLib/inc\xmc_can.h ****  */
 846:C:/Users/Lenovo/workspace/dave_workspace/SOLAR_TOWER/Libraries/XMCLib/inc\xmc_can.h **** void XMC_CAN_MO_Config(const XMC_CAN_MO_t *const can_mo);
 847:C:/Users/Lenovo/workspace/dave_workspace/SOLAR_TOWER/Libraries/XMCLib/inc\xmc_can.h **** 
 848:C:/Users/Lenovo/workspace/dave_workspace/SOLAR_TOWER/Libraries/XMCLib/inc\xmc_can.h **** /* NODE APIs */
 849:C:/Users/Lenovo/workspace/dave_workspace/SOLAR_TOWER/Libraries/XMCLib/inc\xmc_can.h **** 
 850:C:/Users/Lenovo/workspace/dave_workspace/SOLAR_TOWER/Libraries/XMCLib/inc\xmc_can.h **** /**
 851:C:/Users/Lenovo/workspace/dave_workspace/SOLAR_TOWER/Libraries/XMCLib/inc\xmc_can.h ****  *
 852:C:/Users/Lenovo/workspace/dave_workspace/SOLAR_TOWER/Libraries/XMCLib/inc\xmc_can.h ****  * @param can_node      Pointer pointing to CAN_NODE Structure. Defines CAN_NODE registers.
 853:C:/Users/Lenovo/workspace/dave_workspace/SOLAR_TOWER/Libraries/XMCLib/inc\xmc_can.h ****  * @param ptr_event     CAN_NODE interrupt pointer position. Refer @ref XMC_CAN_NODE_POINTER_EVENT_
 854:C:/Users/Lenovo/workspace/dave_workspace/SOLAR_TOWER/Libraries/XMCLib/inc\xmc_can.h ****  * @param service_request Interrupt service request number. Range : 0-7
 855:C:/Users/Lenovo/workspace/dave_workspace/SOLAR_TOWER/Libraries/XMCLib/inc\xmc_can.h ****  *
 856:C:/Users/Lenovo/workspace/dave_workspace/SOLAR_TOWER/Libraries/XMCLib/inc\xmc_can.h ****  * @return None
 857:C:/Users/Lenovo/workspace/dave_workspace/SOLAR_TOWER/Libraries/XMCLib/inc\xmc_can.h ****  *
 858:C:/Users/Lenovo/workspace/dave_workspace/SOLAR_TOWER/Libraries/XMCLib/inc\xmc_can.h ****  * \par<b>Description:</b><br>
 859:C:/Users/Lenovo/workspace/dave_workspace/SOLAR_TOWER/Libraries/XMCLib/inc\xmc_can.h ****  *  Configures node interrupt pointer \a service_request for CAN Node events \a ptr_event. It confi
 860:C:/Users/Lenovo/workspace/dave_workspace/SOLAR_TOWER/Libraries/XMCLib/inc\xmc_can.h ****  *
 861:C:/Users/Lenovo/workspace/dave_workspace/SOLAR_TOWER/Libraries/XMCLib/inc\xmc_can.h ****  * \par<b>Related APIs:</b><BR>
 862:C:/Users/Lenovo/workspace/dave_workspace/SOLAR_TOWER/Libraries/XMCLib/inc\xmc_can.h ****  * None
 863:C:/Users/Lenovo/workspace/dave_workspace/SOLAR_TOWER/Libraries/XMCLib/inc\xmc_can.h ****  *
 864:C:/Users/Lenovo/workspace/dave_workspace/SOLAR_TOWER/Libraries/XMCLib/inc\xmc_can.h ****  */
 865:C:/Users/Lenovo/workspace/dave_workspace/SOLAR_TOWER/Libraries/XMCLib/inc\xmc_can.h **** 
 866:C:/Users/Lenovo/workspace/dave_workspace/SOLAR_TOWER/Libraries/XMCLib/inc\xmc_can.h **** __STATIC_INLINE void XMC_CAN_NODE_SetEventNodePointer(XMC_CAN_NODE_t *const can_node,
 867:C:/Users/Lenovo/workspace/dave_workspace/SOLAR_TOWER/Libraries/XMCLib/inc\xmc_can.h ****                                           const XMC_CAN_NODE_POINTER_EVENT_t ptr_event,
 868:C:/Users/Lenovo/workspace/dave_workspace/SOLAR_TOWER/Libraries/XMCLib/inc\xmc_can.h ****                                           const uint32_t service_request)
 869:C:/Users/Lenovo/workspace/dave_workspace/SOLAR_TOWER/Libraries/XMCLib/inc\xmc_can.h **** {
 870:C:/Users/Lenovo/workspace/dave_workspace/SOLAR_TOWER/Libraries/XMCLib/inc\xmc_can.h ****   can_node->NIPR = (uint32_t)((can_node->NIPR) & ~(uint32_t)(CAN_NODE_NIPR_Msk << (uint32_t)ptr_eve
 871:C:/Users/Lenovo/workspace/dave_workspace/SOLAR_TOWER/Libraries/XMCLib/inc\xmc_can.h **** }
 872:C:/Users/Lenovo/workspace/dave_workspace/SOLAR_TOWER/Libraries/XMCLib/inc\xmc_can.h **** 
 873:C:/Users/Lenovo/workspace/dave_workspace/SOLAR_TOWER/Libraries/XMCLib/inc\xmc_can.h **** 
 874:C:/Users/Lenovo/workspace/dave_workspace/SOLAR_TOWER/Libraries/XMCLib/inc\xmc_can.h **** /**
 875:C:/Users/Lenovo/workspace/dave_workspace/SOLAR_TOWER/Libraries/XMCLib/inc\xmc_can.h ****  *
 876:C:/Users/Lenovo/workspace/dave_workspace/SOLAR_TOWER/Libraries/XMCLib/inc\xmc_can.h ****  * @param can_node    Pointer pointing to CAN_NODE Structure. Defines CAN_NODE registers. Range :CA
 877:C:/Users/Lenovo/workspace/dave_workspace/SOLAR_TOWER/Libraries/XMCLib/inc\xmc_can.h ****  * @param can_bit_time  Nominal bit time configuration data structure. Refer @ref XMC_CAN_NODE_NOMI
 878:C:/Users/Lenovo/workspace/dave_workspace/SOLAR_TOWER/Libraries/XMCLib/inc\xmc_can.h ****  *
 879:C:/Users/Lenovo/workspace/dave_workspace/SOLAR_TOWER/Libraries/XMCLib/inc\xmc_can.h ****  * @return None
 880:C:/Users/Lenovo/workspace/dave_workspace/SOLAR_TOWER/Libraries/XMCLib/inc\xmc_can.h ****  *
 881:C:/Users/Lenovo/workspace/dave_workspace/SOLAR_TOWER/Libraries/XMCLib/inc\xmc_can.h ****  * \par<b>Description:</b><br>
 882:C:/Users/Lenovo/workspace/dave_workspace/SOLAR_TOWER/Libraries/XMCLib/inc\xmc_can.h ****  * Configures CAN node Baudrate. \a can_bit_time specifies required baudrate for a specified \a can
 883:C:/Users/Lenovo/workspace/dave_workspace/SOLAR_TOWER/Libraries/XMCLib/inc\xmc_can.h ****  * It configures NBTR register.
 884:C:/Users/Lenovo/workspace/dave_workspace/SOLAR_TOWER/Libraries/XMCLib/inc\xmc_can.h ****  *
 885:C:/Users/Lenovo/workspace/dave_workspace/SOLAR_TOWER/Libraries/XMCLib/inc\xmc_can.h ****  * \par<b>Related APIs:</b><BR>
 886:C:/Users/Lenovo/workspace/dave_workspace/SOLAR_TOWER/Libraries/XMCLib/inc\xmc_can.h ****  * None
 887:C:/Users/Lenovo/workspace/dave_workspace/SOLAR_TOWER/Libraries/XMCLib/inc\xmc_can.h ****  *
 888:C:/Users/Lenovo/workspace/dave_workspace/SOLAR_TOWER/Libraries/XMCLib/inc\xmc_can.h ****  */
 889:C:/Users/Lenovo/workspace/dave_workspace/SOLAR_TOWER/Libraries/XMCLib/inc\xmc_can.h **** void XMC_CAN_NODE_NominalBitTimeConfigure(XMC_CAN_NODE_t *const can_node,
 890:C:/Users/Lenovo/workspace/dave_workspace/SOLAR_TOWER/Libraries/XMCLib/inc\xmc_can.h ****                                           const XMC_CAN_NODE_NOMINAL_BIT_TIME_CONFIG_t *const can_b
 891:C:/Users/Lenovo/workspace/dave_workspace/SOLAR_TOWER/Libraries/XMCLib/inc\xmc_can.h **** 
 892:C:/Users/Lenovo/workspace/dave_workspace/SOLAR_TOWER/Libraries/XMCLib/inc\xmc_can.h **** /**
 893:C:/Users/Lenovo/workspace/dave_workspace/SOLAR_TOWER/Libraries/XMCLib/inc\xmc_can.h ****  *
 894:C:/Users/Lenovo/workspace/dave_workspace/SOLAR_TOWER/Libraries/XMCLib/inc\xmc_can.h ****  * @param can_node    Pointer pointing to CAN_NODE Structure. Defines CAN_NODE registers. Range :CA
 895:C:/Users/Lenovo/workspace/dave_workspace/SOLAR_TOWER/Libraries/XMCLib/inc\xmc_can.h ****  * @param can_bit_time  Nominal bit time configuration data structure. Refer @ref XMC_CAN_NODE_NOMI
 896:C:/Users/Lenovo/workspace/dave_workspace/SOLAR_TOWER/Libraries/XMCLib/inc\xmc_can.h ****  *
 897:C:/Users/Lenovo/workspace/dave_workspace/SOLAR_TOWER/Libraries/XMCLib/inc\xmc_can.h ****  * @return Status on the sucess setting the desired bitrate XMC_CAN_STATUS_t
 898:C:/Users/Lenovo/workspace/dave_workspace/SOLAR_TOWER/Libraries/XMCLib/inc\xmc_can.h ****  *
 899:C:/Users/Lenovo/workspace/dave_workspace/SOLAR_TOWER/Libraries/XMCLib/inc\xmc_can.h ****  * \par<b>Description:</b><br>
 900:C:/Users/Lenovo/workspace/dave_workspace/SOLAR_TOWER/Libraries/XMCLib/inc\xmc_can.h ****  * Similar to XMC_CAN_NODE_NominalBitTimeConfigure() configures the CAN node baudrate. 
 901:C:/Users/Lenovo/workspace/dave_workspace/SOLAR_TOWER/Libraries/XMCLib/inc\xmc_can.h ****  * The difference being that allows bitrates below 100kpbs.
 902:C:/Users/Lenovo/workspace/dave_workspace/SOLAR_TOWER/Libraries/XMCLib/inc\xmc_can.h ****  * @note Consider using the new API for new projects. XMC_CAN_NODE_NominalBitTimeConfigure() is kep
 903:C:/Users/Lenovo/workspace/dave_workspace/SOLAR_TOWER/Libraries/XMCLib/inc\xmc_can.h ****  *
 904:C:/Users/Lenovo/workspace/dave_workspace/SOLAR_TOWER/Libraries/XMCLib/inc\xmc_can.h ****  * Configures CAN node Baudrate. \a can_bit_time specifies required baudrate for a specified \a can
 905:C:/Users/Lenovo/workspace/dave_workspace/SOLAR_TOWER/Libraries/XMCLib/inc\xmc_can.h ****  * It configures NBTR register.
 906:C:/Users/Lenovo/workspace/dave_workspace/SOLAR_TOWER/Libraries/XMCLib/inc\xmc_can.h ****  *
 907:C:/Users/Lenovo/workspace/dave_workspace/SOLAR_TOWER/Libraries/XMCLib/inc\xmc_can.h ****  * \par<b>Related APIs:</b><BR>
 908:C:/Users/Lenovo/workspace/dave_workspace/SOLAR_TOWER/Libraries/XMCLib/inc\xmc_can.h ****  * XMC_CAN_InitEx()
 909:C:/Users/Lenovo/workspace/dave_workspace/SOLAR_TOWER/Libraries/XMCLib/inc\xmc_can.h ****  *
 910:C:/Users/Lenovo/workspace/dave_workspace/SOLAR_TOWER/Libraries/XMCLib/inc\xmc_can.h ****  */
 911:C:/Users/Lenovo/workspace/dave_workspace/SOLAR_TOWER/Libraries/XMCLib/inc\xmc_can.h **** int32_t XMC_CAN_NODE_NominalBitTimeConfigureEx(XMC_CAN_NODE_t *const can_node,
 912:C:/Users/Lenovo/workspace/dave_workspace/SOLAR_TOWER/Libraries/XMCLib/inc\xmc_can.h ****                                                const XMC_CAN_NODE_NOMINAL_BIT_TIME_CONFIG_t *const 
 913:C:/Users/Lenovo/workspace/dave_workspace/SOLAR_TOWER/Libraries/XMCLib/inc\xmc_can.h **** 
 914:C:/Users/Lenovo/workspace/dave_workspace/SOLAR_TOWER/Libraries/XMCLib/inc\xmc_can.h **** /**
 915:C:/Users/Lenovo/workspace/dave_workspace/SOLAR_TOWER/Libraries/XMCLib/inc\xmc_can.h ****  * @param can_node Pointer pointing to CAN_NODE Structure. Defines CAN_NODE registers, Range :CAN_N
 916:C:/Users/Lenovo/workspace/dave_workspace/SOLAR_TOWER/Libraries/XMCLib/inc\xmc_can.h ****  * @param input    CAN receive input selection. Refer @ref XMC_CAN_NODE_RECEIVE_INPUT_t for details
 917:C:/Users/Lenovo/workspace/dave_workspace/SOLAR_TOWER/Libraries/XMCLib/inc\xmc_can.h ****  *
 918:C:/Users/Lenovo/workspace/dave_workspace/SOLAR_TOWER/Libraries/XMCLib/inc\xmc_can.h ****  * @return None
 919:C:/Users/Lenovo/workspace/dave_workspace/SOLAR_TOWER/Libraries/XMCLib/inc\xmc_can.h ****  *
 920:C:/Users/Lenovo/workspace/dave_workspace/SOLAR_TOWER/Libraries/XMCLib/inc\xmc_can.h ****  * \par<b>Description:</b><br>
 921:C:/Users/Lenovo/workspace/dave_workspace/SOLAR_TOWER/Libraries/XMCLib/inc\xmc_can.h ****  * \a input specifies CAN input receive pin. This API Configures NPCRx register,it is required to c
 922:C:/Users/Lenovo/workspace/dave_workspace/SOLAR_TOWER/Libraries/XMCLib/inc\xmc_can.h ****  * XMC_CAN_NODE_EnableConfigurationChange(), before configuring NPCRx register, call XMC_CAN_NODE_D
 923:C:/Users/Lenovo/workspace/dave_workspace/SOLAR_TOWER/Libraries/XMCLib/inc\xmc_can.h ****  * API after configuring NPCRx register. CAN input receive pins which falls under analog port pins 
 924:C:/Users/Lenovo/workspace/dave_workspace/SOLAR_TOWER/Libraries/XMCLib/inc\xmc_can.h ****  * XMC_GPIO_EnableDigitalInput(),to enable digital pad.
 925:C:/Users/Lenovo/workspace/dave_workspace/SOLAR_TOWER/Libraries/XMCLib/inc\xmc_can.h ****  *
 926:C:/Users/Lenovo/workspace/dave_workspace/SOLAR_TOWER/Libraries/XMCLib/inc\xmc_can.h ****  *\par<b>Related APIs:</b><BR>
 927:C:/Users/Lenovo/workspace/dave_workspace/SOLAR_TOWER/Libraries/XMCLib/inc\xmc_can.h ****  * None
 928:C:/Users/Lenovo/workspace/dave_workspace/SOLAR_TOWER/Libraries/XMCLib/inc\xmc_can.h ****  *
 929:C:/Users/Lenovo/workspace/dave_workspace/SOLAR_TOWER/Libraries/XMCLib/inc\xmc_can.h ****  * \par<b>Note:</b><br>
 930:C:/Users/Lenovo/workspace/dave_workspace/SOLAR_TOWER/Libraries/XMCLib/inc\xmc_can.h ****  * NPCRx can be written only if bit NCRx.CCE is set.
 931:C:/Users/Lenovo/workspace/dave_workspace/SOLAR_TOWER/Libraries/XMCLib/inc\xmc_can.h ****  *
 932:C:/Users/Lenovo/workspace/dave_workspace/SOLAR_TOWER/Libraries/XMCLib/inc\xmc_can.h ****  */
 933:C:/Users/Lenovo/workspace/dave_workspace/SOLAR_TOWER/Libraries/XMCLib/inc\xmc_can.h **** 
 934:C:/Users/Lenovo/workspace/dave_workspace/SOLAR_TOWER/Libraries/XMCLib/inc\xmc_can.h **** __STATIC_INLINE void XMC_CAN_NODE_SetReceiveInput(XMC_CAN_NODE_t *const can_node,
 935:C:/Users/Lenovo/workspace/dave_workspace/SOLAR_TOWER/Libraries/XMCLib/inc\xmc_can.h ****                                               const XMC_CAN_NODE_RECEIVE_INPUT_t input)
 936:C:/Users/Lenovo/workspace/dave_workspace/SOLAR_TOWER/Libraries/XMCLib/inc\xmc_can.h **** {
 937:C:/Users/Lenovo/workspace/dave_workspace/SOLAR_TOWER/Libraries/XMCLib/inc\xmc_can.h ****   can_node->NPCR = ((can_node->NPCR) & ~(uint32_t)(CAN_NODE_NPCR_RXSEL_Msk)) |
 938:C:/Users/Lenovo/workspace/dave_workspace/SOLAR_TOWER/Libraries/XMCLib/inc\xmc_can.h ****                    (((uint32_t)input << CAN_NODE_NPCR_RXSEL_Pos) & (uint32_t)CAN_NODE_NPCR_RXSEL_Ms
 939:C:/Users/Lenovo/workspace/dave_workspace/SOLAR_TOWER/Libraries/XMCLib/inc\xmc_can.h **** }
 940:C:/Users/Lenovo/workspace/dave_workspace/SOLAR_TOWER/Libraries/XMCLib/inc\xmc_can.h **** 
 941:C:/Users/Lenovo/workspace/dave_workspace/SOLAR_TOWER/Libraries/XMCLib/inc\xmc_can.h **** 
 942:C:/Users/Lenovo/workspace/dave_workspace/SOLAR_TOWER/Libraries/XMCLib/inc\xmc_can.h **** /**
 943:C:/Users/Lenovo/workspace/dave_workspace/SOLAR_TOWER/Libraries/XMCLib/inc\xmc_can.h ****  * @param can_node  Pointer Pointing to CAN_NODE Structure. Defines CAN_NODE registers, Range :CAN_
 944:C:/Users/Lenovo/workspace/dave_workspace/SOLAR_TOWER/Libraries/XMCLib/inc\xmc_can.h ****  *
 945:C:/Users/Lenovo/workspace/dave_workspace/SOLAR_TOWER/Libraries/XMCLib/inc\xmc_can.h ****  * @return None
 946:C:/Users/Lenovo/workspace/dave_workspace/SOLAR_TOWER/Libraries/XMCLib/inc\xmc_can.h ****  *
 947:C:/Users/Lenovo/workspace/dave_workspace/SOLAR_TOWER/Libraries/XMCLib/inc\xmc_can.h ****  * \par<b>Description:</b><br>
 948:C:/Users/Lenovo/workspace/dave_workspace/SOLAR_TOWER/Libraries/XMCLib/inc\xmc_can.h ****  * Enable Node \a can_node in Loop-Back Mode. A Node is connected to an internal (virtual) loop-bac
 949:C:/Users/Lenovo/workspace/dave_workspace/SOLAR_TOWER/Libraries/XMCLib/inc\xmc_can.h ****  * nodes which are in Loop- Back Mode are connected to this virtual CAN bus so that they can commun
 950:C:/Users/Lenovo/workspace/dave_workspace/SOLAR_TOWER/Libraries/XMCLib/inc\xmc_can.h ****  * other internally. The external transmit line is forced recessive in Loop-Back Mode. This API Con
 951:C:/Users/Lenovo/workspace/dave_workspace/SOLAR_TOWER/Libraries/XMCLib/inc\xmc_can.h ****  * call XMC_CAN_NODE_EnableConfigurationChange() API before NPCRx configuration, same way XMC_CAN_N
 952:C:/Users/Lenovo/workspace/dave_workspace/SOLAR_TOWER/Libraries/XMCLib/inc\xmc_can.h ****  * API after NPCRx configuration configuration.
 953:C:/Users/Lenovo/workspace/dave_workspace/SOLAR_TOWER/Libraries/XMCLib/inc\xmc_can.h ****  *
 954:C:/Users/Lenovo/workspace/dave_workspace/SOLAR_TOWER/Libraries/XMCLib/inc\xmc_can.h ****  * \par<b>Related APIs:</b><BR>]
 955:C:/Users/Lenovo/workspace/dave_workspace/SOLAR_TOWER/Libraries/XMCLib/inc\xmc_can.h ****  *  XMC_CAN_NODE_DisableLoopBack().
 956:C:/Users/Lenovo/workspace/dave_workspace/SOLAR_TOWER/Libraries/XMCLib/inc\xmc_can.h ****  *
 957:C:/Users/Lenovo/workspace/dave_workspace/SOLAR_TOWER/Libraries/XMCLib/inc\xmc_can.h ****  *  \par<b>Note:</b><br>
 958:C:/Users/Lenovo/workspace/dave_workspace/SOLAR_TOWER/Libraries/XMCLib/inc\xmc_can.h ****  *  NPCRx can be written only if bit NCRx.CCE is set.
 959:C:/Users/Lenovo/workspace/dave_workspace/SOLAR_TOWER/Libraries/XMCLib/inc\xmc_can.h ****  *
 960:C:/Users/Lenovo/workspace/dave_workspace/SOLAR_TOWER/Libraries/XMCLib/inc\xmc_can.h ****  */
 961:C:/Users/Lenovo/workspace/dave_workspace/SOLAR_TOWER/Libraries/XMCLib/inc\xmc_can.h **** 
 962:C:/Users/Lenovo/workspace/dave_workspace/SOLAR_TOWER/Libraries/XMCLib/inc\xmc_can.h **** __STATIC_INLINE void XMC_CAN_NODE_EnableLoopBack(XMC_CAN_NODE_t *const can_node)
 963:C:/Users/Lenovo/workspace/dave_workspace/SOLAR_TOWER/Libraries/XMCLib/inc\xmc_can.h **** {
 964:C:/Users/Lenovo/workspace/dave_workspace/SOLAR_TOWER/Libraries/XMCLib/inc\xmc_can.h ****   can_node->NPCR |= (uint32_t)CAN_NODE_NPCR_LBM_Msk;
 965:C:/Users/Lenovo/workspace/dave_workspace/SOLAR_TOWER/Libraries/XMCLib/inc\xmc_can.h **** }
 966:C:/Users/Lenovo/workspace/dave_workspace/SOLAR_TOWER/Libraries/XMCLib/inc\xmc_can.h **** 
 967:C:/Users/Lenovo/workspace/dave_workspace/SOLAR_TOWER/Libraries/XMCLib/inc\xmc_can.h **** 
 968:C:/Users/Lenovo/workspace/dave_workspace/SOLAR_TOWER/Libraries/XMCLib/inc\xmc_can.h **** /**
 969:C:/Users/Lenovo/workspace/dave_workspace/SOLAR_TOWER/Libraries/XMCLib/inc\xmc_can.h ****  * @param can_node Pointer Pointing to CAN_NODE Structure. Defines CAN_NODE registers, Range :CAN_N
 970:C:/Users/Lenovo/workspace/dave_workspace/SOLAR_TOWER/Libraries/XMCLib/inc\xmc_can.h ****  *
 971:C:/Users/Lenovo/workspace/dave_workspace/SOLAR_TOWER/Libraries/XMCLib/inc\xmc_can.h ****  * @return None
 972:C:/Users/Lenovo/workspace/dave_workspace/SOLAR_TOWER/Libraries/XMCLib/inc\xmc_can.h ****  *
 973:C:/Users/Lenovo/workspace/dave_workspace/SOLAR_TOWER/Libraries/XMCLib/inc\xmc_can.h ****  * \par<b>Description:</b><br>
 974:C:/Users/Lenovo/workspace/dave_workspace/SOLAR_TOWER/Libraries/XMCLib/inc\xmc_can.h ****  * Disable Node Loop-Back Mode, disables internal (virtual) loop-back CAN bus. This API Configures 
 975:C:/Users/Lenovo/workspace/dave_workspace/SOLAR_TOWER/Libraries/XMCLib/inc\xmc_can.h ****  * Call XMC_CAN_NODE_EnableConfigurationChange() API before NPCRx configuration, same way XMC_CAN_N
 976:C:/Users/Lenovo/workspace/dave_workspace/SOLAR_TOWER/Libraries/XMCLib/inc\xmc_can.h ****  * API after NPCRx configuration.
 977:C:/Users/Lenovo/workspace/dave_workspace/SOLAR_TOWER/Libraries/XMCLib/inc\xmc_can.h ****  *
 978:C:/Users/Lenovo/workspace/dave_workspace/SOLAR_TOWER/Libraries/XMCLib/inc\xmc_can.h ****  * \par<b>Related APIs:</b><BR>]
 979:C:/Users/Lenovo/workspace/dave_workspace/SOLAR_TOWER/Libraries/XMCLib/inc\xmc_can.h ****  * XMC_CAN_NODE_EnableLoopBack()
 980:C:/Users/Lenovo/workspace/dave_workspace/SOLAR_TOWER/Libraries/XMCLib/inc\xmc_can.h ****  *
 981:C:/Users/Lenovo/workspace/dave_workspace/SOLAR_TOWER/Libraries/XMCLib/inc\xmc_can.h ****  *
 982:C:/Users/Lenovo/workspace/dave_workspace/SOLAR_TOWER/Libraries/XMCLib/inc\xmc_can.h ****  * \par<b>Note:</b><br>
 983:C:/Users/Lenovo/workspace/dave_workspace/SOLAR_TOWER/Libraries/XMCLib/inc\xmc_can.h ****  * NPCRx can be written only if bit NCRx.CCE is set.
 984:C:/Users/Lenovo/workspace/dave_workspace/SOLAR_TOWER/Libraries/XMCLib/inc\xmc_can.h ****  *
 985:C:/Users/Lenovo/workspace/dave_workspace/SOLAR_TOWER/Libraries/XMCLib/inc\xmc_can.h ****  */
 986:C:/Users/Lenovo/workspace/dave_workspace/SOLAR_TOWER/Libraries/XMCLib/inc\xmc_can.h **** 
 987:C:/Users/Lenovo/workspace/dave_workspace/SOLAR_TOWER/Libraries/XMCLib/inc\xmc_can.h **** __STATIC_INLINE void XMC_CAN_NODE_DisableLoopBack(XMC_CAN_NODE_t *const can_node)
 988:C:/Users/Lenovo/workspace/dave_workspace/SOLAR_TOWER/Libraries/XMCLib/inc\xmc_can.h **** {
 989:C:/Users/Lenovo/workspace/dave_workspace/SOLAR_TOWER/Libraries/XMCLib/inc\xmc_can.h ****   can_node->NPCR &= ~(uint32_t)CAN_NODE_NPCR_LBM_Msk;
 990:C:/Users/Lenovo/workspace/dave_workspace/SOLAR_TOWER/Libraries/XMCLib/inc\xmc_can.h **** }
 991:C:/Users/Lenovo/workspace/dave_workspace/SOLAR_TOWER/Libraries/XMCLib/inc\xmc_can.h **** 
 992:C:/Users/Lenovo/workspace/dave_workspace/SOLAR_TOWER/Libraries/XMCLib/inc\xmc_can.h **** 
 993:C:/Users/Lenovo/workspace/dave_workspace/SOLAR_TOWER/Libraries/XMCLib/inc\xmc_can.h **** /**
 994:C:/Users/Lenovo/workspace/dave_workspace/SOLAR_TOWER/Libraries/XMCLib/inc\xmc_can.h ****  *
 995:C:/Users/Lenovo/workspace/dave_workspace/SOLAR_TOWER/Libraries/XMCLib/inc\xmc_can.h ****  * @param can_node Pointer Pointing to CAN_NODE Structure. Defines CAN_NODE registers, Range :CAN_N
 996:C:/Users/Lenovo/workspace/dave_workspace/SOLAR_TOWER/Libraries/XMCLib/inc\xmc_can.h ****  * @param event    CAN node event mask value. Refer @ref XMC_CAN_NODE_EVENT_t structure for valid v
 997:C:/Users/Lenovo/workspace/dave_workspace/SOLAR_TOWER/Libraries/XMCLib/inc\xmc_can.h ****  *           multiple events can be ORed.
 998:C:/Users/Lenovo/workspace/dave_workspace/SOLAR_TOWER/Libraries/XMCLib/inc\xmc_can.h ****  *
 999:C:/Users/Lenovo/workspace/dave_workspace/SOLAR_TOWER/Libraries/XMCLib/inc\xmc_can.h ****  * @return None
1000:C:/Users/Lenovo/workspace/dave_workspace/SOLAR_TOWER/Libraries/XMCLib/inc\xmc_can.h ****  *
1001:C:/Users/Lenovo/workspace/dave_workspace/SOLAR_TOWER/Libraries/XMCLib/inc\xmc_can.h ****  * \par<b>Description:</b><br>
1002:C:/Users/Lenovo/workspace/dave_workspace/SOLAR_TOWER/Libraries/XMCLib/inc\xmc_can.h ****  *  Enable CAN Node events. It configures NFCR register.
1003:C:/Users/Lenovo/workspace/dave_workspace/SOLAR_TOWER/Libraries/XMCLib/inc\xmc_can.h ****  *
1004:C:/Users/Lenovo/workspace/dave_workspace/SOLAR_TOWER/Libraries/XMCLib/inc\xmc_can.h ****  * \par<b>Related APIs:</b><BR>
1005:C:/Users/Lenovo/workspace/dave_workspace/SOLAR_TOWER/Libraries/XMCLib/inc\xmc_can.h ****  * XMC_CAN_NODE_DisableEvent()
1006:C:/Users/Lenovo/workspace/dave_workspace/SOLAR_TOWER/Libraries/XMCLib/inc\xmc_can.h ****  *
1007:C:/Users/Lenovo/workspace/dave_workspace/SOLAR_TOWER/Libraries/XMCLib/inc\xmc_can.h ****  */
1008:C:/Users/Lenovo/workspace/dave_workspace/SOLAR_TOWER/Libraries/XMCLib/inc\xmc_can.h **** 
1009:C:/Users/Lenovo/workspace/dave_workspace/SOLAR_TOWER/Libraries/XMCLib/inc\xmc_can.h **** void XMC_CAN_NODE_EnableEvent(XMC_CAN_NODE_t *const can_node, const XMC_CAN_NODE_EVENT_t event);
1010:C:/Users/Lenovo/workspace/dave_workspace/SOLAR_TOWER/Libraries/XMCLib/inc\xmc_can.h **** 
1011:C:/Users/Lenovo/workspace/dave_workspace/SOLAR_TOWER/Libraries/XMCLib/inc\xmc_can.h **** 
1012:C:/Users/Lenovo/workspace/dave_workspace/SOLAR_TOWER/Libraries/XMCLib/inc\xmc_can.h **** /**
1013:C:/Users/Lenovo/workspace/dave_workspace/SOLAR_TOWER/Libraries/XMCLib/inc\xmc_can.h ****  *
1014:C:/Users/Lenovo/workspace/dave_workspace/SOLAR_TOWER/Libraries/XMCLib/inc\xmc_can.h ****  * @param can_node Pointer Pointing to CAN_NODE Structure. Defines CAN_NODE registers, Range :CAN_N
1015:C:/Users/Lenovo/workspace/dave_workspace/SOLAR_TOWER/Libraries/XMCLib/inc\xmc_can.h ****  * @param event    CAN node event mask value. Refer @ref XMC_CAN_NODE_EVENT_t structure for valid v
1016:C:/Users/Lenovo/workspace/dave_workspace/SOLAR_TOWER/Libraries/XMCLib/inc\xmc_can.h ****  *           multiple events can be ORed.
1017:C:/Users/Lenovo/workspace/dave_workspace/SOLAR_TOWER/Libraries/XMCLib/inc\xmc_can.h ****  *
1018:C:/Users/Lenovo/workspace/dave_workspace/SOLAR_TOWER/Libraries/XMCLib/inc\xmc_can.h ****  * @return None
1019:C:/Users/Lenovo/workspace/dave_workspace/SOLAR_TOWER/Libraries/XMCLib/inc\xmc_can.h ****  *
1020:C:/Users/Lenovo/workspace/dave_workspace/SOLAR_TOWER/Libraries/XMCLib/inc\xmc_can.h ****  * \par<b>Description:</b><br>
1021:C:/Users/Lenovo/workspace/dave_workspace/SOLAR_TOWER/Libraries/XMCLib/inc\xmc_can.h ****  *  Disable CAN Node events. It configures NFCR register.
1022:C:/Users/Lenovo/workspace/dave_workspace/SOLAR_TOWER/Libraries/XMCLib/inc\xmc_can.h ****  *
1023:C:/Users/Lenovo/workspace/dave_workspace/SOLAR_TOWER/Libraries/XMCLib/inc\xmc_can.h ****  * \par<b>Related APIs:</b><BR>
1024:C:/Users/Lenovo/workspace/dave_workspace/SOLAR_TOWER/Libraries/XMCLib/inc\xmc_can.h ****  * XMC_CAN_NODE_EnableEvent()
1025:C:/Users/Lenovo/workspace/dave_workspace/SOLAR_TOWER/Libraries/XMCLib/inc\xmc_can.h ****  *
1026:C:/Users/Lenovo/workspace/dave_workspace/SOLAR_TOWER/Libraries/XMCLib/inc\xmc_can.h ****  */
1027:C:/Users/Lenovo/workspace/dave_workspace/SOLAR_TOWER/Libraries/XMCLib/inc\xmc_can.h **** 
1028:C:/Users/Lenovo/workspace/dave_workspace/SOLAR_TOWER/Libraries/XMCLib/inc\xmc_can.h **** void XMC_CAN_NODE_DisableEvent(XMC_CAN_NODE_t *const can_node, const XMC_CAN_NODE_EVENT_t event);
1029:C:/Users/Lenovo/workspace/dave_workspace/SOLAR_TOWER/Libraries/XMCLib/inc\xmc_can.h **** 
1030:C:/Users/Lenovo/workspace/dave_workspace/SOLAR_TOWER/Libraries/XMCLib/inc\xmc_can.h **** 
1031:C:/Users/Lenovo/workspace/dave_workspace/SOLAR_TOWER/Libraries/XMCLib/inc\xmc_can.h **** /**
1032:C:/Users/Lenovo/workspace/dave_workspace/SOLAR_TOWER/Libraries/XMCLib/inc\xmc_can.h ****  *
1033:C:/Users/Lenovo/workspace/dave_workspace/SOLAR_TOWER/Libraries/XMCLib/inc\xmc_can.h ****  * @param node Pointer Pointing to CAN_NODE Structure. Defines CAN_NODE registers, Range :CAN_NODE0
1034:C:/Users/Lenovo/workspace/dave_workspace/SOLAR_TOWER/Libraries/XMCLib/inc\xmc_can.h ****  *
1035:C:/Users/Lenovo/workspace/dave_workspace/SOLAR_TOWER/Libraries/XMCLib/inc\xmc_can.h ****  * @return XMC_CAN_NODE_LAST_ERROR_DIR_t Last error transfer direction. Refer @ref XMC_CAN_NODE_LAS
1036:C:/Users/Lenovo/workspace/dave_workspace/SOLAR_TOWER/Libraries/XMCLib/inc\xmc_can.h ****  *
1037:C:/Users/Lenovo/workspace/dave_workspace/SOLAR_TOWER/Libraries/XMCLib/inc\xmc_can.h ****  * \par<b>Description:</b><br>
1038:C:/Users/Lenovo/workspace/dave_workspace/SOLAR_TOWER/Libraries/XMCLib/inc\xmc_can.h ****  * Returns NODE Last Error occurred during Transmit/receive direction. It returns value of NFCR reg
1039:C:/Users/Lenovo/workspace/dave_workspace/SOLAR_TOWER/Libraries/XMCLib/inc\xmc_can.h ****  *
1040:C:/Users/Lenovo/workspace/dave_workspace/SOLAR_TOWER/Libraries/XMCLib/inc\xmc_can.h ****  * \par<b>Related APIs:</b><BR>
1041:C:/Users/Lenovo/workspace/dave_workspace/SOLAR_TOWER/Libraries/XMCLib/inc\xmc_can.h ****  * XMC_CAN_NODE_GetLastErrTransferInc()\n\n\n
1042:C:/Users/Lenovo/workspace/dave_workspace/SOLAR_TOWER/Libraries/XMCLib/inc\xmc_can.h ****  *
1043:C:/Users/Lenovo/workspace/dave_workspace/SOLAR_TOWER/Libraries/XMCLib/inc\xmc_can.h ****  */
1044:C:/Users/Lenovo/workspace/dave_workspace/SOLAR_TOWER/Libraries/XMCLib/inc\xmc_can.h **** 
1045:C:/Users/Lenovo/workspace/dave_workspace/SOLAR_TOWER/Libraries/XMCLib/inc\xmc_can.h **** __STATIC_INLINE XMC_CAN_NODE_LAST_ERROR_DIR_t XMC_CAN_NODE_GetLastErrTransferDir(XMC_CAN_NODE_t *co
1046:C:/Users/Lenovo/workspace/dave_workspace/SOLAR_TOWER/Libraries/XMCLib/inc\xmc_can.h **** {
1047:C:/Users/Lenovo/workspace/dave_workspace/SOLAR_TOWER/Libraries/XMCLib/inc\xmc_can.h ****   return (XMC_CAN_NODE_LAST_ERROR_DIR_t)(((node->NECNT) & CAN_NODE_NECNT_LETD_Msk) >> CAN_NODE_NECN
1048:C:/Users/Lenovo/workspace/dave_workspace/SOLAR_TOWER/Libraries/XMCLib/inc\xmc_can.h **** }
1049:C:/Users/Lenovo/workspace/dave_workspace/SOLAR_TOWER/Libraries/XMCLib/inc\xmc_can.h **** 
1050:C:/Users/Lenovo/workspace/dave_workspace/SOLAR_TOWER/Libraries/XMCLib/inc\xmc_can.h **** 
1051:C:/Users/Lenovo/workspace/dave_workspace/SOLAR_TOWER/Libraries/XMCLib/inc\xmc_can.h **** /**
1052:C:/Users/Lenovo/workspace/dave_workspace/SOLAR_TOWER/Libraries/XMCLib/inc\xmc_can.h ****  *
1053:C:/Users/Lenovo/workspace/dave_workspace/SOLAR_TOWER/Libraries/XMCLib/inc\xmc_can.h ****  * @param node Pointer Pointing to CAN_NODE Structure. Defines CAN_NODE registers, Range :CAN_NODE0
1054:C:/Users/Lenovo/workspace/dave_workspace/SOLAR_TOWER/Libraries/XMCLib/inc\xmc_can.h ****  *
1055:C:/Users/Lenovo/workspace/dave_workspace/SOLAR_TOWER/Libraries/XMCLib/inc\xmc_can.h ****  * @return XMC_CAN_NODE_LAST_ERROR_INC_t Last error transfer increment. Refer @ref XMC_CAN_NODE_LAS
1056:C:/Users/Lenovo/workspace/dave_workspace/SOLAR_TOWER/Libraries/XMCLib/inc\xmc_can.h ****  *
1057:C:/Users/Lenovo/workspace/dave_workspace/SOLAR_TOWER/Libraries/XMCLib/inc\xmc_can.h ****  * \par<b>Description:</b><br>
1058:C:/Users/Lenovo/workspace/dave_workspace/SOLAR_TOWER/Libraries/XMCLib/inc\xmc_can.h ****  *  Returns NODE Last Error Transfer Increment. It returns value of NFCR register.
1059:C:/Users/Lenovo/workspace/dave_workspace/SOLAR_TOWER/Libraries/XMCLib/inc\xmc_can.h ****  *
1060:C:/Users/Lenovo/workspace/dave_workspace/SOLAR_TOWER/Libraries/XMCLib/inc\xmc_can.h ****  * \par<b>Related APIs:</b><BR>
1061:C:/Users/Lenovo/workspace/dave_workspace/SOLAR_TOWER/Libraries/XMCLib/inc\xmc_can.h ****  * XMC_CAN_NODE_GetLastErrTransferDir()\n\n\n
1062:C:/Users/Lenovo/workspace/dave_workspace/SOLAR_TOWER/Libraries/XMCLib/inc\xmc_can.h ****  *
1063:C:/Users/Lenovo/workspace/dave_workspace/SOLAR_TOWER/Libraries/XMCLib/inc\xmc_can.h ****  */
1064:C:/Users/Lenovo/workspace/dave_workspace/SOLAR_TOWER/Libraries/XMCLib/inc\xmc_can.h **** 
1065:C:/Users/Lenovo/workspace/dave_workspace/SOLAR_TOWER/Libraries/XMCLib/inc\xmc_can.h **** __STATIC_INLINE XMC_CAN_NODE_LAST_ERROR_INC_t XMC_CAN_NODE_GetLastErrTransferInc(XMC_CAN_NODE_t *co
1066:C:/Users/Lenovo/workspace/dave_workspace/SOLAR_TOWER/Libraries/XMCLib/inc\xmc_can.h **** {
1067:C:/Users/Lenovo/workspace/dave_workspace/SOLAR_TOWER/Libraries/XMCLib/inc\xmc_can.h ****   return (XMC_CAN_NODE_LAST_ERROR_INC_t)(((node->NECNT) & CAN_NODE_NECNT_LEINC_Msk)>> CAN_NODE_NECN
1068:C:/Users/Lenovo/workspace/dave_workspace/SOLAR_TOWER/Libraries/XMCLib/inc\xmc_can.h **** }
1069:C:/Users/Lenovo/workspace/dave_workspace/SOLAR_TOWER/Libraries/XMCLib/inc\xmc_can.h **** 
1070:C:/Users/Lenovo/workspace/dave_workspace/SOLAR_TOWER/Libraries/XMCLib/inc\xmc_can.h **** 
1071:C:/Users/Lenovo/workspace/dave_workspace/SOLAR_TOWER/Libraries/XMCLib/inc\xmc_can.h **** /**
1072:C:/Users/Lenovo/workspace/dave_workspace/SOLAR_TOWER/Libraries/XMCLib/inc\xmc_can.h ****  *
1073:C:/Users/Lenovo/workspace/dave_workspace/SOLAR_TOWER/Libraries/XMCLib/inc\xmc_can.h ****  * @param can_node Pointer Pointing to CAN_NODE Structure. Defines CAN_NODE registers, Range :CAN_N
1074:C:/Users/Lenovo/workspace/dave_workspace/SOLAR_TOWER/Libraries/XMCLib/inc\xmc_can.h ****  * @param  error_warning_level  Error Warning level value. Range :0-255.
1075:C:/Users/Lenovo/workspace/dave_workspace/SOLAR_TOWER/Libraries/XMCLib/inc\xmc_can.h ****  *
1076:C:/Users/Lenovo/workspace/dave_workspace/SOLAR_TOWER/Libraries/XMCLib/inc\xmc_can.h ****  * @return None
1077:C:/Users/Lenovo/workspace/dave_workspace/SOLAR_TOWER/Libraries/XMCLib/inc\xmc_can.h ****  *
1078:C:/Users/Lenovo/workspace/dave_workspace/SOLAR_TOWER/Libraries/XMCLib/inc\xmc_can.h ****  * \par<b>Description:</b><br>
1079:C:/Users/Lenovo/workspace/dave_workspace/SOLAR_TOWER/Libraries/XMCLib/inc\xmc_can.h ****  * Configures error warning level in order to set the corresponding error warning bit EWRN. It conf
1080:C:/Users/Lenovo/workspace/dave_workspace/SOLAR_TOWER/Libraries/XMCLib/inc\xmc_can.h ****  * into NECNT register. Before this configuration call XMC_CAN_NODE_EnableConfigurationChange() API
1081:C:/Users/Lenovo/workspace/dave_workspace/SOLAR_TOWER/Libraries/XMCLib/inc\xmc_can.h ****  *
1082:C:/Users/Lenovo/workspace/dave_workspace/SOLAR_TOWER/Libraries/XMCLib/inc\xmc_can.h ****  * \par<b>Related APIs:</b><BR>
1083:C:/Users/Lenovo/workspace/dave_workspace/SOLAR_TOWER/Libraries/XMCLib/inc\xmc_can.h ****  * XMC_CAN_NODE_GetErrorWarningLevel()\n\n\n
1084:C:/Users/Lenovo/workspace/dave_workspace/SOLAR_TOWER/Libraries/XMCLib/inc\xmc_can.h ****  *
1085:C:/Users/Lenovo/workspace/dave_workspace/SOLAR_TOWER/Libraries/XMCLib/inc\xmc_can.h ****  * \par<b>Note:</b><br>
1086:C:/Users/Lenovo/workspace/dave_workspace/SOLAR_TOWER/Libraries/XMCLib/inc\xmc_can.h ****  *  NECNTx can be written only if bit NCRx.CCE is set.
1087:C:/Users/Lenovo/workspace/dave_workspace/SOLAR_TOWER/Libraries/XMCLib/inc\xmc_can.h ****  *
1088:C:/Users/Lenovo/workspace/dave_workspace/SOLAR_TOWER/Libraries/XMCLib/inc\xmc_can.h ****  */
1089:C:/Users/Lenovo/workspace/dave_workspace/SOLAR_TOWER/Libraries/XMCLib/inc\xmc_can.h **** 
1090:C:/Users/Lenovo/workspace/dave_workspace/SOLAR_TOWER/Libraries/XMCLib/inc\xmc_can.h **** __STATIC_INLINE void XMC_CAN_NODE_SetErrorWarningLevel(XMC_CAN_NODE_t *const can_node, uint8_t erro
1091:C:/Users/Lenovo/workspace/dave_workspace/SOLAR_TOWER/Libraries/XMCLib/inc\xmc_can.h **** {
1092:C:/Users/Lenovo/workspace/dave_workspace/SOLAR_TOWER/Libraries/XMCLib/inc\xmc_can.h ****   can_node->NECNT = ((can_node->NECNT) & ~(uint32_t)(CAN_NODE_NECNT_EWRNLVL_Msk)) |
1093:C:/Users/Lenovo/workspace/dave_workspace/SOLAR_TOWER/Libraries/XMCLib/inc\xmc_can.h ****                     (((uint32_t)error_warning_level << CAN_NODE_NECNT_EWRNLVL_Pos) & (uint32_t)CAN_
1094:C:/Users/Lenovo/workspace/dave_workspace/SOLAR_TOWER/Libraries/XMCLib/inc\xmc_can.h **** }
1095:C:/Users/Lenovo/workspace/dave_workspace/SOLAR_TOWER/Libraries/XMCLib/inc\xmc_can.h **** 
1096:C:/Users/Lenovo/workspace/dave_workspace/SOLAR_TOWER/Libraries/XMCLib/inc\xmc_can.h **** 
1097:C:/Users/Lenovo/workspace/dave_workspace/SOLAR_TOWER/Libraries/XMCLib/inc\xmc_can.h **** /**
1098:C:/Users/Lenovo/workspace/dave_workspace/SOLAR_TOWER/Libraries/XMCLib/inc\xmc_can.h ****  *
1099:C:/Users/Lenovo/workspace/dave_workspace/SOLAR_TOWER/Libraries/XMCLib/inc\xmc_can.h ****  * @param can_node Pointer Pointing to CAN_NODE Structure. Defines CAN_NODE registers, Range :CAN_N
1100:C:/Users/Lenovo/workspace/dave_workspace/SOLAR_TOWER/Libraries/XMCLib/inc\xmc_can.h ****  * @param can_tec  transmit error counter value. Range :0-255
1101:C:/Users/Lenovo/workspace/dave_workspace/SOLAR_TOWER/Libraries/XMCLib/inc\xmc_can.h ****  *
1102:C:/Users/Lenovo/workspace/dave_workspace/SOLAR_TOWER/Libraries/XMCLib/inc\xmc_can.h ****  * @return None
1103:C:/Users/Lenovo/workspace/dave_workspace/SOLAR_TOWER/Libraries/XMCLib/inc\xmc_can.h ****  *
1104:C:/Users/Lenovo/workspace/dave_workspace/SOLAR_TOWER/Libraries/XMCLib/inc\xmc_can.h ****  * \par<b>Description:</b><br>
1105:C:/Users/Lenovo/workspace/dave_workspace/SOLAR_TOWER/Libraries/XMCLib/inc\xmc_can.h ****  *  Configures Transmit error counter. It configures \a can_tec into NECNT register. Before this co
1106:C:/Users/Lenovo/workspace/dave_workspace/SOLAR_TOWER/Libraries/XMCLib/inc\xmc_can.h ****  *  XMC_CAN_NODE_EnableConfigurationChange() API.
1107:C:/Users/Lenovo/workspace/dave_workspace/SOLAR_TOWER/Libraries/XMCLib/inc\xmc_can.h ****  *
1108:C:/Users/Lenovo/workspace/dave_workspace/SOLAR_TOWER/Libraries/XMCLib/inc\xmc_can.h ****  * \par<b>Related APIs:</b><BR>
1109:C:/Users/Lenovo/workspace/dave_workspace/SOLAR_TOWER/Libraries/XMCLib/inc\xmc_can.h ****  * XMC_CAN_NODE_GetTransmitErrorCounter()\n\n\n
1110:C:/Users/Lenovo/workspace/dave_workspace/SOLAR_TOWER/Libraries/XMCLib/inc\xmc_can.h ****  *
1111:C:/Users/Lenovo/workspace/dave_workspace/SOLAR_TOWER/Libraries/XMCLib/inc\xmc_can.h ****  *  \par<b>Note:</b><br>
1112:C:/Users/Lenovo/workspace/dave_workspace/SOLAR_TOWER/Libraries/XMCLib/inc\xmc_can.h ****  *  NECNTx can be written only if bit NCRx.CCE is set.
1113:C:/Users/Lenovo/workspace/dave_workspace/SOLAR_TOWER/Libraries/XMCLib/inc\xmc_can.h ****  *
1114:C:/Users/Lenovo/workspace/dave_workspace/SOLAR_TOWER/Libraries/XMCLib/inc\xmc_can.h ****  */
1115:C:/Users/Lenovo/workspace/dave_workspace/SOLAR_TOWER/Libraries/XMCLib/inc\xmc_can.h **** 
1116:C:/Users/Lenovo/workspace/dave_workspace/SOLAR_TOWER/Libraries/XMCLib/inc\xmc_can.h **** 
1117:C:/Users/Lenovo/workspace/dave_workspace/SOLAR_TOWER/Libraries/XMCLib/inc\xmc_can.h **** __STATIC_INLINE void XMC_CAN_NODE_SetTransmitErrorCounter(XMC_CAN_NODE_t *const can_node, uint8_t c
1118:C:/Users/Lenovo/workspace/dave_workspace/SOLAR_TOWER/Libraries/XMCLib/inc\xmc_can.h **** {
1119:C:/Users/Lenovo/workspace/dave_workspace/SOLAR_TOWER/Libraries/XMCLib/inc\xmc_can.h ****   can_node->NECNT = ((can_node->NECNT) & ~(uint32_t)(CAN_NODE_NECNT_TEC_Msk)) |
1120:C:/Users/Lenovo/workspace/dave_workspace/SOLAR_TOWER/Libraries/XMCLib/inc\xmc_can.h ****                     (((uint32_t)can_tec << CAN_NODE_NECNT_TEC_Pos) & (uint32_t)CAN_NODE_NECNT_TEC_M
1121:C:/Users/Lenovo/workspace/dave_workspace/SOLAR_TOWER/Libraries/XMCLib/inc\xmc_can.h **** }
1122:C:/Users/Lenovo/workspace/dave_workspace/SOLAR_TOWER/Libraries/XMCLib/inc\xmc_can.h **** 
1123:C:/Users/Lenovo/workspace/dave_workspace/SOLAR_TOWER/Libraries/XMCLib/inc\xmc_can.h **** 
1124:C:/Users/Lenovo/workspace/dave_workspace/SOLAR_TOWER/Libraries/XMCLib/inc\xmc_can.h **** /**
1125:C:/Users/Lenovo/workspace/dave_workspace/SOLAR_TOWER/Libraries/XMCLib/inc\xmc_can.h ****  *
1126:C:/Users/Lenovo/workspace/dave_workspace/SOLAR_TOWER/Libraries/XMCLib/inc\xmc_can.h ****  * @param can_node Pointer Pointing to CAN_NODE Structure. Defines CAN_NODE registers, Range :CAN_N
1127:C:/Users/Lenovo/workspace/dave_workspace/SOLAR_TOWER/Libraries/XMCLib/inc\xmc_can.h ****  * @param can_rec  receive error counter value. Range :0-255
1128:C:/Users/Lenovo/workspace/dave_workspace/SOLAR_TOWER/Libraries/XMCLib/inc\xmc_can.h ****  *
1129:C:/Users/Lenovo/workspace/dave_workspace/SOLAR_TOWER/Libraries/XMCLib/inc\xmc_can.h ****  * @return None
1130:C:/Users/Lenovo/workspace/dave_workspace/SOLAR_TOWER/Libraries/XMCLib/inc\xmc_can.h ****  *
1131:C:/Users/Lenovo/workspace/dave_workspace/SOLAR_TOWER/Libraries/XMCLib/inc\xmc_can.h ****  * \par<b>Description:</b><br>
1132:C:/Users/Lenovo/workspace/dave_workspace/SOLAR_TOWER/Libraries/XMCLib/inc\xmc_can.h ****  * Configures Receive Error Counter. It configures \a can_rec into NECNT register. Before this conf
1133:C:/Users/Lenovo/workspace/dave_workspace/SOLAR_TOWER/Libraries/XMCLib/inc\xmc_can.h ****  * XMC_CAN_NODE_EnableConfigurationChange() API.
1134:C:/Users/Lenovo/workspace/dave_workspace/SOLAR_TOWER/Libraries/XMCLib/inc\xmc_can.h ****  *
1135:C:/Users/Lenovo/workspace/dave_workspace/SOLAR_TOWER/Libraries/XMCLib/inc\xmc_can.h ****  * \par<b>Related APIs:</b><BR>
1136:C:/Users/Lenovo/workspace/dave_workspace/SOLAR_TOWER/Libraries/XMCLib/inc\xmc_can.h ****  * XMC_CAN_NODE_GetReceiveErrorCounter()\n\n\n
1137:C:/Users/Lenovo/workspace/dave_workspace/SOLAR_TOWER/Libraries/XMCLib/inc\xmc_can.h ****  *
1138:C:/Users/Lenovo/workspace/dave_workspace/SOLAR_TOWER/Libraries/XMCLib/inc\xmc_can.h ****  * \par<b>Note:</b><br>
1139:C:/Users/Lenovo/workspace/dave_workspace/SOLAR_TOWER/Libraries/XMCLib/inc\xmc_can.h ****  *  NECNTx can be written only if bit NCRx.CCE is set.
1140:C:/Users/Lenovo/workspace/dave_workspace/SOLAR_TOWER/Libraries/XMCLib/inc\xmc_can.h ****  *
1141:C:/Users/Lenovo/workspace/dave_workspace/SOLAR_TOWER/Libraries/XMCLib/inc\xmc_can.h ****  */
1142:C:/Users/Lenovo/workspace/dave_workspace/SOLAR_TOWER/Libraries/XMCLib/inc\xmc_can.h **** 
1143:C:/Users/Lenovo/workspace/dave_workspace/SOLAR_TOWER/Libraries/XMCLib/inc\xmc_can.h **** __STATIC_INLINE void XMC_CAN_NODE_SetReceiveErrorCounter(XMC_CAN_NODE_t *const can_node, uint8_t ca
1144:C:/Users/Lenovo/workspace/dave_workspace/SOLAR_TOWER/Libraries/XMCLib/inc\xmc_can.h **** {
1145:C:/Users/Lenovo/workspace/dave_workspace/SOLAR_TOWER/Libraries/XMCLib/inc\xmc_can.h ****  can_node->NECNT = ((can_node->NECNT) & ~(uint32_t)(CAN_NODE_NECNT_REC_Msk)) |
1146:C:/Users/Lenovo/workspace/dave_workspace/SOLAR_TOWER/Libraries/XMCLib/inc\xmc_can.h ****                    (((uint32_t)can_rec << CAN_NODE_NECNT_REC_Pos) & (uint32_t)CAN_NODE_NECNT_REC_Ms
1147:C:/Users/Lenovo/workspace/dave_workspace/SOLAR_TOWER/Libraries/XMCLib/inc\xmc_can.h **** }
1148:C:/Users/Lenovo/workspace/dave_workspace/SOLAR_TOWER/Libraries/XMCLib/inc\xmc_can.h **** 
1149:C:/Users/Lenovo/workspace/dave_workspace/SOLAR_TOWER/Libraries/XMCLib/inc\xmc_can.h **** 
1150:C:/Users/Lenovo/workspace/dave_workspace/SOLAR_TOWER/Libraries/XMCLib/inc\xmc_can.h **** /**
1151:C:/Users/Lenovo/workspace/dave_workspace/SOLAR_TOWER/Libraries/XMCLib/inc\xmc_can.h ****  *
1152:C:/Users/Lenovo/workspace/dave_workspace/SOLAR_TOWER/Libraries/XMCLib/inc\xmc_can.h ****  * @param can_node Pointer Pointing to CAN_NODE Structure. Defines CAN_NODE registers, Range :CAN_N
1153:C:/Users/Lenovo/workspace/dave_workspace/SOLAR_TOWER/Libraries/XMCLib/inc\xmc_can.h ****  *
1154:C:/Users/Lenovo/workspace/dave_workspace/SOLAR_TOWER/Libraries/XMCLib/inc\xmc_can.h ****  * @return uint8_t Error Warning Level. Range :0 - 255
1155:C:/Users/Lenovo/workspace/dave_workspace/SOLAR_TOWER/Libraries/XMCLib/inc\xmc_can.h ****  *
1156:C:/Users/Lenovo/workspace/dave_workspace/SOLAR_TOWER/Libraries/XMCLib/inc\xmc_can.h ****  * \par<b>Description:</b><br>
1157:C:/Users/Lenovo/workspace/dave_workspace/SOLAR_TOWER/Libraries/XMCLib/inc\xmc_can.h ****  *  Returns error warning level. This determines the threshold value (warning level, default 96) to
1158:C:/Users/Lenovo/workspace/dave_workspace/SOLAR_TOWER/Libraries/XMCLib/inc\xmc_can.h ****  *  to set the corresponding error warning bit EWRN. It reads NECNT register.
1159:C:/Users/Lenovo/workspace/dave_workspace/SOLAR_TOWER/Libraries/XMCLib/inc\xmc_can.h ****  *
1160:C:/Users/Lenovo/workspace/dave_workspace/SOLAR_TOWER/Libraries/XMCLib/inc\xmc_can.h ****  * \par<b>Related APIs:</b><BR>
1161:C:/Users/Lenovo/workspace/dave_workspace/SOLAR_TOWER/Libraries/XMCLib/inc\xmc_can.h ****  * XMC_CAN_NODE_SetErrorWarningLevel()\n\n\n
1162:C:/Users/Lenovo/workspace/dave_workspace/SOLAR_TOWER/Libraries/XMCLib/inc\xmc_can.h ****  *
1163:C:/Users/Lenovo/workspace/dave_workspace/SOLAR_TOWER/Libraries/XMCLib/inc\xmc_can.h ****  */
1164:C:/Users/Lenovo/workspace/dave_workspace/SOLAR_TOWER/Libraries/XMCLib/inc\xmc_can.h **** 
1165:C:/Users/Lenovo/workspace/dave_workspace/SOLAR_TOWER/Libraries/XMCLib/inc\xmc_can.h **** 
1166:C:/Users/Lenovo/workspace/dave_workspace/SOLAR_TOWER/Libraries/XMCLib/inc\xmc_can.h **** __STATIC_INLINE uint8_t XMC_CAN_NODE_GetErrorWarningLevel(XMC_CAN_NODE_t *const can_node)
1167:C:/Users/Lenovo/workspace/dave_workspace/SOLAR_TOWER/Libraries/XMCLib/inc\xmc_can.h **** {
1168:C:/Users/Lenovo/workspace/dave_workspace/SOLAR_TOWER/Libraries/XMCLib/inc\xmc_can.h ****  return (uint8_t)((uint32_t)((can_node->NECNT)  & CAN_NODE_NECNT_EWRNLVL_Msk) >> CAN_NODE_NECNT_EWR
1169:C:/Users/Lenovo/workspace/dave_workspace/SOLAR_TOWER/Libraries/XMCLib/inc\xmc_can.h **** }
1170:C:/Users/Lenovo/workspace/dave_workspace/SOLAR_TOWER/Libraries/XMCLib/inc\xmc_can.h **** 
1171:C:/Users/Lenovo/workspace/dave_workspace/SOLAR_TOWER/Libraries/XMCLib/inc\xmc_can.h **** 
1172:C:/Users/Lenovo/workspace/dave_workspace/SOLAR_TOWER/Libraries/XMCLib/inc\xmc_can.h **** /**
1173:C:/Users/Lenovo/workspace/dave_workspace/SOLAR_TOWER/Libraries/XMCLib/inc\xmc_can.h ****  *
1174:C:/Users/Lenovo/workspace/dave_workspace/SOLAR_TOWER/Libraries/XMCLib/inc\xmc_can.h ****  * @param can_node Pointer Pointing to CAN_NODE Structure. Defines CAN_NODE registers, Range :CAN_N
1175:C:/Users/Lenovo/workspace/dave_workspace/SOLAR_TOWER/Libraries/XMCLib/inc\xmc_can.h ****  *
1176:C:/Users/Lenovo/workspace/dave_workspace/SOLAR_TOWER/Libraries/XMCLib/inc\xmc_can.h ****  * @return uint8_t transmit error counter value. Range :0 - 255
1177:C:/Users/Lenovo/workspace/dave_workspace/SOLAR_TOWER/Libraries/XMCLib/inc\xmc_can.h ****  *
1178:C:/Users/Lenovo/workspace/dave_workspace/SOLAR_TOWER/Libraries/XMCLib/inc\xmc_can.h ****  * \par<b>Description:</b><br>
1179:C:/Users/Lenovo/workspace/dave_workspace/SOLAR_TOWER/Libraries/XMCLib/inc\xmc_can.h ****  *  Returns Transmit Error Counter value. If the Bitstream Processor detects an error while a trans
1180:C:/Users/Lenovo/workspace/dave_workspace/SOLAR_TOWER/Libraries/XMCLib/inc\xmc_can.h ****  *  running, the Transmit Error Counter is incremented by 8. An increment of 1 is used when the err
1181:C:/Users/Lenovo/workspace/dave_workspace/SOLAR_TOWER/Libraries/XMCLib/inc\xmc_can.h ****  *  reported by an external CAN node via an Error Frame generation. It reads NECNT register.
1182:C:/Users/Lenovo/workspace/dave_workspace/SOLAR_TOWER/Libraries/XMCLib/inc\xmc_can.h ****  *
1183:C:/Users/Lenovo/workspace/dave_workspace/SOLAR_TOWER/Libraries/XMCLib/inc\xmc_can.h ****  * \par<b>Related APIs:</b><BR>
1184:C:/Users/Lenovo/workspace/dave_workspace/SOLAR_TOWER/Libraries/XMCLib/inc\xmc_can.h ****  * XMC_CAN_NODE_SetTransmitErrorCounter()
1185:C:/Users/Lenovo/workspace/dave_workspace/SOLAR_TOWER/Libraries/XMCLib/inc\xmc_can.h ****  *
1186:C:/Users/Lenovo/workspace/dave_workspace/SOLAR_TOWER/Libraries/XMCLib/inc\xmc_can.h ****  * \par<b>Note:</b><br>
1187:C:/Users/Lenovo/workspace/dave_workspace/SOLAR_TOWER/Libraries/XMCLib/inc\xmc_can.h ****  *  NECNTx can be written only if bit NCRx.CCE is set.
1188:C:/Users/Lenovo/workspace/dave_workspace/SOLAR_TOWER/Libraries/XMCLib/inc\xmc_can.h ****  *
1189:C:/Users/Lenovo/workspace/dave_workspace/SOLAR_TOWER/Libraries/XMCLib/inc\xmc_can.h ****  */
1190:C:/Users/Lenovo/workspace/dave_workspace/SOLAR_TOWER/Libraries/XMCLib/inc\xmc_can.h **** 
1191:C:/Users/Lenovo/workspace/dave_workspace/SOLAR_TOWER/Libraries/XMCLib/inc\xmc_can.h **** __STATIC_INLINE uint8_t XMC_CAN_NODE_GetTransmitErrorCounter(XMC_CAN_NODE_t *const can_node)
1192:C:/Users/Lenovo/workspace/dave_workspace/SOLAR_TOWER/Libraries/XMCLib/inc\xmc_can.h **** {
1193:C:/Users/Lenovo/workspace/dave_workspace/SOLAR_TOWER/Libraries/XMCLib/inc\xmc_can.h ****   return (uint8_t)((uint32_t)((can_node->NECNT)  & CAN_NODE_NECNT_TEC_Msk) >> CAN_NODE_NECNT_TEC_Po
1194:C:/Users/Lenovo/workspace/dave_workspace/SOLAR_TOWER/Libraries/XMCLib/inc\xmc_can.h **** }
1195:C:/Users/Lenovo/workspace/dave_workspace/SOLAR_TOWER/Libraries/XMCLib/inc\xmc_can.h **** 
1196:C:/Users/Lenovo/workspace/dave_workspace/SOLAR_TOWER/Libraries/XMCLib/inc\xmc_can.h **** 
1197:C:/Users/Lenovo/workspace/dave_workspace/SOLAR_TOWER/Libraries/XMCLib/inc\xmc_can.h **** /**
1198:C:/Users/Lenovo/workspace/dave_workspace/SOLAR_TOWER/Libraries/XMCLib/inc\xmc_can.h ****  *
1199:C:/Users/Lenovo/workspace/dave_workspace/SOLAR_TOWER/Libraries/XMCLib/inc\xmc_can.h ****  * @param can_node Pointer Pointing to CAN_NODE Structure. Defines CAN_NODE registers, Range :CAN_N
1200:C:/Users/Lenovo/workspace/dave_workspace/SOLAR_TOWER/Libraries/XMCLib/inc\xmc_can.h ****  *
1201:C:/Users/Lenovo/workspace/dave_workspace/SOLAR_TOWER/Libraries/XMCLib/inc\xmc_can.h ****  * @return uint8_t  receive error counter value.
1202:C:/Users/Lenovo/workspace/dave_workspace/SOLAR_TOWER/Libraries/XMCLib/inc\xmc_can.h ****  *
1203:C:/Users/Lenovo/workspace/dave_workspace/SOLAR_TOWER/Libraries/XMCLib/inc\xmc_can.h ****  * \par<b>Description:</b><br>
1204:C:/Users/Lenovo/workspace/dave_workspace/SOLAR_TOWER/Libraries/XMCLib/inc\xmc_can.h ****  *  Returns Receive Error Counter value. It reads NECNT register.
1205:C:/Users/Lenovo/workspace/dave_workspace/SOLAR_TOWER/Libraries/XMCLib/inc\xmc_can.h ****  *
1206:C:/Users/Lenovo/workspace/dave_workspace/SOLAR_TOWER/Libraries/XMCLib/inc\xmc_can.h ****  * \par<b>Related APIs:</b><BR>
1207:C:/Users/Lenovo/workspace/dave_workspace/SOLAR_TOWER/Libraries/XMCLib/inc\xmc_can.h ****  * XMC_CAN_NODE_SetReceiveErrorCounter()
1208:C:/Users/Lenovo/workspace/dave_workspace/SOLAR_TOWER/Libraries/XMCLib/inc\xmc_can.h ****  *
1209:C:/Users/Lenovo/workspace/dave_workspace/SOLAR_TOWER/Libraries/XMCLib/inc\xmc_can.h ****  */
1210:C:/Users/Lenovo/workspace/dave_workspace/SOLAR_TOWER/Libraries/XMCLib/inc\xmc_can.h **** 
1211:C:/Users/Lenovo/workspace/dave_workspace/SOLAR_TOWER/Libraries/XMCLib/inc\xmc_can.h **** __STATIC_INLINE uint8_t XMC_CAN_NODE_GetReceiveErrorCounter(XMC_CAN_NODE_t *const can_node)
1212:C:/Users/Lenovo/workspace/dave_workspace/SOLAR_TOWER/Libraries/XMCLib/inc\xmc_can.h **** {
1213:C:/Users/Lenovo/workspace/dave_workspace/SOLAR_TOWER/Libraries/XMCLib/inc\xmc_can.h ****   return (uint8_t)((uint32_t)((can_node->NECNT)  & CAN_NODE_NECNT_REC_Msk) >> CAN_NODE_NECNT_REC_Po
1214:C:/Users/Lenovo/workspace/dave_workspace/SOLAR_TOWER/Libraries/XMCLib/inc\xmc_can.h **** }
1215:C:/Users/Lenovo/workspace/dave_workspace/SOLAR_TOWER/Libraries/XMCLib/inc\xmc_can.h **** 
1216:C:/Users/Lenovo/workspace/dave_workspace/SOLAR_TOWER/Libraries/XMCLib/inc\xmc_can.h **** 
1217:C:/Users/Lenovo/workspace/dave_workspace/SOLAR_TOWER/Libraries/XMCLib/inc\xmc_can.h **** /**
1218:C:/Users/Lenovo/workspace/dave_workspace/SOLAR_TOWER/Libraries/XMCLib/inc\xmc_can.h ****  *
1219:C:/Users/Lenovo/workspace/dave_workspace/SOLAR_TOWER/Libraries/XMCLib/inc\xmc_can.h ****  * @param can_node Pointer Pointing to CAN_NODE Structure. Defines CAN_NODE registers, Range :CAN_N
1220:C:/Users/Lenovo/workspace/dave_workspace/SOLAR_TOWER/Libraries/XMCLib/inc\xmc_can.h ****  *
1221:C:/Users/Lenovo/workspace/dave_workspace/SOLAR_TOWER/Libraries/XMCLib/inc\xmc_can.h ****  * @return uint32_t Current status of the node.
1222:C:/Users/Lenovo/workspace/dave_workspace/SOLAR_TOWER/Libraries/XMCLib/inc\xmc_can.h ****  *
1223:C:/Users/Lenovo/workspace/dave_workspace/SOLAR_TOWER/Libraries/XMCLib/inc\xmc_can.h ****  * \par<b>Description:</b><br>
1224:C:/Users/Lenovo/workspace/dave_workspace/SOLAR_TOWER/Libraries/XMCLib/inc\xmc_can.h ****  * Returns errors status as well as successfully transferred CAN frames status.
1225:C:/Users/Lenovo/workspace/dave_workspace/SOLAR_TOWER/Libraries/XMCLib/inc\xmc_can.h ****  *
1226:C:/Users/Lenovo/workspace/dave_workspace/SOLAR_TOWER/Libraries/XMCLib/inc\xmc_can.h ****  * \par<b>Related APIs:</b><BR>
1227:C:/Users/Lenovo/workspace/dave_workspace/SOLAR_TOWER/Libraries/XMCLib/inc\xmc_can.h ****  *  XMC_CAN_NODE_ClearStatus()
1228:C:/Users/Lenovo/workspace/dave_workspace/SOLAR_TOWER/Libraries/XMCLib/inc\xmc_can.h ****  *
1229:C:/Users/Lenovo/workspace/dave_workspace/SOLAR_TOWER/Libraries/XMCLib/inc\xmc_can.h ****  */
1230:C:/Users/Lenovo/workspace/dave_workspace/SOLAR_TOWER/Libraries/XMCLib/inc\xmc_can.h **** 
1231:C:/Users/Lenovo/workspace/dave_workspace/SOLAR_TOWER/Libraries/XMCLib/inc\xmc_can.h **** __STATIC_INLINE uint32_t XMC_CAN_NODE_GetStatus(XMC_CAN_NODE_t *const can_node)
1232:C:/Users/Lenovo/workspace/dave_workspace/SOLAR_TOWER/Libraries/XMCLib/inc\xmc_can.h **** {
1233:C:/Users/Lenovo/workspace/dave_workspace/SOLAR_TOWER/Libraries/XMCLib/inc\xmc_can.h ****   return ((can_node->NSR));
1234:C:/Users/Lenovo/workspace/dave_workspace/SOLAR_TOWER/Libraries/XMCLib/inc\xmc_can.h **** }
1235:C:/Users/Lenovo/workspace/dave_workspace/SOLAR_TOWER/Libraries/XMCLib/inc\xmc_can.h **** 
1236:C:/Users/Lenovo/workspace/dave_workspace/SOLAR_TOWER/Libraries/XMCLib/inc\xmc_can.h **** /**
1237:C:/Users/Lenovo/workspace/dave_workspace/SOLAR_TOWER/Libraries/XMCLib/inc\xmc_can.h ****  *
1238:C:/Users/Lenovo/workspace/dave_workspace/SOLAR_TOWER/Libraries/XMCLib/inc\xmc_can.h ****  * @param can_node Pointer Pointing to CAN_NODE Structure. Defines CAN_NODE registers, Range :CAN_N
1239:C:/Users/Lenovo/workspace/dave_workspace/SOLAR_TOWER/Libraries/XMCLib/inc\xmc_can.h ****  * @param can_node_status Status to clear.Refer @ref XMC_CAN_NODE_STATUS_t for valid values.
1240:C:/Users/Lenovo/workspace/dave_workspace/SOLAR_TOWER/Libraries/XMCLib/inc\xmc_can.h ****  *
1241:C:/Users/Lenovo/workspace/dave_workspace/SOLAR_TOWER/Libraries/XMCLib/inc\xmc_can.h ****  * @return None
1242:C:/Users/Lenovo/workspace/dave_workspace/SOLAR_TOWER/Libraries/XMCLib/inc\xmc_can.h ****  *
1243:C:/Users/Lenovo/workspace/dave_workspace/SOLAR_TOWER/Libraries/XMCLib/inc\xmc_can.h ****  * \par<b>Description:</b><br>
1244:C:/Users/Lenovo/workspace/dave_workspace/SOLAR_TOWER/Libraries/XMCLib/inc\xmc_can.h ****  * Clear errors status as well as successfully transferred CAN frames status.
1245:C:/Users/Lenovo/workspace/dave_workspace/SOLAR_TOWER/Libraries/XMCLib/inc\xmc_can.h ****  *
1246:C:/Users/Lenovo/workspace/dave_workspace/SOLAR_TOWER/Libraries/XMCLib/inc\xmc_can.h ****  * \par<b>Related APIs:</b><BR>
1247:C:/Users/Lenovo/workspace/dave_workspace/SOLAR_TOWER/Libraries/XMCLib/inc\xmc_can.h ****  * XMC_CAN_NODE_GetStatus()
1248:C:/Users/Lenovo/workspace/dave_workspace/SOLAR_TOWER/Libraries/XMCLib/inc\xmc_can.h ****  *
1249:C:/Users/Lenovo/workspace/dave_workspace/SOLAR_TOWER/Libraries/XMCLib/inc\xmc_can.h ****  */
1250:C:/Users/Lenovo/workspace/dave_workspace/SOLAR_TOWER/Libraries/XMCLib/inc\xmc_can.h **** 
1251:C:/Users/Lenovo/workspace/dave_workspace/SOLAR_TOWER/Libraries/XMCLib/inc\xmc_can.h **** __STATIC_INLINE void XMC_CAN_NODE_ClearStatus(XMC_CAN_NODE_t *const can_node,XMC_CAN_NODE_STATUS_t 
1252:C:/Users/Lenovo/workspace/dave_workspace/SOLAR_TOWER/Libraries/XMCLib/inc\xmc_can.h **** {
1253:C:/Users/Lenovo/workspace/dave_workspace/SOLAR_TOWER/Libraries/XMCLib/inc\xmc_can.h ****    can_node->NSR &= ~(uint32_t)can_node_status;
1254:C:/Users/Lenovo/workspace/dave_workspace/SOLAR_TOWER/Libraries/XMCLib/inc\xmc_can.h **** }
1255:C:/Users/Lenovo/workspace/dave_workspace/SOLAR_TOWER/Libraries/XMCLib/inc\xmc_can.h **** 
1256:C:/Users/Lenovo/workspace/dave_workspace/SOLAR_TOWER/Libraries/XMCLib/inc\xmc_can.h **** 
1257:C:/Users/Lenovo/workspace/dave_workspace/SOLAR_TOWER/Libraries/XMCLib/inc\xmc_can.h **** /**
1258:C:/Users/Lenovo/workspace/dave_workspace/SOLAR_TOWER/Libraries/XMCLib/inc\xmc_can.h ****  *
1259:C:/Users/Lenovo/workspace/dave_workspace/SOLAR_TOWER/Libraries/XMCLib/inc\xmc_can.h ****  * @param can_node Pointer Pointing to CAN_NODE Structure. Defines CAN_NODE registers, Range :CAN_N
1260:C:/Users/Lenovo/workspace/dave_workspace/SOLAR_TOWER/Libraries/XMCLib/inc\xmc_can.h ****  *
1261:C:/Users/Lenovo/workspace/dave_workspace/SOLAR_TOWER/Libraries/XMCLib/inc\xmc_can.h ****  * @return None
1262:C:/Users/Lenovo/workspace/dave_workspace/SOLAR_TOWER/Libraries/XMCLib/inc\xmc_can.h ****  *
1263:C:/Users/Lenovo/workspace/dave_workspace/SOLAR_TOWER/Libraries/XMCLib/inc\xmc_can.h ****  * \par<b>Description:</b><br>
1264:C:/Users/Lenovo/workspace/dave_workspace/SOLAR_TOWER/Libraries/XMCLib/inc\xmc_can.h ****  * Allow to change the configuration of the CAN node, like bit timing, CAN bus transmit/receive por
1265:C:/Users/Lenovo/workspace/dave_workspace/SOLAR_TOWER/Libraries/XMCLib/inc\xmc_can.h ****  * counters read. It configures NCRx.CCE bit.
1266:C:/Users/Lenovo/workspace/dave_workspace/SOLAR_TOWER/Libraries/XMCLib/inc\xmc_can.h ****  *
1267:C:/Users/Lenovo/workspace/dave_workspace/SOLAR_TOWER/Libraries/XMCLib/inc\xmc_can.h ****  * \par<b>Related APIs:</b><BR>
1268:C:/Users/Lenovo/workspace/dave_workspace/SOLAR_TOWER/Libraries/XMCLib/inc\xmc_can.h ****  * XMC_CAN_NODE_DisableConfigurationChange()
1269:C:/Users/Lenovo/workspace/dave_workspace/SOLAR_TOWER/Libraries/XMCLib/inc\xmc_can.h ****  *
1270:C:/Users/Lenovo/workspace/dave_workspace/SOLAR_TOWER/Libraries/XMCLib/inc\xmc_can.h ****  */
1271:C:/Users/Lenovo/workspace/dave_workspace/SOLAR_TOWER/Libraries/XMCLib/inc\xmc_can.h **** 
1272:C:/Users/Lenovo/workspace/dave_workspace/SOLAR_TOWER/Libraries/XMCLib/inc\xmc_can.h **** __STATIC_INLINE void XMC_CAN_NODE_EnableConfigurationChange(XMC_CAN_NODE_t *const can_node)
1273:C:/Users/Lenovo/workspace/dave_workspace/SOLAR_TOWER/Libraries/XMCLib/inc\xmc_can.h **** {
 132              	 .loc 1 1273 0
 133              	 .cfi_startproc
 134 0000 80B5     	 push {r7,lr}
 135              	.LCFI6:
 136              	 .cfi_def_cfa_offset 8
 137              	 .cfi_offset 7,-8
 138              	 .cfi_offset 14,-4
 139 0002 82B0     	 sub sp,sp,#8
 140              	.LCFI7:
 141              	 .cfi_def_cfa_offset 16
 142 0004 00AF     	 add r7,sp,#0
 143              	.LCFI8:
 144              	 .cfi_def_cfa_register 7
 145 0006 7860     	 str r0,[r7,#4]
1274:C:/Users/Lenovo/workspace/dave_workspace/SOLAR_TOWER/Libraries/XMCLib/inc\xmc_can.h ****   can_node->NCR |= (uint32_t)CAN_NODE_NCR_CCE_Msk;
 146              	 .loc 1 1274 0
 147 0008 7B68     	 ldr r3,[r7,#4]
 148 000a 1B68     	 ldr r3,[r3]
 149 000c 4022     	 mov r2,#64
 150 000e 1A43     	 orr r2,r3
 151 0010 7B68     	 ldr r3,[r7,#4]
 152 0012 1A60     	 str r2,[r3]
1275:C:/Users/Lenovo/workspace/dave_workspace/SOLAR_TOWER/Libraries/XMCLib/inc\xmc_can.h **** }
 153              	 .loc 1 1275 0
 154 0014 BD46     	 mov sp,r7
 155 0016 02B0     	 add sp,sp,#8
 156              	 
 157 0018 80BD     	 pop {r7,pc}
 158              	 .cfi_endproc
 159              	.LFE78:
 161 001a C046     	 .section .text.XMC_CAN_NODE_DisableConfigurationChange,"ax",%progbits
 162              	 .align 2
 163              	 .code 16
 164              	 .thumb_func
 166              	XMC_CAN_NODE_DisableConfigurationChange:
 167              	.LFB79:
1276:C:/Users/Lenovo/workspace/dave_workspace/SOLAR_TOWER/Libraries/XMCLib/inc\xmc_can.h **** 
1277:C:/Users/Lenovo/workspace/dave_workspace/SOLAR_TOWER/Libraries/XMCLib/inc\xmc_can.h **** 
1278:C:/Users/Lenovo/workspace/dave_workspace/SOLAR_TOWER/Libraries/XMCLib/inc\xmc_can.h **** /**
1279:C:/Users/Lenovo/workspace/dave_workspace/SOLAR_TOWER/Libraries/XMCLib/inc\xmc_can.h ****  *
1280:C:/Users/Lenovo/workspace/dave_workspace/SOLAR_TOWER/Libraries/XMCLib/inc\xmc_can.h ****  * @param can_node Pointer Pointing to CAN_NODE Structure. Defines CAN_NODE registers, Range :CAN_N
1281:C:/Users/Lenovo/workspace/dave_workspace/SOLAR_TOWER/Libraries/XMCLib/inc\xmc_can.h ****  *
1282:C:/Users/Lenovo/workspace/dave_workspace/SOLAR_TOWER/Libraries/XMCLib/inc\xmc_can.h ****  * @return None
1283:C:/Users/Lenovo/workspace/dave_workspace/SOLAR_TOWER/Libraries/XMCLib/inc\xmc_can.h ****  *
1284:C:/Users/Lenovo/workspace/dave_workspace/SOLAR_TOWER/Libraries/XMCLib/inc\xmc_can.h ****  * \par<b>Description:</b><br>
1285:C:/Users/Lenovo/workspace/dave_workspace/SOLAR_TOWER/Libraries/XMCLib/inc\xmc_can.h ****  *  Forbid to change the configuration of the CAN node. It configures NCRx.CCE bit.
1286:C:/Users/Lenovo/workspace/dave_workspace/SOLAR_TOWER/Libraries/XMCLib/inc\xmc_can.h ****  *
1287:C:/Users/Lenovo/workspace/dave_workspace/SOLAR_TOWER/Libraries/XMCLib/inc\xmc_can.h ****  * \par<b>Related API's:</b><br>
1288:C:/Users/Lenovo/workspace/dave_workspace/SOLAR_TOWER/Libraries/XMCLib/inc\xmc_can.h ****  * XMC_CAN_NODE_EnableConfigurationChange()
1289:C:/Users/Lenovo/workspace/dave_workspace/SOLAR_TOWER/Libraries/XMCLib/inc\xmc_can.h ****  *
1290:C:/Users/Lenovo/workspace/dave_workspace/SOLAR_TOWER/Libraries/XMCLib/inc\xmc_can.h ****  */
1291:C:/Users/Lenovo/workspace/dave_workspace/SOLAR_TOWER/Libraries/XMCLib/inc\xmc_can.h **** 
1292:C:/Users/Lenovo/workspace/dave_workspace/SOLAR_TOWER/Libraries/XMCLib/inc\xmc_can.h **** __STATIC_INLINE void XMC_CAN_NODE_DisableConfigurationChange(XMC_CAN_NODE_t *const can_node)
1293:C:/Users/Lenovo/workspace/dave_workspace/SOLAR_TOWER/Libraries/XMCLib/inc\xmc_can.h **** {
 168              	 .loc 1 1293 0
 169              	 .cfi_startproc
 170 0000 80B5     	 push {r7,lr}
 171              	.LCFI9:
 172              	 .cfi_def_cfa_offset 8
 173              	 .cfi_offset 7,-8
 174              	 .cfi_offset 14,-4
 175 0002 82B0     	 sub sp,sp,#8
 176              	.LCFI10:
 177              	 .cfi_def_cfa_offset 16
 178 0004 00AF     	 add r7,sp,#0
 179              	.LCFI11:
 180              	 .cfi_def_cfa_register 7
 181 0006 7860     	 str r0,[r7,#4]
1294:C:/Users/Lenovo/workspace/dave_workspace/SOLAR_TOWER/Libraries/XMCLib/inc\xmc_can.h ****   can_node->NCR &= ~(uint32_t)CAN_NODE_NCR_CCE_Msk;
 182              	 .loc 1 1294 0
 183 0008 7B68     	 ldr r3,[r7,#4]
 184 000a 1B68     	 ldr r3,[r3]
 185 000c 4022     	 mov r2,#64
 186 000e 9343     	 bic r3,r2
 187 0010 1A1C     	 mov r2,r3
 188 0012 7B68     	 ldr r3,[r7,#4]
 189 0014 1A60     	 str r2,[r3]
1295:C:/Users/Lenovo/workspace/dave_workspace/SOLAR_TOWER/Libraries/XMCLib/inc\xmc_can.h **** }
 190              	 .loc 1 1295 0
 191 0016 BD46     	 mov sp,r7
 192 0018 02B0     	 add sp,sp,#8
 193              	 
 194 001a 80BD     	 pop {r7,pc}
 195              	 .cfi_endproc
 196              	.LFE79:
 198              	 .section .text.max,"ax",%progbits
 199              	 .align 2
 200              	 .code 16
 201              	 .thumb_func
 203              	max:
 204              	.LFB114:
 205              	 .file 2 "../Libraries/XMCLib/src/xmc_can.c"
   1:../Libraries/XMCLib/src/xmc_can.c **** /**
   2:../Libraries/XMCLib/src/xmc_can.c ****  * @file xmc_can.c
   3:../Libraries/XMCLib/src/xmc_can.c ****  * @date 2017-11-09
   4:../Libraries/XMCLib/src/xmc_can.c ****  *
   5:../Libraries/XMCLib/src/xmc_can.c ****  * @cond
   6:../Libraries/XMCLib/src/xmc_can.c ****  **************************************************************************************************
   7:../Libraries/XMCLib/src/xmc_can.c ****  * XMClib v2.1.18 - XMC Peripheral Driver Library 
   8:../Libraries/XMCLib/src/xmc_can.c ****  *
   9:../Libraries/XMCLib/src/xmc_can.c ****  * Copyright (c) 2015-2018, Infineon Technologies AG
  10:../Libraries/XMCLib/src/xmc_can.c ****  * All rights reserved.                        
  11:../Libraries/XMCLib/src/xmc_can.c ****  *                                             
  12:../Libraries/XMCLib/src/xmc_can.c ****  * Redistribution and use in source and binary forms, with or without modification,are permitted pr
  13:../Libraries/XMCLib/src/xmc_can.c ****  * following conditions are met:   
  14:../Libraries/XMCLib/src/xmc_can.c ****  *                                                                              
  15:../Libraries/XMCLib/src/xmc_can.c ****  * Redistributions of source code must retain the above copyright notice, this list of conditions a
  16:../Libraries/XMCLib/src/xmc_can.c ****  * disclaimer.                        
  17:../Libraries/XMCLib/src/xmc_can.c ****  * 
  18:../Libraries/XMCLib/src/xmc_can.c ****  * Redistributions in binary form must reproduce the above copyright notice, this list of condition
  19:../Libraries/XMCLib/src/xmc_can.c ****  * disclaimer in the documentation and/or other materials provided with the distribution.          
  20:../Libraries/XMCLib/src/xmc_can.c ****  * 
  21:../Libraries/XMCLib/src/xmc_can.c ****  * Neither the name of the copyright holders nor the names of its contributors may be used to endor
  22:../Libraries/XMCLib/src/xmc_can.c ****  * products derived from this software without specific prior written permission.                  
  23:../Libraries/XMCLib/src/xmc_can.c ****  *                                                                              
  24:../Libraries/XMCLib/src/xmc_can.c ****  * THIS SOFTWARE IS PROVIDED BY THE COPYRIGHT HOLDERS AND CONTRIBUTORS "AS IS" AND ANY EXPRESS OR I
  25:../Libraries/XMCLib/src/xmc_can.c ****  * INCLUDING, BUT NOT LIMITED TO, THE IMPLIED WARRANTIES OF MERCHANTABILITY AND FITNESS FOR A PARTI
  26:../Libraries/XMCLib/src/xmc_can.c ****  * DISCLAIMED. IN NO EVENT SHALL THE COPYRIGHT HOLDER OR CONTRIBUTORS BE LIABLE  FOR ANY DIRECT, IN
  27:../Libraries/XMCLib/src/xmc_can.c ****  * SPECIAL, EXEMPLARY, OR CONSEQUENTIAL DAMAGES (INCLUDING, BUT NOT LIMITED TO, PROCUREMENT OF SUBS
  28:../Libraries/XMCLib/src/xmc_can.c ****  * SERVICES; LOSS OF USE, DATA, OR PROFITS; OR BUSINESS INTERRUPTION) HOWEVER CAUSED AND ON ANY THE
  29:../Libraries/XMCLib/src/xmc_can.c ****  * WHETHER IN CONTRACT, STRICT LIABILITY,OR TORT (INCLUDING NEGLIGENCE OR OTHERWISE) ARISING IN ANY
  30:../Libraries/XMCLib/src/xmc_can.c ****  * OF THIS SOFTWARE, EVEN IF ADVISED OF THE POSSIBILITY OF SUCH DAMAGE.                            
  31:../Libraries/XMCLib/src/xmc_can.c ****  *                                                                              
  32:../Libraries/XMCLib/src/xmc_can.c ****  * To improve the quality of the software, users are encouraged to share modifications, enhancement
  33:../Libraries/XMCLib/src/xmc_can.c ****  * Infineon Technologies AG dave@infineon.com).                                                    
  34:../Libraries/XMCLib/src/xmc_can.c ****  **************************************************************************************************
  35:../Libraries/XMCLib/src/xmc_can.c ****  *
  36:../Libraries/XMCLib/src/xmc_can.c ****  * Change History
  37:../Libraries/XMCLib/src/xmc_can.c ****  * --------------
  38:../Libraries/XMCLib/src/xmc_can.c ****  *
  39:../Libraries/XMCLib/src/xmc_can.c ****  * 2015-02-20:
  40:../Libraries/XMCLib/src/xmc_can.c ****  *     - Initial draft <br>
  41:../Libraries/XMCLib/src/xmc_can.c ****  *
  42:../Libraries/XMCLib/src/xmc_can.c ****  * 2015-05-20:
  43:../Libraries/XMCLib/src/xmc_can.c ****  *     - New API added: XMC_CAN_MO_ReceiveData() <br>
  44:../Libraries/XMCLib/src/xmc_can.c ****  *     - XMC_CAN_MO_Config() signature has changed <br>
  45:../Libraries/XMCLib/src/xmc_can.c ****  *     - Minor fix in XMC_CAN_TXFIFO_ConfigMOSlaveObject(). <br>
  46:../Libraries/XMCLib/src/xmc_can.c ****  *
  47:../Libraries/XMCLib/src/xmc_can.c ****  * 2015-06-20:
  48:../Libraries/XMCLib/src/xmc_can.c ****  *     - Removed version macros and declaration of GetDriverVersion API
  49:../Libraries/XMCLib/src/xmc_can.c ****  *
  50:../Libraries/XMCLib/src/xmc_can.c ****  * 2015-09-01:
  51:../Libraries/XMCLib/src/xmc_can.c ****  *     - Removed  fCANB clock support <br>
  52:../Libraries/XMCLib/src/xmc_can.c ****  *
  53:../Libraries/XMCLib/src/xmc_can.c ****  * 2015-09-08:
  54:../Libraries/XMCLib/src/xmc_can.c ****  *     - Fixed bug in XMC_CAN_Init() <br>
  55:../Libraries/XMCLib/src/xmc_can.c ****  *
  56:../Libraries/XMCLib/src/xmc_can.c ****  * 2016-06-07:
  57:../Libraries/XMCLib/src/xmc_can.c ****  *     - Changed XMC_CAN_AllocateMOtoNodeList to wait for ready status of list controller
  58:../Libraries/XMCLib/src/xmc_can.c ****  *
  59:../Libraries/XMCLib/src/xmc_can.c ****  * 2016-06-20:
  60:../Libraries/XMCLib/src/xmc_can.c ****  *     - Fixed bug in XMC_CAN_MO_Config() <br> 
  61:../Libraries/XMCLib/src/xmc_can.c ****  *
  62:../Libraries/XMCLib/src/xmc_can.c ****  * 2017-11-09:
  63:../Libraries/XMCLib/src/xmc_can.c ****  *     - Added XMC_CAN_InitEx() and XMC_CAN_NODE_NominalBitTimeConfigureEx()
  64:../Libraries/XMCLib/src/xmc_can.c ****  *     - Make XMC_CAN_GetBaudrateClockSource(), XMC_CAN_SetBaudrateClockSource() and XMC_CAN_GetBau
  65:../Libraries/XMCLib/src/xmc_can.c ****  *     - Changed refactoring XMC_CAN_MO_Config() to configure MOCTR depending on transmit or receiv
  66:../Libraries/XMCLib/src/xmc_can.c ****  *
  67:../Libraries/XMCLib/src/xmc_can.c ****  * @endcond
  68:../Libraries/XMCLib/src/xmc_can.c ****  *
  69:../Libraries/XMCLib/src/xmc_can.c ****  */ 
  70:../Libraries/XMCLib/src/xmc_can.c **** 
  71:../Libraries/XMCLib/src/xmc_can.c **** /*******************************************************************************
  72:../Libraries/XMCLib/src/xmc_can.c ****  * HEADER FILES
  73:../Libraries/XMCLib/src/xmc_can.c ****  *******************************************************************************/
  74:../Libraries/XMCLib/src/xmc_can.c **** #include "xmc_can.h"
  75:../Libraries/XMCLib/src/xmc_can.c **** 
  76:../Libraries/XMCLib/src/xmc_can.c **** #if defined(CAN)
  77:../Libraries/XMCLib/src/xmc_can.c **** #include "xmc_scu.h"
  78:../Libraries/XMCLib/src/xmc_can.c **** 
  79:../Libraries/XMCLib/src/xmc_can.c **** __STATIC_INLINE uint32_t max(uint32_t a, uint32_t b)
  80:../Libraries/XMCLib/src/xmc_can.c **** {
 206              	 .loc 2 80 0
 207              	 .cfi_startproc
 208 0000 80B5     	 push {r7,lr}
 209              	.LCFI12:
 210              	 .cfi_def_cfa_offset 8
 211              	 .cfi_offset 7,-8
 212              	 .cfi_offset 14,-4
 213 0002 82B0     	 sub sp,sp,#8
 214              	.LCFI13:
 215              	 .cfi_def_cfa_offset 16
 216 0004 00AF     	 add r7,sp,#0
 217              	.LCFI14:
 218              	 .cfi_def_cfa_register 7
 219 0006 7860     	 str r0,[r7,#4]
 220 0008 3960     	 str r1,[r7]
  81:../Libraries/XMCLib/src/xmc_can.c ****   return (a > b) ? a : b;
 221              	 .loc 2 81 0
 222 000a 7A68     	 ldr r2,[r7,#4]
 223 000c 3B68     	 ldr r3,[r7]
 224 000e 9342     	 cmp r3,r2
 225 0010 00D2     	 bcs .L8
 226 0012 131C     	 mov r3,r2
 227              	.L8:
  82:../Libraries/XMCLib/src/xmc_can.c **** }
 228              	 .loc 2 82 0 discriminator 1
 229 0014 181C     	 mov r0,r3
 230 0016 BD46     	 mov sp,r7
 231 0018 02B0     	 add sp,sp,#8
 232              	 
 233 001a 80BD     	 pop {r7,pc}
 234              	 .cfi_endproc
 235              	.LFE114:
 237              	 .section .text.min,"ax",%progbits
 238              	 .align 2
 239              	 .code 16
 240              	 .thumb_func
 242              	min:
 243              	.LFB115:
  83:../Libraries/XMCLib/src/xmc_can.c **** 
  84:../Libraries/XMCLib/src/xmc_can.c **** __STATIC_INLINE uint32_t min(uint32_t a, uint32_t b)
  85:../Libraries/XMCLib/src/xmc_can.c **** {
 244              	 .loc 2 85 0
 245              	 .cfi_startproc
 246 0000 80B5     	 push {r7,lr}
 247              	.LCFI15:
 248              	 .cfi_def_cfa_offset 8
 249              	 .cfi_offset 7,-8
 250              	 .cfi_offset 14,-4
 251 0002 82B0     	 sub sp,sp,#8
 252              	.LCFI16:
 253              	 .cfi_def_cfa_offset 16
 254 0004 00AF     	 add r7,sp,#0
 255              	.LCFI17:
 256              	 .cfi_def_cfa_register 7
 257 0006 7860     	 str r0,[r7,#4]
 258 0008 3960     	 str r1,[r7]
  86:../Libraries/XMCLib/src/xmc_can.c ****   return (a < b) ? a : b;
 259              	 .loc 2 86 0
 260 000a 7A68     	 ldr r2,[r7,#4]
 261 000c 3B68     	 ldr r3,[r7]
 262 000e 9342     	 cmp r3,r2
 263 0010 00D9     	 bls .L11
 264 0012 131C     	 mov r3,r2
 265              	.L11:
  87:../Libraries/XMCLib/src/xmc_can.c **** }
 266              	 .loc 2 87 0 discriminator 1
 267 0014 181C     	 mov r0,r3
 268 0016 BD46     	 mov sp,r7
 269 0018 02B0     	 add sp,sp,#8
 270              	 
 271 001a 80BD     	 pop {r7,pc}
 272              	 .cfi_endproc
 273              	.LFE115:
 275              	 .global __aeabi_uidivmod
 276              	 .global __aeabi_uidiv
 277              	 .section .text.XMC_CAN_NODE_NominalBitTimeConfigureEx,"ax",%progbits
 278              	 .align 2
 279              	 .global XMC_CAN_NODE_NominalBitTimeConfigureEx
 280              	 .code 16
 281              	 .thumb_func
 283              	XMC_CAN_NODE_NominalBitTimeConfigureEx:
 284              	.LFB116:
  88:../Libraries/XMCLib/src/xmc_can.c **** 
  89:../Libraries/XMCLib/src/xmc_can.c **** /*******************************************************************************
  90:../Libraries/XMCLib/src/xmc_can.c ****  * API IMPLEMENTATION
  91:../Libraries/XMCLib/src/xmc_can.c ****  *******************************************************************************/
  92:../Libraries/XMCLib/src/xmc_can.c **** 
  93:../Libraries/XMCLib/src/xmc_can.c **** /* The max prescaler is the equal to max BRP setting (64) multiply by 8 (DIV8) */
  94:../Libraries/XMCLib/src/xmc_can.c **** #define XMC_CAN_NODE_MAX_PRESCALER 512
  95:../Libraries/XMCLib/src/xmc_can.c **** 
  96:../Libraries/XMCLib/src/xmc_can.c **** /* maximum TSEG1 is 16 and maximum TSEG2 is 8, plus one fix sync tq */
  97:../Libraries/XMCLib/src/xmc_can.c **** #define XMC_CAN_NODE_MAX_NTQ 25
  98:../Libraries/XMCLib/src/xmc_can.c **** #define XMC_CAN_NODE_MIN_NTQ 8
  99:../Libraries/XMCLib/src/xmc_can.c **** 
 100:../Libraries/XMCLib/src/xmc_can.c **** #define XMC_CAN_NODE_MIN_TSEG1 3
 101:../Libraries/XMCLib/src/xmc_can.c **** #define XMC_CAN_NODE_MIN_TSEG2 2
 102:../Libraries/XMCLib/src/xmc_can.c **** 
 103:../Libraries/XMCLib/src/xmc_can.c **** int32_t XMC_CAN_NODE_NominalBitTimeConfigureEx(XMC_CAN_NODE_t *const can_node,
 104:../Libraries/XMCLib/src/xmc_can.c ****                                                const XMC_CAN_NODE_NOMINAL_BIT_TIME_CONFIG_t *const 
 105:../Libraries/XMCLib/src/xmc_can.c **** {
 285              	 .loc 2 105 0
 286              	 .cfi_startproc
 287 0000 80B5     	 push {r7,lr}
 288              	.LCFI18:
 289              	 .cfi_def_cfa_offset 8
 290              	 .cfi_offset 7,-8
 291              	 .cfi_offset 14,-4
 292 0002 88B0     	 sub sp,sp,#32
 293              	.LCFI19:
 294              	 .cfi_def_cfa_offset 40
 295 0004 00AF     	 add r7,sp,#0
 296              	.LCFI20:
 297              	 .cfi_def_cfa_register 7
 298 0006 7860     	 str r0,[r7,#4]
 299 0008 3960     	 str r1,[r7]
 106:../Libraries/XMCLib/src/xmc_can.c ****   /* Check that the CAN frequency is a multiple of the required baudrate */
 107:../Libraries/XMCLib/src/xmc_can.c ****   if ((bit_time_config->can_frequency % bit_time_config->baudrate) == 0)
 300              	 .loc 2 107 0
 301 000a 3B68     	 ldr r3,[r7]
 302 000c 1A68     	 ldr r2,[r3]
 303 000e 3B68     	 ldr r3,[r7]
 304 0010 5B68     	 ldr r3,[r3,#4]
 305 0012 101C     	 mov r0,r2
 306 0014 191C     	 mov r1,r3
 307 0016 FFF7FEFF 	 bl __aeabi_uidivmod
 308 001a 0B1E     	 sub r3,r1,#0
 309 001c 00D0     	 beq .LCB258
 310 001e 80E0     	 b .L13
 311              	.LCB258:
 312              	.LBB2:
 108:../Libraries/XMCLib/src/xmc_can.c ****   {
 109:../Libraries/XMCLib/src/xmc_can.c ****   uint32_t prescaler;
 110:../Libraries/XMCLib/src/xmc_can.c ****   uint32_t div8 = 0;
 313              	 .loc 2 110 0
 314 0020 0023     	 mov r3,#0
 315 0022 BB61     	 str r3,[r7,#24]
 111:../Libraries/XMCLib/src/xmc_can.c **** 
 112:../Libraries/XMCLib/src/xmc_can.c ****   /* Calculate the factor between can frequency and required baudrate, this is equal to (prescaler 
 113:../Libraries/XMCLib/src/xmc_can.c ****     uint32_t fcan_div = bit_time_config->can_frequency / bit_time_config->baudrate;
 316              	 .loc 2 113 0
 317 0024 3B68     	 ldr r3,[r7]
 318 0026 1A68     	 ldr r2,[r3]
 319 0028 3B68     	 ldr r3,[r7]
 320 002a 5B68     	 ldr r3,[r3,#4]
 321 002c 101C     	 mov r0,r2
 322 002e 191C     	 mov r1,r3
 323 0030 FFF7FEFF 	 bl __aeabi_uidiv
 324 0034 031C     	 mov r3,r0
 325 0036 3B61     	 str r3,[r7,#16]
 114:../Libraries/XMCLib/src/xmc_can.c **** 
 115:../Libraries/XMCLib/src/xmc_can.c ****     /* start with highest ntq, i.e as much as possible time quanta should be used to construct a bi
 116:../Libraries/XMCLib/src/xmc_can.c ****     uint32_t ntq = XMC_CAN_NODE_MAX_NTQ;
 326              	 .loc 2 116 0
 327 0038 1923     	 mov r3,#25
 328 003a 7B61     	 str r3,[r7,#20]
 117:../Libraries/XMCLib/src/xmc_can.c ****     while (ntq >= XMC_CAN_NODE_MIN_NTQ)
 329              	 .loc 2 117 0
 330 003c 22E0     	 b .L14
 331              	.L18:
 118:../Libraries/XMCLib/src/xmc_can.c ****     {
 119:../Libraries/XMCLib/src/xmc_can.c ****       /* consider this ntq, only if fcan_div is multiple of ntq */
 120:../Libraries/XMCLib/src/xmc_can.c ****     if ((fcan_div % ntq) == 0)
 332              	 .loc 2 120 0
 333 003e 3B69     	 ldr r3,[r7,#16]
 334 0040 181C     	 mov r0,r3
 335 0042 7969     	 ldr r1,[r7,#20]
 336 0044 FFF7FEFF 	 bl __aeabi_uidivmod
 337 0048 0B1E     	 sub r3,r1,#0
 338 004a 18D1     	 bne .L15
 121:../Libraries/XMCLib/src/xmc_can.c ****     {
 122:../Libraries/XMCLib/src/xmc_can.c ****         prescaler = fcan_div / ntq;
 339              	 .loc 2 122 0
 340 004c 3869     	 ldr r0,[r7,#16]
 341 004e 7969     	 ldr r1,[r7,#20]
 342 0050 FFF7FEFF 	 bl __aeabi_uidiv
 343 0054 031C     	 mov r3,r0
 344 0056 FB61     	 str r3,[r7,#28]
 123:../Libraries/XMCLib/src/xmc_can.c ****         if ((prescaler > 0) && (prescaler <= XMC_CAN_NODE_MAX_PRESCALER))
 345              	 .loc 2 123 0
 346 0058 FB69     	 ldr r3,[r7,#28]
 347 005a 002B     	 cmp r3,#0
 348 005c 0FD0     	 beq .L15
 349              	 .loc 2 123 0 is_stmt 0 discriminator 1
 350 005e FA69     	 ldr r2,[r7,#28]
 351 0060 8023     	 mov r3,#128
 352 0062 9B00     	 lsl r3,r3,#2
 353 0064 9A42     	 cmp r2,r3
 354 0066 0AD8     	 bhi .L15
 124:../Libraries/XMCLib/src/xmc_can.c ****         {
 125:../Libraries/XMCLib/src/xmc_can.c ****           if (prescaler >= 64)
 355              	 .loc 2 125 0 is_stmt 1
 356 0068 FB69     	 ldr r3,[r7,#28]
 357 006a 3F2B     	 cmp r3,#63
 358 006c 06D9     	 bls .L16
 126:../Libraries/XMCLib/src/xmc_can.c ****           {
 127:../Libraries/XMCLib/src/xmc_can.c ****           /* consider prescaler >=64, if it is integer divisible by 8*/
 128:../Libraries/XMCLib/src/xmc_can.c ****             if ((prescaler & 0x7U) == 0)
 359              	 .loc 2 128 0
 360 006e FB69     	 ldr r3,[r7,#28]
 361 0070 0722     	 mov r2,#7
 362 0072 1340     	 and r3,r2
 363 0074 03D1     	 bne .L15
 129:../Libraries/XMCLib/src/xmc_can.c ****         {
 130:../Libraries/XMCLib/src/xmc_can.c ****               div8 = 1;
 364              	 .loc 2 130 0
 365 0076 0123     	 mov r3,#1
 366 0078 BB61     	 str r3,[r7,#24]
 131:../Libraries/XMCLib/src/xmc_can.c ****               break;
 367              	 .loc 2 131 0
 368 007a 06E0     	 b .L17
 369              	.L16:
 132:../Libraries/XMCLib/src/xmc_can.c ****         }
 133:../Libraries/XMCLib/src/xmc_can.c ****           }
 134:../Libraries/XMCLib/src/xmc_can.c ****           else
 135:../Libraries/XMCLib/src/xmc_can.c ****           {
 136:../Libraries/XMCLib/src/xmc_can.c ****             break;
 370              	 .loc 2 136 0
 371 007c 05E0     	 b .L17
 372              	.L15:
 137:../Libraries/XMCLib/src/xmc_can.c ****           }
 138:../Libraries/XMCLib/src/xmc_can.c ****         }
 139:../Libraries/XMCLib/src/xmc_can.c ****       }
 140:../Libraries/XMCLib/src/xmc_can.c ****       --ntq;
 373              	 .loc 2 140 0
 374 007e 7B69     	 ldr r3,[r7,#20]
 375 0080 013B     	 sub r3,r3,#1
 376 0082 7B61     	 str r3,[r7,#20]
 377              	.L14:
 117:../Libraries/XMCLib/src/xmc_can.c ****     {
 378              	 .loc 2 117 0
 379 0084 7B69     	 ldr r3,[r7,#20]
 380 0086 072B     	 cmp r3,#7
 381 0088 D9D8     	 bhi .L18
 382              	.L17:
 141:../Libraries/XMCLib/src/xmc_can.c ****     }
 142:../Libraries/XMCLib/src/xmc_can.c **** 
 143:../Libraries/XMCLib/src/xmc_can.c ****     if (ntq >= XMC_CAN_NODE_MIN_NTQ)
 383              	 .loc 2 143 0
 384 008a 7B69     	 ldr r3,[r7,#20]
 385 008c 072B     	 cmp r3,#7
 386 008e 48D9     	 bls .L13
 387              	.LBB3:
 144:../Libraries/XMCLib/src/xmc_can.c ****     {
 145:../Libraries/XMCLib/src/xmc_can.c ****       uint32_t tseg1 = ((ntq - 1) * bit_time_config->sample_point) / 1000;
 388              	 .loc 2 145 0
 389 0090 7B69     	 ldr r3,[r7,#20]
 390 0092 013B     	 sub r3,r3,#1
 391 0094 3A68     	 ldr r2,[r7]
 392 0096 1289     	 ldrh r2,[r2,#8]
 393 0098 5343     	 mul r3,r2
 394 009a 181C     	 mov r0,r3
 395 009c FA23     	 mov r3,#250
 396 009e 9900     	 lsl r1,r3,#2
 397 00a0 FFF7FEFF 	 bl __aeabi_uidiv
 398 00a4 031C     	 mov r3,r0
 399 00a6 FB60     	 str r3,[r7,#12]
 146:../Libraries/XMCLib/src/xmc_can.c ****       uint32_t tseg2 = ntq - tseg1 - 1;
 400              	 .loc 2 146 0
 401 00a8 7A69     	 ldr r2,[r7,#20]
 402 00aa FB68     	 ldr r3,[r7,#12]
 403 00ac D31A     	 sub r3,r2,r3
 404 00ae 013B     	 sub r3,r3,#1
 405 00b0 BB60     	 str r3,[r7,#8]
 147:../Libraries/XMCLib/src/xmc_can.c **** 
 148:../Libraries/XMCLib/src/xmc_can.c ****       if ((tseg1 < XMC_CAN_NODE_MIN_TSEG1) || (tseg2 < XMC_CAN_NODE_MIN_TSEG2) || (tseg2 < bit_time
 406              	 .loc 2 148 0
 407 00b2 FB68     	 ldr r3,[r7,#12]
 408 00b4 022B     	 cmp r3,#2
 409 00b6 08D9     	 bls .L19
 410              	 .loc 2 148 0 is_stmt 0 discriminator 1
 411 00b8 BB68     	 ldr r3,[r7,#8]
 412 00ba 012B     	 cmp r3,#1
 413 00bc 05D9     	 bls .L19
 414              	 .loc 2 148 0 discriminator 2
 415 00be 3B68     	 ldr r3,[r7]
 416 00c0 5B89     	 ldrh r3,[r3,#10]
 417 00c2 1A1E     	 sub r2,r3,#0
 418 00c4 BB68     	 ldr r3,[r7,#8]
 419 00c6 9A42     	 cmp r2,r3
 420 00c8 01D9     	 bls .L20
 421              	.L19:
 149:../Libraries/XMCLib/src/xmc_can.c ****       {
 150:../Libraries/XMCLib/src/xmc_can.c ****       return XMC_CAN_STATUS_ERROR;
 422              	 .loc 2 150 0 is_stmt 1
 423 00ca 0123     	 mov r3,#1
 424 00cc 2AE0     	 b .L21
 425              	.L20:
 151:../Libraries/XMCLib/src/xmc_can.c ****       }
 152:../Libraries/XMCLib/src/xmc_can.c **** 
 153:../Libraries/XMCLib/src/xmc_can.c ****       XMC_CAN_NODE_EnableConfigurationChange(can_node);
 426              	 .loc 2 153 0
 427 00ce 7B68     	 ldr r3,[r7,#4]
 428 00d0 181C     	 mov r0,r3
 429 00d2 FFF7FEFF 	 bl XMC_CAN_NODE_EnableConfigurationChange
 154:../Libraries/XMCLib/src/xmc_can.c **** 
 155:../Libraries/XMCLib/src/xmc_can.c ****       /* Configure bit timing register */
 156:../Libraries/XMCLib/src/xmc_can.c ****       can_node->NBTR = (((tseg2 - 1u) << CAN_NODE_NBTR_TSEG2_Pos) & (uint32_t)CAN_NODE_NBTR_TSEG2_M
 430              	 .loc 2 156 0
 431 00d6 BB68     	 ldr r3,[r7,#8]
 432 00d8 013B     	 sub r3,r3,#1
 433 00da 1A03     	 lsl r2,r3,#12
 434 00dc E023     	 mov r3,#224
 435 00de DB01     	 lsl r3,r3,#7
 436 00e0 1A40     	 and r2,r3
 157:../Libraries/XMCLib/src/xmc_can.c ****                         (((bit_time_config->sjw - 1U) << CAN_NODE_NBTR_SJW_Pos) & (uint32_t)CAN_NOD
 437              	 .loc 2 157 0
 438 00e2 3B68     	 ldr r3,[r7]
 439 00e4 5B89     	 ldrh r3,[r3,#10]
 440 00e6 013B     	 sub r3,r3,#1
 441 00e8 9B01     	 lsl r3,r3,#6
 442 00ea FF21     	 mov r1,#255
 443 00ec 0B40     	 and r3,r1
 156:../Libraries/XMCLib/src/xmc_can.c ****                         (((bit_time_config->sjw - 1U) << CAN_NODE_NBTR_SJW_Pos) & (uint32_t)CAN_NOD
 444              	 .loc 2 156 0
 445 00ee 1A43     	 orr r2,r3
 158:../Libraries/XMCLib/src/xmc_can.c ****                         (((tseg1 - 1U) << CAN_NODE_NBTR_TSEG1_Pos) & (uint32_t)CAN_NODE_NBTR_TSEG1_
 446              	 .loc 2 158 0
 447 00f0 FB68     	 ldr r3,[r7,#12]
 448 00f2 013B     	 sub r3,r3,#1
 449 00f4 1902     	 lsl r1,r3,#8
 450 00f6 F023     	 mov r3,#240
 451 00f8 1B01     	 lsl r3,r3,#4
 452 00fa 0B40     	 and r3,r1
 157:../Libraries/XMCLib/src/xmc_can.c ****                         (((bit_time_config->sjw - 1U) << CAN_NODE_NBTR_SJW_Pos) & (uint32_t)CAN_NOD
 453              	 .loc 2 157 0
 454 00fc 1A43     	 orr r2,r3
 159:../Libraries/XMCLib/src/xmc_can.c ****                         (((prescaler - 1U) << CAN_NODE_NBTR_BRP_Pos) & (uint32_t)CAN_NODE_NBTR_BRP_
 455              	 .loc 2 159 0
 456 00fe FB69     	 ldr r3,[r7,#28]
 457 0100 013B     	 sub r3,r3,#1
 458 0102 3F21     	 mov r1,#63
 459 0104 0B40     	 and r3,r1
 158:../Libraries/XMCLib/src/xmc_can.c ****                         (((tseg1 - 1U) << CAN_NODE_NBTR_TSEG1_Pos) & (uint32_t)CAN_NODE_NBTR_TSEG1_
 460              	 .loc 2 158 0
 461 0106 1A43     	 orr r2,r3
 160:../Libraries/XMCLib/src/xmc_can.c ****                         ((div8 << CAN_NODE_NBTR_DIV8_Pos) & (uint32_t)CAN_NODE_NBTR_DIV8_Msk);
 462              	 .loc 2 160 0
 463 0108 BB69     	 ldr r3,[r7,#24]
 464 010a DB03     	 lsl r3,r3,#15
 465 010c 1B04     	 lsl r3,r3,#16
 466 010e 1B0C     	 lsr r3,r3,#16
 159:../Libraries/XMCLib/src/xmc_can.c ****                         (((prescaler - 1U) << CAN_NODE_NBTR_BRP_Pos) & (uint32_t)CAN_NODE_NBTR_BRP_
 467              	 .loc 2 159 0
 468 0110 1A43     	 orr r2,r3
 156:../Libraries/XMCLib/src/xmc_can.c ****                         (((bit_time_config->sjw - 1U) << CAN_NODE_NBTR_SJW_Pos) & (uint32_t)CAN_NOD
 469              	 .loc 2 156 0
 470 0112 7B68     	 ldr r3,[r7,#4]
 471 0114 1A61     	 str r2,[r3,#16]
 161:../Libraries/XMCLib/src/xmc_can.c **** 
 162:../Libraries/XMCLib/src/xmc_can.c ****       XMC_CAN_NODE_DisableConfigurationChange(can_node);
 472              	 .loc 2 162 0
 473 0116 7B68     	 ldr r3,[r7,#4]
 474 0118 181C     	 mov r0,r3
 475 011a FFF7FEFF 	 bl XMC_CAN_NODE_DisableConfigurationChange
 163:../Libraries/XMCLib/src/xmc_can.c **** 
 164:../Libraries/XMCLib/src/xmc_can.c ****       return XMC_CAN_STATUS_SUCCESS;
 476              	 .loc 2 164 0
 477 011e 0023     	 mov r3,#0
 478 0120 00E0     	 b .L21
 479              	.L13:
 480              	.LBE3:
 481              	.LBE2:
 165:../Libraries/XMCLib/src/xmc_can.c ****     }
 166:../Libraries/XMCLib/src/xmc_can.c ****   }
 167:../Libraries/XMCLib/src/xmc_can.c **** 
 168:../Libraries/XMCLib/src/xmc_can.c ****   return XMC_CAN_STATUS_ERROR;
 482              	 .loc 2 168 0
 483 0122 0123     	 mov r3,#1
 484              	.L21:
 169:../Libraries/XMCLib/src/xmc_can.c **** }
 485              	 .loc 2 169 0
 486 0124 181C     	 mov r0,r3
 487 0126 BD46     	 mov sp,r7
 488 0128 08B0     	 add sp,sp,#32
 489              	 
 490 012a 80BD     	 pop {r7,pc}
 491              	 .cfi_endproc
 492              	.LFE116:
 494              	 .section .text.XMC_CAN_NODE_NominalBitTimeConfigure,"ax",%progbits
 495              	 .align 2
 496              	 .global XMC_CAN_NODE_NominalBitTimeConfigure
 497              	 .code 16
 498              	 .thumb_func
 500              	XMC_CAN_NODE_NominalBitTimeConfigure:
 501              	.LFB117:
 170:../Libraries/XMCLib/src/xmc_can.c **** 
 171:../Libraries/XMCLib/src/xmc_can.c **** /* Baudrate Configuration */
 172:../Libraries/XMCLib/src/xmc_can.c **** void XMC_CAN_NODE_NominalBitTimeConfigure (XMC_CAN_NODE_t *const can_node,
 173:../Libraries/XMCLib/src/xmc_can.c ****                                            const XMC_CAN_NODE_NOMINAL_BIT_TIME_CONFIG_t *const can_
 174:../Libraries/XMCLib/src/xmc_can.c **** {
 502              	 .loc 2 174 0
 503              	 .cfi_startproc
 504 0000 80B5     	 push {r7,lr}
 505              	.LCFI21:
 506              	 .cfi_def_cfa_offset 8
 507              	 .cfi_offset 7,-8
 508              	 .cfi_offset 14,-4
 509 0002 90B0     	 sub sp,sp,#64
 510              	.LCFI22:
 511              	 .cfi_def_cfa_offset 72
 512 0004 00AF     	 add r7,sp,#0
 513              	.LCFI23:
 514              	 .cfi_def_cfa_register 7
 515 0006 7860     	 str r0,[r7,#4]
 516 0008 3960     	 str r1,[r7]
 175:../Libraries/XMCLib/src/xmc_can.c ****   uint32_t temp_brp = 12U ;
 517              	 .loc 2 175 0
 518 000a 0C23     	 mov r3,#12
 519 000c FB63     	 str r3,[r7,#60]
 176:../Libraries/XMCLib/src/xmc_can.c ****   uint32_t temp_tseg1 = 12U;
 520              	 .loc 2 176 0
 521 000e 0C23     	 mov r3,#12
 522 0010 BB63     	 str r3,[r7,#56]
 177:../Libraries/XMCLib/src/xmc_can.c ****   uint32_t best_brp = 0U;
 523              	 .loc 2 177 0
 524 0012 0023     	 mov r3,#0
 525 0014 7B63     	 str r3,[r7,#52]
 178:../Libraries/XMCLib/src/xmc_can.c ****   uint32_t best_tseg1 = 1U;
 526              	 .loc 2 178 0
 527 0016 0123     	 mov r3,#1
 528 0018 3B63     	 str r3,[r7,#48]
 179:../Libraries/XMCLib/src/xmc_can.c ****   uint32_t best_tseg2 = 0U;
 529              	 .loc 2 179 0
 530 001a 0023     	 mov r3,#0
 531 001c 7B61     	 str r3,[r7,#20]
 180:../Libraries/XMCLib/src/xmc_can.c ****   uint32_t best_tbaud = 0U;
 532              	 .loc 2 180 0
 533 001e 0023     	 mov r3,#0
 534 0020 FB62     	 str r3,[r7,#44]
 181:../Libraries/XMCLib/src/xmc_can.c ****   uint32_t best_error = 10000U;
 535              	 .loc 2 181 0
 536 0022 6A4B     	 ldr r3,.L40
 537 0024 BB62     	 str r3,[r7,#40]
 182:../Libraries/XMCLib/src/xmc_can.c **** 
 183:../Libraries/XMCLib/src/xmc_can.c ****   XMC_ASSERT("XMC_CAN_NODE_NOMINAL_BIT_TIME_Configure: rate not supported", (can_bit_time->baudrate
 184:../Libraries/XMCLib/src/xmc_can.c ****              (can_bit_time->baudrate >= 100000U));
 185:../Libraries/XMCLib/src/xmc_can.c ****   XMC_ASSERT("XMC_CAN_NODE_NOMINAL_BIT_TIME_Configure: fCAN not supported",
 186:../Libraries/XMCLib/src/xmc_can.c ****              can_bit_time->can_frequency <= 120000000U);
 187:../Libraries/XMCLib/src/xmc_can.c ****   XMC_ASSERT("XMC_CAN_NODE_NOMINAL_BIT_TIME_Configure: fCAN not supported",
 188:../Libraries/XMCLib/src/xmc_can.c ****              can_bit_time->can_frequency > 5000000U);
 189:../Libraries/XMCLib/src/xmc_can.c ****   XMC_ASSERT("XMC_CAN_NODE_NOMINAL_BIT_TIME_Configure: sample point not supported",
 190:../Libraries/XMCLib/src/xmc_can.c ****              (can_bit_time->sample_point < 10000U) && ((can_bit_time->sample_point > 0U)));
 191:../Libraries/XMCLib/src/xmc_can.c ****        
 192:../Libraries/XMCLib/src/xmc_can.c ****   /*
 193:../Libraries/XMCLib/src/xmc_can.c ****    * Bit timing & sampling
 194:../Libraries/XMCLib/src/xmc_can.c ****    * Tq = (BRP+1)/Fcan if DIV8 = 0
 195:../Libraries/XMCLib/src/xmc_can.c ****    * Tq = 8*(BRP+1)/Fcan if DIV8 = 1
 196:../Libraries/XMCLib/src/xmc_can.c ****    * TSync = 1.Tq
 197:../Libraries/XMCLib/src/xmc_can.c ****    * TSeg1 = (TSEG1+1)*Tq                >= 3Tq
 198:../Libraries/XMCLib/src/xmc_can.c ****    * TSeg2 = (TSEG2+1)*Tq                >= 2Tq
 199:../Libraries/XMCLib/src/xmc_can.c ****    * Bit Time = TSync + TSeg1 + TSeg2    >= 8Tq
 200:../Libraries/XMCLib/src/xmc_can.c ****    *
 201:../Libraries/XMCLib/src/xmc_can.c ****    * Resynchronization:
 202:../Libraries/XMCLib/src/xmc_can.c ****    *
 203:../Libraries/XMCLib/src/xmc_can.c ****    * Tsjw = (SJW + 1)*Tq
 204:../Libraries/XMCLib/src/xmc_can.c ****    * TSeg1 >= Tsjw + Tprop
 205:../Libraries/XMCLib/src/xmc_can.c ****    * TSeg2 >= Tsjw
 206:../Libraries/XMCLib/src/xmc_can.c ****    */
 207:../Libraries/XMCLib/src/xmc_can.c ****   /* search for best baudrate */
 208:../Libraries/XMCLib/src/xmc_can.c ****   for (temp_brp = 1U; temp_brp <= 64U; temp_brp++)
 538              	 .loc 2 208 0
 539 0026 0123     	 mov r3,#1
 540 0028 FB63     	 str r3,[r7,#60]
 541 002a 6AE0     	 b .L23
 542              	.L32:
 543              	.LBB4:
 209:../Libraries/XMCLib/src/xmc_can.c ****   {
 210:../Libraries/XMCLib/src/xmc_can.c **** 
 211:../Libraries/XMCLib/src/xmc_can.c ****     uint32_t f_quanta = (uint32_t)((can_bit_time->can_frequency * 10U) / temp_brp);
 544              	 .loc 2 211 0
 545 002c 3B68     	 ldr r3,[r7]
 546 002e 1A68     	 ldr r2,[r3]
 547 0030 131C     	 mov r3,r2
 548 0032 9B00     	 lsl r3,r3,#2
 549 0034 9B18     	 add r3,r3,r2
 550 0036 5B00     	 lsl r3,r3,#1
 551 0038 181C     	 mov r0,r3
 552 003a F96B     	 ldr r1,[r7,#60]
 553 003c FFF7FEFF 	 bl __aeabi_uidiv
 554 0040 031C     	 mov r3,r0
 555 0042 3B61     	 str r3,[r7,#16]
 212:../Libraries/XMCLib/src/xmc_can.c ****     uint32_t temp_tbaud = (uint32_t)(f_quanta / (can_bit_time->baudrate));
 556              	 .loc 2 212 0
 557 0044 3B68     	 ldr r3,[r7]
 558 0046 5B68     	 ldr r3,[r3,#4]
 559 0048 3869     	 ldr r0,[r7,#16]
 560 004a 191C     	 mov r1,r3
 561 004c FFF7FEFF 	 bl __aeabi_uidiv
 562 0050 031C     	 mov r3,r0
 563 0052 7B62     	 str r3,[r7,#36]
 213:../Libraries/XMCLib/src/xmc_can.c ****     uint32_t temp_baudrate;
 214:../Libraries/XMCLib/src/xmc_can.c ****     uint32_t error;
 215:../Libraries/XMCLib/src/xmc_can.c **** 
 216:../Libraries/XMCLib/src/xmc_can.c ****   if((temp_tbaud % 10U) > 5U)
 564              	 .loc 2 216 0
 565 0054 7B6A     	 ldr r3,[r7,#36]
 566 0056 181C     	 mov r0,r3
 567 0058 0A21     	 mov r1,#10
 568 005a FFF7FEFF 	 bl __aeabi_uidivmod
 569 005e 0B1E     	 sub r3,r1,#0
 570 0060 052B     	 cmp r3,#5
 571 0062 0AD9     	 bls .L24
 217:../Libraries/XMCLib/src/xmc_can.c ****   {
 218:../Libraries/XMCLib/src/xmc_can.c ****   temp_tbaud = (uint32_t)(temp_tbaud / 10U);
 572              	 .loc 2 218 0
 573 0064 7B6A     	 ldr r3,[r7,#36]
 574 0066 181C     	 mov r0,r3
 575 0068 0A21     	 mov r1,#10
 576 006a FFF7FEFF 	 bl __aeabi_uidiv
 577 006e 031C     	 mov r3,r0
 578 0070 7B62     	 str r3,[r7,#36]
 219:../Libraries/XMCLib/src/xmc_can.c ****   temp_tbaud++;
 579              	 .loc 2 219 0
 580 0072 7B6A     	 ldr r3,[r7,#36]
 581 0074 0133     	 add r3,r3,#1
 582 0076 7B62     	 str r3,[r7,#36]
 583 0078 06E0     	 b .L25
 584              	.L24:
 220:../Libraries/XMCLib/src/xmc_can.c ****   }
 221:../Libraries/XMCLib/src/xmc_can.c ****   else
 222:../Libraries/XMCLib/src/xmc_can.c ****   {
 223:../Libraries/XMCLib/src/xmc_can.c ****   temp_tbaud = (uint32_t)(temp_tbaud / 10U);
 585              	 .loc 2 223 0
 586 007a 7B6A     	 ldr r3,[r7,#36]
 587 007c 181C     	 mov r0,r3
 588 007e 0A21     	 mov r1,#10
 589 0080 FFF7FEFF 	 bl __aeabi_uidiv
 590 0084 031C     	 mov r3,r0
 591 0086 7B62     	 str r3,[r7,#36]
 592              	.L25:
 224:../Libraries/XMCLib/src/xmc_can.c ****   }
 225:../Libraries/XMCLib/src/xmc_can.c **** 
 226:../Libraries/XMCLib/src/xmc_can.c ****   if(temp_tbaud > 0U)
 593              	 .loc 2 226 0
 594 0088 7B6A     	 ldr r3,[r7,#36]
 595 008a 002B     	 cmp r3,#0
 596 008c 0BD0     	 beq .L26
 227:../Libraries/XMCLib/src/xmc_can.c ****   {
 228:../Libraries/XMCLib/src/xmc_can.c ****     temp_baudrate = (uint32_t) (f_quanta / (temp_tbaud * 10U));
 597              	 .loc 2 228 0
 598 008e 7A6A     	 ldr r2,[r7,#36]
 599 0090 131C     	 mov r3,r2
 600 0092 9B00     	 lsl r3,r3,#2
 601 0094 9B18     	 add r3,r3,r2
 602 0096 5B00     	 lsl r3,r3,#1
 603 0098 3869     	 ldr r0,[r7,#16]
 604 009a 191C     	 mov r1,r3
 605 009c FFF7FEFF 	 bl __aeabi_uidiv
 606 00a0 031C     	 mov r3,r0
 607 00a2 3B62     	 str r3,[r7,#32]
 608 00a4 08E0     	 b .L27
 609              	.L26:
 229:../Libraries/XMCLib/src/xmc_can.c ****   }
 230:../Libraries/XMCLib/src/xmc_can.c ****   else
 231:../Libraries/XMCLib/src/xmc_can.c ****   {
 232:../Libraries/XMCLib/src/xmc_can.c ****     temp_baudrate = f_quanta / 10U;
 610              	 .loc 2 232 0
 611 00a6 3B69     	 ldr r3,[r7,#16]
 612 00a8 181C     	 mov r0,r3
 613 00aa 0A21     	 mov r1,#10
 614 00ac FFF7FEFF 	 bl __aeabi_uidiv
 615 00b0 031C     	 mov r3,r0
 616 00b2 3B62     	 str r3,[r7,#32]
 233:../Libraries/XMCLib/src/xmc_can.c ****   temp_tbaud = 1;
 617              	 .loc 2 233 0
 618 00b4 0123     	 mov r3,#1
 619 00b6 7B62     	 str r3,[r7,#36]
 620              	.L27:
 234:../Libraries/XMCLib/src/xmc_can.c ****   }
 235:../Libraries/XMCLib/src/xmc_can.c **** 
 236:../Libraries/XMCLib/src/xmc_can.c ****   if(temp_baudrate >= can_bit_time->baudrate)
 621              	 .loc 2 236 0
 622 00b8 3B68     	 ldr r3,[r7]
 623 00ba 5A68     	 ldr r2,[r3,#4]
 624 00bc 3B6A     	 ldr r3,[r7,#32]
 625 00be 9A42     	 cmp r2,r3
 626 00c0 05D8     	 bhi .L28
 237:../Libraries/XMCLib/src/xmc_can.c ****   {
 238:../Libraries/XMCLib/src/xmc_can.c ****   error = temp_baudrate - can_bit_time->baudrate;
 627              	 .loc 2 238 0
 628 00c2 3B68     	 ldr r3,[r7]
 629 00c4 5B68     	 ldr r3,[r3,#4]
 630 00c6 3A6A     	 ldr r2,[r7,#32]
 631 00c8 D31A     	 sub r3,r2,r3
 632 00ca FB61     	 str r3,[r7,#28]
 633 00cc 04E0     	 b .L29
 634              	.L28:
 239:../Libraries/XMCLib/src/xmc_can.c ****   }
 240:../Libraries/XMCLib/src/xmc_can.c ****   else
 241:../Libraries/XMCLib/src/xmc_can.c ****   {
 242:../Libraries/XMCLib/src/xmc_can.c ****   error = can_bit_time->baudrate - temp_baudrate;
 635              	 .loc 2 242 0
 636 00ce 3B68     	 ldr r3,[r7]
 637 00d0 5A68     	 ldr r2,[r3,#4]
 638 00d2 3B6A     	 ldr r3,[r7,#32]
 639 00d4 D31A     	 sub r3,r2,r3
 640 00d6 FB61     	 str r3,[r7,#28]
 641              	.L29:
 243:../Libraries/XMCLib/src/xmc_can.c ****   }
 244:../Libraries/XMCLib/src/xmc_can.c **** 
 245:../Libraries/XMCLib/src/xmc_can.c ****   if ((temp_tbaud <= 20U) && (best_error > error))
 642              	 .loc 2 245 0
 643 00d8 7B6A     	 ldr r3,[r7,#36]
 644 00da 142B     	 cmp r3,#20
 645 00dc 0ED8     	 bhi .L30
 646              	 .loc 2 245 0 is_stmt 0 discriminator 1
 647 00de BA6A     	 ldr r2,[r7,#40]
 648 00e0 FB69     	 ldr r3,[r7,#28]
 649 00e2 9A42     	 cmp r2,r3
 650 00e4 0AD9     	 bls .L30
 246:../Libraries/XMCLib/src/xmc_can.c ****   {
 247:../Libraries/XMCLib/src/xmc_can.c ****     best_brp = temp_brp;
 651              	 .loc 2 247 0 is_stmt 1
 652 00e6 FB6B     	 ldr r3,[r7,#60]
 653 00e8 7B63     	 str r3,[r7,#52]
 248:../Libraries/XMCLib/src/xmc_can.c ****     best_tbaud = temp_tbaud;
 654              	 .loc 2 248 0
 655 00ea 7B6A     	 ldr r3,[r7,#36]
 656 00ec FB62     	 str r3,[r7,#44]
 249:../Libraries/XMCLib/src/xmc_can.c ****     best_error = (error);
 657              	 .loc 2 249 0
 658 00ee FB69     	 ldr r3,[r7,#28]
 659 00f0 BB62     	 str r3,[r7,#40]
 250:../Libraries/XMCLib/src/xmc_can.c **** 
 251:../Libraries/XMCLib/src/xmc_can.c ****     if (error < 1000U)
 660              	 .loc 2 251 0
 661 00f2 FB69     	 ldr r3,[r7,#28]
 662 00f4 364A     	 ldr r2,.L40+4
 663 00f6 9342     	 cmp r3,r2
 664 00f8 00D8     	 bhi .L30
 252:../Libraries/XMCLib/src/xmc_can.c ****     {
 253:../Libraries/XMCLib/src/xmc_can.c ****       break;
 665              	 .loc 2 253 0
 666 00fa 05E0     	 b .L31
 667              	.L30:
 668              	.LBE4:
 208:../Libraries/XMCLib/src/xmc_can.c ****   {
 669              	 .loc 2 208 0 discriminator 2
 670 00fc FB6B     	 ldr r3,[r7,#60]
 671 00fe 0133     	 add r3,r3,#1
 672 0100 FB63     	 str r3,[r7,#60]
 673              	.L23:
 208:../Libraries/XMCLib/src/xmc_can.c ****   {
 674              	 .loc 2 208 0 is_stmt 0 discriminator 1
 675 0102 FB6B     	 ldr r3,[r7,#60]
 676 0104 402B     	 cmp r3,#64
 677 0106 91D9     	 bls .L32
 678              	.L31:
 254:../Libraries/XMCLib/src/xmc_can.c ****     }
 255:../Libraries/XMCLib/src/xmc_can.c ****    }
 256:../Libraries/XMCLib/src/xmc_can.c ****   }
 257:../Libraries/XMCLib/src/xmc_can.c ****   /* search for best sample point */
 258:../Libraries/XMCLib/src/xmc_can.c ****   best_error = 10000U;
 679              	 .loc 2 258 0 is_stmt 1
 680 0108 304B     	 ldr r3,.L40
 681 010a BB62     	 str r3,[r7,#40]
 259:../Libraries/XMCLib/src/xmc_can.c **** 
 260:../Libraries/XMCLib/src/xmc_can.c ****   for (temp_tseg1 = 64U; temp_tseg1 >= 3U; temp_tseg1--)
 682              	 .loc 2 260 0
 683 010c 4023     	 mov r3,#64
 684 010e BB63     	 str r3,[r7,#56]
 685 0110 2EE0     	 b .L33
 686              	.L39:
 687              	.LBB5:
 261:../Libraries/XMCLib/src/xmc_can.c ****   {
 262:../Libraries/XMCLib/src/xmc_can.c ****     uint32_t tempSamplePoint = ((temp_tseg1 + 1U) * 10000U) / best_tbaud;
 688              	 .loc 2 262 0
 689 0112 BB6B     	 ldr r3,[r7,#56]
 690 0114 0133     	 add r3,r3,#1
 691 0116 2D4A     	 ldr r2,.L40
 692 0118 5343     	 mul r3,r2
 693 011a 181C     	 mov r0,r3
 694 011c F96A     	 ldr r1,[r7,#44]
 695 011e FFF7FEFF 	 bl __aeabi_uidiv
 696 0122 031C     	 mov r3,r0
 697 0124 FB60     	 str r3,[r7,#12]
 263:../Libraries/XMCLib/src/xmc_can.c ****   uint32_t error;
 264:../Libraries/XMCLib/src/xmc_can.c ****   if (tempSamplePoint >= can_bit_time->sample_point)
 698              	 .loc 2 264 0
 699 0126 3B68     	 ldr r3,[r7]
 700 0128 1B89     	 ldrh r3,[r3,#8]
 701 012a 1A1E     	 sub r2,r3,#0
 702 012c FB68     	 ldr r3,[r7,#12]
 703 012e 9A42     	 cmp r2,r3
 704 0130 06D8     	 bhi .L34
 265:../Libraries/XMCLib/src/xmc_can.c ****   {
 266:../Libraries/XMCLib/src/xmc_can.c ****       error = tempSamplePoint  - can_bit_time->sample_point;
 705              	 .loc 2 266 0
 706 0132 3B68     	 ldr r3,[r7]
 707 0134 1B89     	 ldrh r3,[r3,#8]
 708 0136 1A1C     	 mov r2,r3
 709 0138 FB68     	 ldr r3,[r7,#12]
 710 013a 9B1A     	 sub r3,r3,r2
 711 013c BB61     	 str r3,[r7,#24]
 712 013e 05E0     	 b .L35
 713              	.L34:
 267:../Libraries/XMCLib/src/xmc_can.c ****   }
 268:../Libraries/XMCLib/src/xmc_can.c ****   else
 269:../Libraries/XMCLib/src/xmc_can.c ****   {
 270:../Libraries/XMCLib/src/xmc_can.c ****     error = can_bit_time->sample_point  - tempSamplePoint;
 714              	 .loc 2 270 0
 715 0140 3B68     	 ldr r3,[r7]
 716 0142 1B89     	 ldrh r3,[r3,#8]
 717 0144 1A1C     	 mov r2,r3
 718 0146 FB68     	 ldr r3,[r7,#12]
 719 0148 D31A     	 sub r3,r2,r3
 720 014a BB61     	 str r3,[r7,#24]
 721              	.L35:
 271:../Libraries/XMCLib/src/xmc_can.c ****   }
 272:../Libraries/XMCLib/src/xmc_can.c ****     if (best_error > error)
 722              	 .loc 2 272 0
 723 014c BA6A     	 ldr r2,[r7,#40]
 724 014e BB69     	 ldr r3,[r7,#24]
 725 0150 9A42     	 cmp r2,r3
 726 0152 03D9     	 bls .L36
 273:../Libraries/XMCLib/src/xmc_can.c ****     {
 274:../Libraries/XMCLib/src/xmc_can.c ****       best_tseg1 = temp_tseg1;
 727              	 .loc 2 274 0
 728 0154 BB6B     	 ldr r3,[r7,#56]
 729 0156 3B63     	 str r3,[r7,#48]
 275:../Libraries/XMCLib/src/xmc_can.c ****       best_error = error;
 730              	 .loc 2 275 0
 731 0158 BB69     	 ldr r3,[r7,#24]
 732 015a BB62     	 str r3,[r7,#40]
 733              	.L36:
 276:../Libraries/XMCLib/src/xmc_can.c ****     }
 277:../Libraries/XMCLib/src/xmc_can.c ****     if (tempSamplePoint < (can_bit_time->sample_point))
 734              	 .loc 2 277 0
 735 015c 3B68     	 ldr r3,[r7]
 736 015e 1B89     	 ldrh r3,[r3,#8]
 737 0160 1A1E     	 sub r2,r3,#0
 738 0162 FB68     	 ldr r3,[r7,#12]
 739 0164 9A42     	 cmp r2,r3
 740 0166 00D9     	 bls .L37
 278:../Libraries/XMCLib/src/xmc_can.c ****     {
 279:../Libraries/XMCLib/src/xmc_can.c ****       break;
 741              	 .loc 2 279 0
 742 0168 05E0     	 b .L38
 743              	.L37:
 744              	.LBE5:
 260:../Libraries/XMCLib/src/xmc_can.c ****   {
 745              	 .loc 2 260 0 discriminator 2
 746 016a BB6B     	 ldr r3,[r7,#56]
 747 016c 013B     	 sub r3,r3,#1
 748 016e BB63     	 str r3,[r7,#56]
 749              	.L33:
 260:../Libraries/XMCLib/src/xmc_can.c ****   {
 750              	 .loc 2 260 0 is_stmt 0 discriminator 1
 751 0170 BB6B     	 ldr r3,[r7,#56]
 752 0172 022B     	 cmp r3,#2
 753 0174 CDD8     	 bhi .L39
 754              	.L38:
 280:../Libraries/XMCLib/src/xmc_can.c ****     }
 281:../Libraries/XMCLib/src/xmc_can.c ****   }
 282:../Libraries/XMCLib/src/xmc_can.c **** 
 283:../Libraries/XMCLib/src/xmc_can.c ****   best_tseg2 = best_tbaud - best_tseg1 - 1U;
 755              	 .loc 2 283 0 is_stmt 1
 756 0176 FA6A     	 ldr r2,[r7,#44]
 757 0178 3B6B     	 ldr r3,[r7,#48]
 758 017a D31A     	 sub r3,r2,r3
 759 017c 013B     	 sub r3,r3,#1
 760 017e 7B61     	 str r3,[r7,#20]
 284:../Libraries/XMCLib/src/xmc_can.c **** 
 285:../Libraries/XMCLib/src/xmc_can.c ****   XMC_CAN_NODE_EnableConfigurationChange(can_node);
 761              	 .loc 2 285 0
 762 0180 7B68     	 ldr r3,[r7,#4]
 763 0182 181C     	 mov r0,r3
 764 0184 FFF7FEFF 	 bl XMC_CAN_NODE_EnableConfigurationChange
 286:../Libraries/XMCLib/src/xmc_can.c ****   /* Configure bit timing register */
 287:../Libraries/XMCLib/src/xmc_can.c ****   can_node->NBTR = (((uint32_t)(best_tseg2 - 1u) << CAN_NODE_NBTR_TSEG2_Pos) & (uint32_t)CAN_NODE_N
 765              	 .loc 2 287 0
 766 0188 7B69     	 ldr r3,[r7,#20]
 767 018a 013B     	 sub r3,r3,#1
 768 018c 1A03     	 lsl r2,r3,#12
 769 018e E023     	 mov r3,#224
 770 0190 DB01     	 lsl r3,r3,#7
 771 0192 1A40     	 and r2,r3
 288:../Libraries/XMCLib/src/xmc_can.c ****                    ((((uint32_t)((uint32_t)(can_bit_time->sjw)-1U) << CAN_NODE_NBTR_SJW_Pos)) & (ui
 772              	 .loc 2 288 0
 773 0194 3B68     	 ldr r3,[r7]
 774 0196 5B89     	 ldrh r3,[r3,#10]
 775 0198 013B     	 sub r3,r3,#1
 776 019a 9B01     	 lsl r3,r3,#6
 777 019c FF21     	 mov r1,#255
 778 019e 0B40     	 and r3,r1
 287:../Libraries/XMCLib/src/xmc_can.c ****                    ((((uint32_t)((uint32_t)(can_bit_time->sjw)-1U) << CAN_NODE_NBTR_SJW_Pos)) & (ui
 779              	 .loc 2 287 0
 780 01a0 1A43     	 orr r2,r3
 289:../Libraries/XMCLib/src/xmc_can.c ****                    (((uint32_t)(best_tseg1-1U) << CAN_NODE_NBTR_TSEG1_Pos) & (uint32_t)CAN_NODE_NBT
 781              	 .loc 2 289 0
 782 01a2 3B6B     	 ldr r3,[r7,#48]
 783 01a4 013B     	 sub r3,r3,#1
 784 01a6 1902     	 lsl r1,r3,#8
 785 01a8 F023     	 mov r3,#240
 786 01aa 1B01     	 lsl r3,r3,#4
 787 01ac 0B40     	 and r3,r1
 288:../Libraries/XMCLib/src/xmc_can.c ****                    ((((uint32_t)((uint32_t)(can_bit_time->sjw)-1U) << CAN_NODE_NBTR_SJW_Pos)) & (ui
 788              	 .loc 2 288 0
 789 01ae 1A43     	 orr r2,r3
 290:../Libraries/XMCLib/src/xmc_can.c ****                    (((uint32_t)(best_brp - 1U) << CAN_NODE_NBTR_BRP_Pos) & (uint32_t)CAN_NODE_NBTR_
 790              	 .loc 2 290 0
 791 01b0 7B6B     	 ldr r3,[r7,#52]
 792 01b2 013B     	 sub r3,r3,#1
 793 01b4 3F21     	 mov r1,#63
 794 01b6 0B40     	 and r3,r1
 795 01b8 1A43     	 orr r2,r3
 287:../Libraries/XMCLib/src/xmc_can.c ****                    ((((uint32_t)((uint32_t)(can_bit_time->sjw)-1U) << CAN_NODE_NBTR_SJW_Pos)) & (ui
 796              	 .loc 2 287 0
 797 01ba 7B68     	 ldr r3,[r7,#4]
 798 01bc 1A61     	 str r2,[r3,#16]
 291:../Libraries/XMCLib/src/xmc_can.c ****                    (((uint32_t)0U << CAN_NODE_NBTR_DIV8_Pos) & (uint32_t)CAN_NODE_NBTR_DIV8_Msk);
 292:../Libraries/XMCLib/src/xmc_can.c ****   XMC_CAN_NODE_DisableConfigurationChange(can_node);
 799              	 .loc 2 292 0
 800 01be 7B68     	 ldr r3,[r7,#4]
 801 01c0 181C     	 mov r0,r3
 802 01c2 FFF7FEFF 	 bl XMC_CAN_NODE_DisableConfigurationChange
 293:../Libraries/XMCLib/src/xmc_can.c **** }
 803              	 .loc 2 293 0
 804 01c6 BD46     	 mov sp,r7
 805 01c8 10B0     	 add sp,sp,#64
 806              	 
 807 01ca 80BD     	 pop {r7,pc}
 808              	.L41:
 809              	 .align 2
 810              	.L40:
 811 01cc 10270000 	 .word 10000
 812 01d0 E7030000 	 .word 999
 813              	 .cfi_endproc
 814              	.LFE117:
 816              	 .section .text.XMC_CAN_AllocateMOtoNodeList,"ax",%progbits
 817              	 .align 2
 818              	 .global XMC_CAN_AllocateMOtoNodeList
 819              	 .code 16
 820              	 .thumb_func
 822              	XMC_CAN_AllocateMOtoNodeList:
 823              	.LFB118:
 294:../Libraries/XMCLib/src/xmc_can.c **** /* Function to allocate message object from free list to node list */
 295:../Libraries/XMCLib/src/xmc_can.c **** void XMC_CAN_AllocateMOtoNodeList(XMC_CAN_t *const obj, const uint8_t node_num, const uint8_t mo_nu
 296:../Libraries/XMCLib/src/xmc_can.c **** {
 824              	 .loc 2 296 0
 825              	 .cfi_startproc
 826 0000 90B5     	 push {r4,r7,lr}
 827              	.LCFI24:
 828              	 .cfi_def_cfa_offset 12
 829              	 .cfi_offset 4,-12
 830              	 .cfi_offset 7,-8
 831              	 .cfi_offset 14,-4
 832 0002 83B0     	 sub sp,sp,#12
 833              	.LCFI25:
 834              	 .cfi_def_cfa_offset 24
 835 0004 00AF     	 add r7,sp,#0
 836              	.LCFI26:
 837              	 .cfi_def_cfa_register 7
 838 0006 7860     	 str r0,[r7,#4]
 839 0008 081C     	 mov r0,r1
 840 000a 111C     	 mov r1,r2
 841 000c FB1C     	 add r3,r7,#3
 842 000e 021C     	 add r2,r0,#0
 843 0010 1A70     	 strb r2,[r3]
 844 0012 BB1C     	 add r3,r7,#2
 845 0014 0A1C     	 add r2,r1,#0
 846 0016 1A70     	 strb r2,[r3]
 297:../Libraries/XMCLib/src/xmc_can.c ****   /* wait while panel operation is in progress. */
 298:../Libraries/XMCLib/src/xmc_can.c ****   while (XMC_CAN_IsPanelControlReady(obj) == false)
 847              	 .loc 2 298 0
 848 0018 C046     	 mov r8,r8
 849              	.L43:
 850              	 .loc 2 298 0 is_stmt 0 discriminator 1
 851 001a 7B68     	 ldr r3,[r7,#4]
 852 001c 181C     	 mov r0,r3
 853 001e FFF7FEFF 	 bl XMC_CAN_IsPanelControlReady
 854 0022 031C     	 mov r3,r0
 855 0024 1A1C     	 mov r2,r3
 856 0026 0123     	 mov r3,#1
 857 0028 5340     	 eor r3,r2
 858 002a DBB2     	 uxtb r3,r3
 859 002c 002B     	 cmp r3,#0
 860 002e F4D1     	 bne .L43
 299:../Libraries/XMCLib/src/xmc_can.c ****   {
 300:../Libraries/XMCLib/src/xmc_can.c ****     /*Do nothing*/
 301:../Libraries/XMCLib/src/xmc_can.c ****   };
 302:../Libraries/XMCLib/src/xmc_can.c **** 
 303:../Libraries/XMCLib/src/xmc_can.c ****   /* Panel Command for  allocation of MO to node list */
 304:../Libraries/XMCLib/src/xmc_can.c ****   XMC_CAN_PanelControl(obj, XMC_CAN_PANCMD_STATIC_ALLOCATE,mo_num,(node_num + 1U));
 861              	 .loc 2 304 0 is_stmt 1
 862 0030 FB1C     	 add r3,r7,#3
 863 0032 1B78     	 ldrb r3,[r3]
 864 0034 0133     	 add r3,r3,#1
 865 0036 DCB2     	 uxtb r4,r3
 866 0038 7A68     	 ldr r2,[r7,#4]
 867 003a BB1C     	 add r3,r7,#2
 868 003c 1B78     	 ldrb r3,[r3]
 869 003e 101C     	 mov r0,r2
 870 0040 0221     	 mov r1,#2
 871 0042 1A1C     	 mov r2,r3
 872 0044 231C     	 mov r3,r4
 873 0046 FFF7FEFF 	 bl XMC_CAN_PanelControl
 305:../Libraries/XMCLib/src/xmc_can.c **** }
 874              	 .loc 2 305 0
 875 004a BD46     	 mov sp,r7
 876 004c 03B0     	 add sp,sp,#12
 877              	 
 878 004e 90BD     	 pop {r4,r7,pc}
 879              	 .cfi_endproc
 880              	.LFE118:
 882              	 .section .text.XMC_CAN_Disable,"ax",%progbits
 883              	 .align 2
 884              	 .global XMC_CAN_Disable
 885              	 .code 16
 886              	 .thumb_func
 888              	XMC_CAN_Disable:
 889              	.LFB119:
 306:../Libraries/XMCLib/src/xmc_can.c **** 
 307:../Libraries/XMCLib/src/xmc_can.c **** /* Disable XMC_CAN Peripheral */
 308:../Libraries/XMCLib/src/xmc_can.c **** void XMC_CAN_Disable(XMC_CAN_t *const obj)
 309:../Libraries/XMCLib/src/xmc_can.c **** {
 890              	 .loc 2 309 0
 891              	 .cfi_startproc
 892 0000 80B5     	 push {r7,lr}
 893              	.LCFI27:
 894              	 .cfi_def_cfa_offset 8
 895              	 .cfi_offset 7,-8
 896              	 .cfi_offset 14,-4
 897 0002 82B0     	 sub sp,sp,#8
 898              	.LCFI28:
 899              	 .cfi_def_cfa_offset 16
 900 0004 00AF     	 add r7,sp,#0
 901              	.LCFI29:
 902              	 .cfi_def_cfa_register 7
 903 0006 7860     	 str r0,[r7,#4]
 310:../Libraries/XMCLib/src/xmc_can.c ****   /* Disable CAN Module */
 311:../Libraries/XMCLib/src/xmc_can.c ****   obj->CLC = CAN_CLC_DISR_Msk;
 904              	 .loc 2 311 0
 905 0008 7B68     	 ldr r3,[r7,#4]
 906 000a 0122     	 mov r2,#1
 907 000c 1A60     	 str r2,[r3]
 312:../Libraries/XMCLib/src/xmc_can.c **** #if defined(PERIPHERAL_RESET_SUPPORTED)
 313:../Libraries/XMCLib/src/xmc_can.c ****   XMC_SCU_RESET_AssertPeripheralReset(XMC_SCU_PERIPHERAL_RESET_MCAN);
 314:../Libraries/XMCLib/src/xmc_can.c **** #endif
 315:../Libraries/XMCLib/src/xmc_can.c **** #if defined(CLOCK_GATING_SUPPORTED)
 316:../Libraries/XMCLib/src/xmc_can.c ****   XMC_SCU_CLOCK_GatePeripheralClock(XMC_SCU_PERIPHERAL_CLOCK_MCAN);
 908              	 .loc 2 316 0
 909 000e 8023     	 mov r3,#128
 910 0010 9B03     	 lsl r3,r3,#14
 911 0012 181C     	 mov r0,r3
 912 0014 FFF7FEFF 	 bl XMC_SCU_CLOCK_GatePeripheralClock
 317:../Libraries/XMCLib/src/xmc_can.c **** #endif
 318:../Libraries/XMCLib/src/xmc_can.c **** }
 913              	 .loc 2 318 0
 914 0018 BD46     	 mov sp,r7
 915 001a 02B0     	 add sp,sp,#8
 916              	 
 917 001c 80BD     	 pop {r7,pc}
 918              	 .cfi_endproc
 919              	.LFE119:
 921 001e C046     	 .section .text.XMC_CAN_Enable,"ax",%progbits
 922              	 .align 2
 923              	 .global XMC_CAN_Enable
 924              	 .code 16
 925              	 .thumb_func
 927              	XMC_CAN_Enable:
 928              	.LFB120:
 319:../Libraries/XMCLib/src/xmc_can.c **** 
 320:../Libraries/XMCLib/src/xmc_can.c **** /* Enable XMC_CAN Peripheral */
 321:../Libraries/XMCLib/src/xmc_can.c **** void XMC_CAN_Enable(XMC_CAN_t *const obj)
 322:../Libraries/XMCLib/src/xmc_can.c **** {
 929              	 .loc 2 322 0
 930              	 .cfi_startproc
 931 0000 80B5     	 push {r7,lr}
 932              	.LCFI30:
 933              	 .cfi_def_cfa_offset 8
 934              	 .cfi_offset 7,-8
 935              	 .cfi_offset 14,-4
 936 0002 82B0     	 sub sp,sp,#8
 937              	.LCFI31:
 938              	 .cfi_def_cfa_offset 16
 939 0004 00AF     	 add r7,sp,#0
 940              	.LCFI32:
 941              	 .cfi_def_cfa_register 7
 942 0006 7860     	 str r0,[r7,#4]
 323:../Libraries/XMCLib/src/xmc_can.c **** #if defined(CLOCK_GATING_SUPPORTED)
 324:../Libraries/XMCLib/src/xmc_can.c ****   XMC_SCU_CLOCK_UngatePeripheralClock(XMC_SCU_PERIPHERAL_CLOCK_MCAN);
 943              	 .loc 2 324 0
 944 0008 8023     	 mov r3,#128
 945 000a 9B03     	 lsl r3,r3,#14
 946 000c 181C     	 mov r0,r3
 947 000e FFF7FEFF 	 bl XMC_SCU_CLOCK_UngatePeripheralClock
 325:../Libraries/XMCLib/src/xmc_can.c **** #endif
 326:../Libraries/XMCLib/src/xmc_can.c **** #if defined(PERIPHERAL_RESET_SUPPORTED)
 327:../Libraries/XMCLib/src/xmc_can.c ****   XMC_SCU_RESET_DeassertPeripheralReset(XMC_SCU_PERIPHERAL_RESET_MCAN);
 328:../Libraries/XMCLib/src/xmc_can.c **** #endif
 329:../Libraries/XMCLib/src/xmc_can.c ****   /* Enable CAN Module */
 330:../Libraries/XMCLib/src/xmc_can.c ****   obj->CLC &= ~(uint32_t)CAN_CLC_DISR_Msk;
 948              	 .loc 2 330 0
 949 0012 7B68     	 ldr r3,[r7,#4]
 950 0014 1B68     	 ldr r3,[r3]
 951 0016 0122     	 mov r2,#1
 952 0018 9343     	 bic r3,r2
 953 001a 1A1C     	 mov r2,r3
 954 001c 7B68     	 ldr r3,[r7,#4]
 955 001e 1A60     	 str r2,[r3]
 331:../Libraries/XMCLib/src/xmc_can.c ****   while (obj->CLC & CAN_CLC_DISS_Msk)
 956              	 .loc 2 331 0
 957 0020 C046     	 mov r8,r8
 958              	.L46:
 959              	 .loc 2 331 0 is_stmt 0 discriminator 1
 960 0022 7B68     	 ldr r3,[r7,#4]
 961 0024 1B68     	 ldr r3,[r3]
 962 0026 0222     	 mov r2,#2
 963 0028 1340     	 and r3,r2
 964 002a FAD1     	 bne .L46
 332:../Libraries/XMCLib/src/xmc_can.c ****   {
 333:../Libraries/XMCLib/src/xmc_can.c ****     /*Do nothing*/
 334:../Libraries/XMCLib/src/xmc_can.c ****   };
 335:../Libraries/XMCLib/src/xmc_can.c **** }
 965              	 .loc 2 335 0 is_stmt 1
 966 002c BD46     	 mov sp,r7
 967 002e 02B0     	 add sp,sp,#8
 968              	 
 969 0030 80BD     	 pop {r7,pc}
 970              	 .cfi_endproc
 971              	.LFE120:
 973 0032 C046     	 .section .text.XMC_CAN_Init,"ax",%progbits
 974              	 .align 2
 975              	 .global XMC_CAN_Init
 976              	 .code 16
 977              	 .thumb_func
 979              	XMC_CAN_Init:
 980              	.LFB121:
 336:../Libraries/XMCLib/src/xmc_can.c **** 
 337:../Libraries/XMCLib/src/xmc_can.c **** #if defined(MULTICAN_PLUS)
 338:../Libraries/XMCLib/src/xmc_can.c **** void XMC_CAN_Init(XMC_CAN_t *const obj, XMC_CAN_CANCLKSRC_t clksrc, uint32_t can_frequency)
 339:../Libraries/XMCLib/src/xmc_can.c **** {
 981              	 .loc 2 339 0
 982              	 .cfi_startproc
 983 0000 80B5     	 push {r7,lr}
 984              	.LCFI33:
 985              	 .cfi_def_cfa_offset 8
 986              	 .cfi_offset 7,-8
 987              	 .cfi_offset 14,-4
 988 0002 8EB0     	 sub sp,sp,#56
 989              	.LCFI34:
 990              	 .cfi_def_cfa_offset 64
 991 0004 00AF     	 add r7,sp,#0
 992              	.LCFI35:
 993              	 .cfi_def_cfa_register 7
 994 0006 F860     	 str r0,[r7,#12]
 995 0008 7A60     	 str r2,[r7,#4]
 996 000a 0B23     	 mov r3,#11
 997 000c FB18     	 add r3,r7,r3
 998 000e 0A1C     	 add r2,r1,#0
 999 0010 1A70     	 strb r2,[r3]
 340:../Libraries/XMCLib/src/xmc_can.c ****   uint32_t  step_n, step_f;
 341:../Libraries/XMCLib/src/xmc_can.c ****   bool normal_divider;
 342:../Libraries/XMCLib/src/xmc_can.c ****   uint32_t freq_n, freq_f;
 343:../Libraries/XMCLib/src/xmc_can.c ****   uint32_t step;
 344:../Libraries/XMCLib/src/xmc_can.c ****   uint32_t can_frequency_khz;
 345:../Libraries/XMCLib/src/xmc_can.c ****   uint32_t peripheral_frequency_khz;
 346:../Libraries/XMCLib/src/xmc_can.c ****   XMC_CAN_DM_t can_divider_mode;
 347:../Libraries/XMCLib/src/xmc_can.c **** 
 348:../Libraries/XMCLib/src/xmc_can.c ****   uint32_t peripheral_frequency;
 349:../Libraries/XMCLib/src/xmc_can.c ****   /*Enabling the module*/
 350:../Libraries/XMCLib/src/xmc_can.c ****   XMC_CAN_Enable(obj);
 1000              	 .loc 2 350 0
 1001 0012 FB68     	 ldr r3,[r7,#12]
 1002 0014 181C     	 mov r0,r3
 1003 0016 FFF7FEFF 	 bl XMC_CAN_Enable
 351:../Libraries/XMCLib/src/xmc_can.c **** 
 352:../Libraries/XMCLib/src/xmc_can.c ****   XMC_CAN_SetBaudrateClockSource(obj, clksrc);
 1004              	 .loc 2 352 0
 1005 001a FA68     	 ldr r2,[r7,#12]
 1006 001c 0B23     	 mov r3,#11
 1007 001e FB18     	 add r3,r7,r3
 1008 0020 1B78     	 ldrb r3,[r3]
 1009 0022 101C     	 mov r0,r2
 1010 0024 191C     	 mov r1,r3
 1011 0026 FFF7FEFF 	 bl XMC_CAN_SetBaudrateClockSource
 353:../Libraries/XMCLib/src/xmc_can.c **** 
 354:../Libraries/XMCLib/src/xmc_can.c ****   peripheral_frequency = XMC_CAN_GetBaudrateClockFrequency(obj);
 1012              	 .loc 2 354 0
 1013 002a FB68     	 ldr r3,[r7,#12]
 1014 002c 181C     	 mov r0,r3
 1015 002e FFF7FEFF 	 bl XMC_CAN_GetBaudrateClockFrequency
 1016 0032 031C     	 mov r3,r0
 1017 0034 7B63     	 str r3,[r7,#52]
 355:../Libraries/XMCLib/src/xmc_can.c **** 
 356:../Libraries/XMCLib/src/xmc_can.c ****   XMC_ASSERT("XMC_CAN_Init: frequency not supported", can_frequency <= peripheral_frequency);
 357:../Libraries/XMCLib/src/xmc_can.c **** 
 358:../Libraries/XMCLib/src/xmc_can.c ****   /* Normal divider mode */
 359:../Libraries/XMCLib/src/xmc_can.c ****   step_n = (uint32_t)min(max(0U, (1024U - (peripheral_frequency / can_frequency))), 1023U);
 1018              	 .loc 2 359 0
 1019 0036 786B     	 ldr r0,[r7,#52]
 1020 0038 7968     	 ldr r1,[r7,#4]
 1021 003a FFF7FEFF 	 bl __aeabi_uidiv
 1022 003e 031C     	 mov r3,r0
 1023 0040 1A1C     	 mov r2,r3
 1024 0042 8023     	 mov r3,#128
 1025 0044 DB00     	 lsl r3,r3,#3
 1026 0046 9B1A     	 sub r3,r3,r2
 1027 0048 0020     	 mov r0,#0
 1028 004a 191C     	 mov r1,r3
 1029 004c FFF7FEFF 	 bl max
 1030 0050 021C     	 mov r2,r0
 1031 0052 314B     	 ldr r3,.L52
 1032 0054 101C     	 mov r0,r2
 1033 0056 191C     	 mov r1,r3
 1034 0058 FFF7FEFF 	 bl min
 1035 005c 031C     	 mov r3,r0
 1036 005e 3B63     	 str r3,[r7,#48]
 360:../Libraries/XMCLib/src/xmc_can.c ****   freq_n = (uint32_t) (peripheral_frequency / (1024U - step_n));
 1037              	 .loc 2 360 0
 1038 0060 3B6B     	 ldr r3,[r7,#48]
 1039 0062 8022     	 mov r2,#128
 1040 0064 D200     	 lsl r2,r2,#3
 1041 0066 D31A     	 sub r3,r2,r3
 1042 0068 786B     	 ldr r0,[r7,#52]
 1043 006a 191C     	 mov r1,r3
 1044 006c FFF7FEFF 	 bl __aeabi_uidiv
 1045 0070 031C     	 mov r3,r0
 1046 0072 FB62     	 str r3,[r7,#44]
 361:../Libraries/XMCLib/src/xmc_can.c **** 
 362:../Libraries/XMCLib/src/xmc_can.c ****   /* Fractional divider mode */
 363:../Libraries/XMCLib/src/xmc_can.c ****   can_frequency_khz = (uint32_t) (can_frequency >> 6);
 1047              	 .loc 2 363 0
 1048 0074 7B68     	 ldr r3,[r7,#4]
 1049 0076 9B09     	 lsr r3,r3,#6
 1050 0078 BB62     	 str r3,[r7,#40]
 364:../Libraries/XMCLib/src/xmc_can.c ****   peripheral_frequency_khz = (uint32_t)(peripheral_frequency >> 6);
 1051              	 .loc 2 364 0
 1052 007a 7B6B     	 ldr r3,[r7,#52]
 1053 007c 9B09     	 lsr r3,r3,#6
 1054 007e 7B62     	 str r3,[r7,#36]
 365:../Libraries/XMCLib/src/xmc_can.c **** 
 366:../Libraries/XMCLib/src/xmc_can.c ****   step_f = (uint32_t)(min( (((1024U * can_frequency_khz) / peripheral_frequency_khz) ), 1023U ));
 1055              	 .loc 2 366 0
 1056 0080 BB6A     	 ldr r3,[r7,#40]
 1057 0082 9B02     	 lsl r3,r3,#10
 1058 0084 181C     	 mov r0,r3
 1059 0086 796A     	 ldr r1,[r7,#36]
 1060 0088 FFF7FEFF 	 bl __aeabi_uidiv
 1061 008c 031C     	 mov r3,r0
 1062 008e 1A1C     	 mov r2,r3
 1063 0090 214B     	 ldr r3,.L52
 1064 0092 101C     	 mov r0,r2
 1065 0094 191C     	 mov r1,r3
 1066 0096 FFF7FEFF 	 bl min
 1067 009a 031C     	 mov r3,r0
 1068 009c 3B62     	 str r3,[r7,#32]
 367:../Libraries/XMCLib/src/xmc_can.c ****   freq_f = (uint32_t)((peripheral_frequency_khz * step_f) / 1024U);
 1069              	 .loc 2 367 0
 1070 009e 7B6A     	 ldr r3,[r7,#36]
 1071 00a0 3A6A     	 ldr r2,[r7,#32]
 1072 00a2 5343     	 mul r3,r2
 1073 00a4 9B0A     	 lsr r3,r3,#10
 1074 00a6 FB61     	 str r3,[r7,#28]
 368:../Libraries/XMCLib/src/xmc_can.c ****   freq_f = freq_f << 6;
 1075              	 .loc 2 368 0
 1076 00a8 FB69     	 ldr r3,[r7,#28]
 1077 00aa 9B01     	 lsl r3,r3,#6
 1078 00ac FB61     	 str r3,[r7,#28]
 369:../Libraries/XMCLib/src/xmc_can.c **** 
 370:../Libraries/XMCLib/src/xmc_can.c ****   normal_divider  = (uint32_t)(can_frequency - freq_n) <= (can_frequency - freq_f);
 1079              	 .loc 2 370 0
 1080 00ae 7A68     	 ldr r2,[r7,#4]
 1081 00b0 FB6A     	 ldr r3,[r7,#44]
 1082 00b2 D11A     	 sub r1,r2,r3
 1083 00b4 7A68     	 ldr r2,[r7,#4]
 1084 00b6 FB69     	 ldr r3,[r7,#28]
 1085 00b8 D01A     	 sub r0,r2,r3
 1086 00ba 1B23     	 mov r3,#27
 1087 00bc FA18     	 add r2,r7,r3
 1088 00be 0023     	 mov r3,#0
 1089 00c0 8842     	 cmp r0,r1
 1090 00c2 5B41     	 adc r3,r3,r3
 1091 00c4 1370     	 strb r3,[r2]
 371:../Libraries/XMCLib/src/xmc_can.c **** 
 372:../Libraries/XMCLib/src/xmc_can.c ****   step   = (normal_divider != 0U) ? step_n : step_f;
 1092              	 .loc 2 372 0
 1093 00c6 1B23     	 mov r3,#27
 1094 00c8 FB18     	 add r3,r7,r3
 1095 00ca 1B78     	 ldrb r3,[r3]
 1096 00cc 002B     	 cmp r3,#0
 1097 00ce 01D0     	 beq .L48
 1098              	 .loc 2 372 0 is_stmt 0 discriminator 1
 1099 00d0 3B6B     	 ldr r3,[r7,#48]
 1100 00d2 00E0     	 b .L49
 1101              	.L48:
 1102              	 .loc 2 372 0 discriminator 2
 1103 00d4 3B6A     	 ldr r3,[r7,#32]
 1104              	.L49:
 1105              	 .loc 2 372 0 discriminator 4
 1106 00d6 7B61     	 str r3,[r7,#20]
 373:../Libraries/XMCLib/src/xmc_can.c ****   can_divider_mode = (normal_divider != 0U) ? XMC_CAN_DM_NORMAL : XMC_CAN_DM_FRACTIONAL;
 1107              	 .loc 2 373 0 is_stmt 1 discriminator 4
 1108 00d8 1B23     	 mov r3,#27
 1109 00da FB18     	 add r3,r7,r3
 1110 00dc 1B78     	 ldrb r3,[r3]
 1111 00de 002B     	 cmp r3,#0
 1112 00e0 01D0     	 beq .L50
 1113              	 .loc 2 373 0 is_stmt 0 discriminator 1
 1114 00e2 0122     	 mov r2,#1
 1115 00e4 00E0     	 b .L51
 1116              	.L50:
 1117              	 .loc 2 373 0 discriminator 2
 1118 00e6 0222     	 mov r2,#2
 1119              	.L51:
 1120              	 .loc 2 373 0 discriminator 4
 1121 00e8 1323     	 mov r3,#19
 1122 00ea FB18     	 add r3,r7,r3
 1123 00ec 1A70     	 strb r2,[r3]
 374:../Libraries/XMCLib/src/xmc_can.c **** 
 375:../Libraries/XMCLib/src/xmc_can.c ****   obj->FDR &= (uint32_t) ~(CAN_FDR_DM_Msk | CAN_FDR_STEP_Msk);
 1124              	 .loc 2 375 0 is_stmt 1 discriminator 4
 1125 00ee FB68     	 ldr r3,[r7,#12]
 1126 00f0 DB68     	 ldr r3,[r3,#12]
 1127 00f2 0A4A     	 ldr r2,.L52+4
 1128 00f4 1A40     	 and r2,r3
 1129 00f6 FB68     	 ldr r3,[r7,#12]
 1130 00f8 DA60     	 str r2,[r3,#12]
 376:../Libraries/XMCLib/src/xmc_can.c ****   obj->FDR |= ((uint32_t)can_divider_mode << CAN_FDR_DM_Pos) | ((uint32_t)step << CAN_FDR_STEP_Pos)
 1131              	 .loc 2 376 0 discriminator 4
 1132 00fa FB68     	 ldr r3,[r7,#12]
 1133 00fc DA68     	 ldr r2,[r3,#12]
 1134 00fe 1323     	 mov r3,#19
 1135 0100 FB18     	 add r3,r7,r3
 1136 0102 1B78     	 ldrb r3,[r3]
 1137 0104 9903     	 lsl r1,r3,#14
 1138 0106 7B69     	 ldr r3,[r7,#20]
 1139 0108 0B43     	 orr r3,r1
 1140 010a 1A43     	 orr r2,r3
 1141 010c FB68     	 ldr r3,[r7,#12]
 1142 010e DA60     	 str r2,[r3,#12]
 377:../Libraries/XMCLib/src/xmc_can.c **** 
 378:../Libraries/XMCLib/src/xmc_can.c **** }
 1143              	 .loc 2 378 0 discriminator 4
 1144 0110 BD46     	 mov sp,r7
 1145 0112 0EB0     	 add sp,sp,#56
 1146              	 
 1147 0114 80BD     	 pop {r7,pc}
 1148              	.L53:
 1149 0116 C046     	 .align 2
 1150              	.L52:
 1151 0118 FF030000 	 .word 1023
 1152 011c 003CFFFF 	 .word -50176
 1153              	 .cfi_endproc
 1154              	.LFE121:
 1156              	 .section .text.XMC_CAN_SetBaudrateClockSource,"ax",%progbits
 1157              	 .align 2
 1158              	 .global XMC_CAN_SetBaudrateClockSource
 1159              	 .code 16
 1160              	 .thumb_func
 1162              	XMC_CAN_SetBaudrateClockSource:
 1163              	.LFB122:
 379:../Libraries/XMCLib/src/xmc_can.c **** 
 380:../Libraries/XMCLib/src/xmc_can.c **** #else
 381:../Libraries/XMCLib/src/xmc_can.c **** /* Initialization of XMC_CAN GLOBAL Object */
 382:../Libraries/XMCLib/src/xmc_can.c **** void XMC_CAN_Init(XMC_CAN_t *const obj, uint32_t can_frequency)
 383:../Libraries/XMCLib/src/xmc_can.c **** {
 384:../Libraries/XMCLib/src/xmc_can.c ****   uint32_t  step_n, step_f;
 385:../Libraries/XMCLib/src/xmc_can.c ****   bool normal_divider;
 386:../Libraries/XMCLib/src/xmc_can.c ****   uint32_t freq_n, freq_f;
 387:../Libraries/XMCLib/src/xmc_can.c ****   uint32_t step;
 388:../Libraries/XMCLib/src/xmc_can.c ****   uint32_t can_frequency_khz;
 389:../Libraries/XMCLib/src/xmc_can.c ****   uint32_t peripheral_frequency_khz;
 390:../Libraries/XMCLib/src/xmc_can.c ****   XMC_CAN_DM_t can_divider_mode;
 391:../Libraries/XMCLib/src/xmc_can.c **** 
 392:../Libraries/XMCLib/src/xmc_can.c ****   uint32_t peripheral_frequency = (XMC_SCU_CLOCK_GetPeripheralClockFrequency());
 393:../Libraries/XMCLib/src/xmc_can.c **** 
 394:../Libraries/XMCLib/src/xmc_can.c ****   XMC_ASSERT("XMC_CAN_Init: frequency not supported", can_frequency <= peripheral_frequency);
 395:../Libraries/XMCLib/src/xmc_can.c **** 
 396:../Libraries/XMCLib/src/xmc_can.c ****   /*Enabling the module*/
 397:../Libraries/XMCLib/src/xmc_can.c ****   XMC_CAN_Enable(obj);
 398:../Libraries/XMCLib/src/xmc_can.c **** 
 399:../Libraries/XMCLib/src/xmc_can.c ****   /* Normal divider mode */
 400:../Libraries/XMCLib/src/xmc_can.c ****   step_n = (uint32_t)min(max(0U, (1024U - (peripheral_frequency / can_frequency))), 1023U);
 401:../Libraries/XMCLib/src/xmc_can.c ****   freq_n = (uint32_t) (peripheral_frequency / (1024U - step_n));
 402:../Libraries/XMCLib/src/xmc_can.c **** 
 403:../Libraries/XMCLib/src/xmc_can.c ****   /* Fractional divider mode */
 404:../Libraries/XMCLib/src/xmc_can.c ****   can_frequency_khz = (uint32_t) (can_frequency >> 6);
 405:../Libraries/XMCLib/src/xmc_can.c ****   peripheral_frequency_khz = (uint32_t)(peripheral_frequency >> 6);
 406:../Libraries/XMCLib/src/xmc_can.c **** 
 407:../Libraries/XMCLib/src/xmc_can.c ****   step_f = (uint32_t)(min( (((1024U * can_frequency_khz) / peripheral_frequency_khz) ), 1023U ));
 408:../Libraries/XMCLib/src/xmc_can.c ****   freq_f = (uint32_t)((peripheral_frequency_khz * step_f) / 1024U);
 409:../Libraries/XMCLib/src/xmc_can.c ****   freq_f = freq_f << 6;
 410:../Libraries/XMCLib/src/xmc_can.c **** 
 411:../Libraries/XMCLib/src/xmc_can.c ****   normal_divider  = (uint32_t)(can_frequency - freq_n) <= (can_frequency - freq_f);
 412:../Libraries/XMCLib/src/xmc_can.c **** 
 413:../Libraries/XMCLib/src/xmc_can.c ****   step   = (normal_divider != 0U) ? step_n : step_f;
 414:../Libraries/XMCLib/src/xmc_can.c ****   can_divider_mode = (normal_divider != 0U) ? XMC_CAN_DM_NORMAL : XMC_CAN_DM_FRACTIONAL;
 415:../Libraries/XMCLib/src/xmc_can.c **** 
 416:../Libraries/XMCLib/src/xmc_can.c ****   obj->FDR &= (uint32_t) ~(CAN_FDR_DM_Msk | CAN_FDR_STEP_Msk);
 417:../Libraries/XMCLib/src/xmc_can.c ****   obj->FDR |= ((uint32_t)can_divider_mode << CAN_FDR_DM_Pos) | ((uint32_t)step << CAN_FDR_STEP_Pos)
 418:../Libraries/XMCLib/src/xmc_can.c **** }
 419:../Libraries/XMCLib/src/xmc_can.c **** #endif
 420:../Libraries/XMCLib/src/xmc_can.c **** 
 421:../Libraries/XMCLib/src/xmc_can.c **** void XMC_CAN_SetBaudrateClockSource(XMC_CAN_t *const obj,const XMC_CAN_CANCLKSRC_t source)
 422:../Libraries/XMCLib/src/xmc_can.c **** {
 1164              	 .loc 2 422 0
 1165              	 .cfi_startproc
 1166 0000 80B5     	 push {r7,lr}
 1167              	.LCFI36:
 1168              	 .cfi_def_cfa_offset 8
 1169              	 .cfi_offset 7,-8
 1170              	 .cfi_offset 14,-4
 1171 0002 82B0     	 sub sp,sp,#8
 1172              	.LCFI37:
 1173              	 .cfi_def_cfa_offset 16
