   1              	 .cpu cortex-m0
   2              	 .fpu softvfp
   3              	 .eabi_attribute 20,1
   4              	 .eabi_attribute 21,1
   5              	 .eabi_attribute 23,3
   6              	 .eabi_attribute 24,1
   7              	 .eabi_attribute 25,1
   8              	 .eabi_attribute 26,1
   9              	 .eabi_attribute 30,6
  10              	 .eabi_attribute 34,0
  11              	 .eabi_attribute 18,4
  12              	 .code 16
  13              	 .file "system_XMC1400.c"
  14              	 .text
  15              	.Ltext0:
  16              	 .cfi_sections .debug_frame
  17              	 .global SystemCoreClock
  18              	 .section .no_init,"aw",%progbits
  19              	 .align 2
  22              	SystemCoreClock:
  23 0000 00000000 	 .space 4
  24              	 .section .text.SystemInit,"ax",%progbits
  25              	 .align 2
  26              	 .weak SystemInit
  27              	 .code 16
  28              	 .thumb_func
  30              	SystemInit:
  31              	.LFB36:
  32              	 .file 1 "../Startup/system_XMC1400.c"
   1:../Startup/system_XMC1400.c **** /**************************************************************************************************
   2:../Startup/system_XMC1400.c ****  * @file     system_XMC1400.c
   3:../Startup/system_XMC1400.c ****  * @brief    Device specific initialization for the XMC1400-Series according to CMSIS
   4:../Startup/system_XMC1400.c ****  * @version  V1.2
   5:../Startup/system_XMC1400.c ****  * @date     19 Jun 2017
   6:../Startup/system_XMC1400.c ****  *
   7:../Startup/system_XMC1400.c ****  * @cond
   8:../Startup/system_XMC1400.c ****  **************************************************************************************************
   9:../Startup/system_XMC1400.c ****  * Copyright (c) 2015-2017, Infineon Technologies AG
  10:../Startup/system_XMC1400.c ****  * All rights reserved.
  11:../Startup/system_XMC1400.c ****  *
  12:../Startup/system_XMC1400.c ****  * Redistribution and use in source and binary forms, with or without modification,are permitted pr
  13:../Startup/system_XMC1400.c ****  * following conditions are met:
  14:../Startup/system_XMC1400.c ****  *
  15:../Startup/system_XMC1400.c ****  * Redistributions of source code must retain the above copyright notice, this list of conditions a
  16:../Startup/system_XMC1400.c ****  * disclaimer.
  17:../Startup/system_XMC1400.c ****  *
  18:../Startup/system_XMC1400.c ****  * Redistributions in binary form must reproduce the above copyright notice, this list of condition
  19:../Startup/system_XMC1400.c ****  * disclaimer in the documentation and/or other materials provided with the distribution.
  20:../Startup/system_XMC1400.c ****  *
  21:../Startup/system_XMC1400.c ****  * Neither the name of the copyright holders nor the names of its contributors may be used to endor
  22:../Startup/system_XMC1400.c ****  * products derived from this software without specific prior written permission.
  23:../Startup/system_XMC1400.c ****  *
  24:../Startup/system_XMC1400.c ****  * THIS SOFTWARE IS PROVIDED BY THE COPYRIGHT HOLDERS AND CONTRIBUTORS "AS IS" AND ANY EXPRESS OR I
  25:../Startup/system_XMC1400.c ****  * INCLUDING, BUT NOT LIMITED TO, THE IMPLIED WARRANTIES OF MERCHANTABILITY AND FITNESS FOR A PARTI
  26:../Startup/system_XMC1400.c ****  * DISCLAIMED. IN NO EVENT SHALL THE COPYRIGHT HOLDER OR CONTRIBUTORS BE LIABLE  FOR ANY DIRECT, IN
  27:../Startup/system_XMC1400.c ****  * SPECIAL, EXEMPLARY, OR CONSEQUENTIAL DAMAGES (INCLUDING, BUT NOT LIMITED TO, PROCUREMENT OF SUBS
  28:../Startup/system_XMC1400.c ****  * SERVICES; LOSS OF USE, DATA, OR PROFITS; OR BUSINESS INTERRUPTION) HOWEVER CAUSED AND ON ANY THE
  29:../Startup/system_XMC1400.c ****  * WHETHER IN CONTRACT, STRICT LIABILITY,OR TORT (INCLUDING NEGLIGENCE OR OTHERWISE) ARISING IN ANY
  30:../Startup/system_XMC1400.c ****  * OF THIS SOFTWARE, EVEN IF ADVISED OF THE POSSIBILITY OF SUCH DAMAGE.
  31:../Startup/system_XMC1400.c ****  *
  32:../Startup/system_XMC1400.c ****  * To improve the quality of the software, users are encouraged to share modifications, enhancement
  33:../Startup/system_XMC1400.c ****  * Infineon Technologies AG dave@infineon.com).
  34:../Startup/system_XMC1400.c ****  **************************************************************************************************
  35:../Startup/system_XMC1400.c ****  *
  36:../Startup/system_XMC1400.c ****  * *************************** Change history ********************************
  37:../Startup/system_XMC1400.c ****  * V1.0, 03 Sep 2015, JFT : Initial version
  38:../Startup/system_XMC1400.c ****  *                          MCLK = 48MHz, PCLK = 96MHz
  39:../Startup/system_XMC1400.c ****  * V1.1, 09 Dec 2015, JFT : Enable prefetch unit
  40:../Startup/system_XMC1400.c ****  * V1.2, 19 Jun 2017, Rely on cmsis_compiler.h instead of defining __WEAK
  41:../Startup/system_XMC1400.c ****  *                    Added support for ARM Compiler 6 (armclang) 
  42:../Startup/system_XMC1400.c ****  *
  43:../Startup/system_XMC1400.c ****  * @endcond
  44:../Startup/system_XMC1400.c ****  */
  45:../Startup/system_XMC1400.c **** 
  46:../Startup/system_XMC1400.c **** /*******************************************************************************
  47:../Startup/system_XMC1400.c ****  * HEADER FILES
  48:../Startup/system_XMC1400.c ****  *******************************************************************************/
  49:../Startup/system_XMC1400.c **** 
  50:../Startup/system_XMC1400.c **** #include <XMC1400.h>
  51:../Startup/system_XMC1400.c **** #include "system_XMC1400.h"
  52:../Startup/system_XMC1400.c **** 
  53:../Startup/system_XMC1400.c **** /*******************************************************************************
  54:../Startup/system_XMC1400.c ****  * MACROS
  55:../Startup/system_XMC1400.c ****  *******************************************************************************/
  56:../Startup/system_XMC1400.c **** #define DCO1_FREQUENCY (48000000U)
  57:../Startup/system_XMC1400.c **** 
  58:../Startup/system_XMC1400.c **** /*
  59:../Startup/system_XMC1400.c **** //-------- <<< Use Configuration Wizard in Context Menu >>> ------------------
  60:../Startup/system_XMC1400.c **** */
  61:../Startup/system_XMC1400.c **** 
  62:../Startup/system_XMC1400.c **** /*
  63:../Startup/system_XMC1400.c **** // <h> Clock configuration
  64:../Startup/system_XMC1400.c **** */
  65:../Startup/system_XMC1400.c **** 
  66:../Startup/system_XMC1400.c **** /*
  67:../Startup/system_XMC1400.c **** //    <o> External crystal frequency [Hz]
  68:../Startup/system_XMC1400.c **** //       <8000000=> 8MHz
  69:../Startup/system_XMC1400.c **** //       <12000000=> 12MHz
  70:../Startup/system_XMC1400.c **** //       <16000000=> 16MHz
  71:../Startup/system_XMC1400.c **** //       <20000000=> 20MHz
  72:../Startup/system_XMC1400.c **** //    <i> Defines external crystal frequency
  73:../Startup/system_XMC1400.c **** //    <i> Default: 20MHz
  74:../Startup/system_XMC1400.c **** */
  75:../Startup/system_XMC1400.c **** #define OSCHP_FREQUENCY (20000000U)
  76:../Startup/system_XMC1400.c **** 
  77:../Startup/system_XMC1400.c **** /*
  78:../Startup/system_XMC1400.c **** //    <o> DCLK clock source selection
  79:../Startup/system_XMC1400.c **** //       <0=> Internal oscillator DCO1 (48MHz)
  80:../Startup/system_XMC1400.c **** //       <1=> External crystal oscillator
  81:../Startup/system_XMC1400.c **** //    <i> Default: Internal oscillator DCO1 (48MHz)
  82:../Startup/system_XMC1400.c **** */
  83:../Startup/system_XMC1400.c **** #define DCLK_CLOCK_SRC 0
  84:../Startup/system_XMC1400.c **** #define DCLK_CLOCK_SRC_DCO1 0
  85:../Startup/system_XMC1400.c **** #define DCLK_CLOCK_SRC_EXT_XTAL 1
  86:../Startup/system_XMC1400.c **** 
  87:../Startup/system_XMC1400.c **** /*
  88:../Startup/system_XMC1400.c **** //    <o> OSCHP external oscillator mode
  89:../Startup/system_XMC1400.c **** //       <0=> Crystal mode
  90:../Startup/system_XMC1400.c **** //       <1=> External clock direct input mode
  91:../Startup/system_XMC1400.c **** //    <i> Default: Crystal mode
  92:../Startup/system_XMC1400.c **** */
  93:../Startup/system_XMC1400.c **** #define OSCHP_MODE 0
  94:../Startup/system_XMC1400.c **** #define OSCHP_MODE_XTAL 0
  95:../Startup/system_XMC1400.c **** #define OSCHP_MODE_DIRECT 1
  96:../Startup/system_XMC1400.c **** 
  97:../Startup/system_XMC1400.c **** /*
  98:../Startup/system_XMC1400.c **** //    <o> RTC clock source selection
  99:../Startup/system_XMC1400.c **** //       <0=> Internal oscillator DCO2 (32768Hz)
 100:../Startup/system_XMC1400.c **** //       <5=> External crystal oscillator
 101:../Startup/system_XMC1400.c **** //    <i> Default: Internal oscillator DCO2 (32768Hz)
 102:../Startup/system_XMC1400.c **** */
 103:../Startup/system_XMC1400.c **** #define RTC_CLOCK_SRC 0
 104:../Startup/system_XMC1400.c **** #define RTC_CLOCK_SRC_DCO2 0
 105:../Startup/system_XMC1400.c **** #define RTC_CLOCK_SRC_EXT_XTAL 5
 106:../Startup/system_XMC1400.c **** /*
 107:../Startup/system_XMC1400.c **** //    <o> PCLK clock source selection
 108:../Startup/system_XMC1400.c **** //       <0=> MCLK
 109:../Startup/system_XMC1400.c **** //       <1=> 2xMCLK
 110:../Startup/system_XMC1400.c **** //    <i> Default: 2xMCLK
 111:../Startup/system_XMC1400.c **** */
 112:../Startup/system_XMC1400.c **** #define PCLK_CLOCK_SRC 1
 113:../Startup/system_XMC1400.c **** #define PCLK_CLOCK_SRC_MCLK 0
 114:../Startup/system_XMC1400.c **** #define PCLK_CLOCK_SRC_2XMCLK 1
 115:../Startup/system_XMC1400.c **** 
 116:../Startup/system_XMC1400.c **** /*
 117:../Startup/system_XMC1400.c **** //-------- <<< end of configuration section >>> ------------------
 118:../Startup/system_XMC1400.c **** */
 119:../Startup/system_XMC1400.c **** 
 120:../Startup/system_XMC1400.c **** /*******************************************************************************
 121:../Startup/system_XMC1400.c ****  * GLOBAL VARIABLES
 122:../Startup/system_XMC1400.c ****  *******************************************************************************/
 123:../Startup/system_XMC1400.c **** 
 124:../Startup/system_XMC1400.c **** #if defined ( __CC_ARM )
 125:../Startup/system_XMC1400.c **** uint32_t SystemCoreClock __attribute__((at(0x20003FFC)));
 126:../Startup/system_XMC1400.c **** #elif defined (__ARMCC_VERSION) && (__ARMCC_VERSION >= 6010050)
 127:../Startup/system_XMC1400.c **** uint32_t SystemCoreClock __attribute__((section(".ARM.__at_0x20003FFC")));
 128:../Startup/system_XMC1400.c **** #elif defined ( __ICCARM__ )
 129:../Startup/system_XMC1400.c **** __no_init uint32_t SystemCoreClock;
 130:../Startup/system_XMC1400.c **** #elif defined ( __GNUC__ )
 131:../Startup/system_XMC1400.c **** uint32_t SystemCoreClock __attribute__((section(".no_init")));
 132:../Startup/system_XMC1400.c **** #elif defined ( __TASKING__ )
 133:../Startup/system_XMC1400.c **** uint32_t SystemCoreClock __at( 0x20003FFC );
 134:../Startup/system_XMC1400.c **** #endif
 135:../Startup/system_XMC1400.c **** 
 136:../Startup/system_XMC1400.c **** /*******************************************************************************
 137:../Startup/system_XMC1400.c ****  * LOCAL FUNCTIONS
 138:../Startup/system_XMC1400.c ****  *******************************************************************************/
 139:../Startup/system_XMC1400.c **** #if DCLK_CLOCK_SRC != DCLK_CLOCK_SRC_DCO1
 140:../Startup/system_XMC1400.c **** static inline void delay(uint32_t cycles)
 141:../Startup/system_XMC1400.c **** {
 142:../Startup/system_XMC1400.c ****   while(cycles > 0)
 143:../Startup/system_XMC1400.c ****   {
 144:../Startup/system_XMC1400.c ****     __NOP();
 145:../Startup/system_XMC1400.c ****     cycles--;
 146:../Startup/system_XMC1400.c ****   }
 147:../Startup/system_XMC1400.c **** }
 148:../Startup/system_XMC1400.c **** #endif
 149:../Startup/system_XMC1400.c **** 
 150:../Startup/system_XMC1400.c **** /*******************************************************************************
 151:../Startup/system_XMC1400.c ****  * API IMPLEMENTATION
 152:../Startup/system_XMC1400.c ****  *******************************************************************************/
 153:../Startup/system_XMC1400.c **** 
 154:../Startup/system_XMC1400.c **** __WEAK void SystemInit(void)
 155:../Startup/system_XMC1400.c **** {
  33              	 .loc 1 155 0
  34              	 .cfi_startproc
  35 0000 80B5     	 push {r7,lr}
  36              	.LCFI0:
  37              	 .cfi_def_cfa_offset 8
  38              	 .cfi_offset 7,-8
  39              	 .cfi_offset 14,-4
  40 0002 00AF     	 add r7,sp,#0
  41              	.LCFI1:
  42              	 .cfi_def_cfa_register 7
 156:../Startup/system_XMC1400.c ****   SystemCoreSetup();
  43              	 .loc 1 156 0
  44 0004 FFF7FEFF 	 bl SystemCoreSetup
 157:../Startup/system_XMC1400.c ****   SystemCoreClockSetup();
  45              	 .loc 1 157 0
  46 0008 FFF7FEFF 	 bl SystemCoreClockSetup
 158:../Startup/system_XMC1400.c **** }
  47              	 .loc 1 158 0
  48 000c BD46     	 mov sp,r7
  49              	 
  50 000e 80BD     	 pop {r7,pc}
  51              	 .cfi_endproc
  52              	.LFE36:
  54              	 .section .text.SystemCoreSetup,"ax",%progbits
  55              	 .align 2
  56              	 .weak SystemCoreSetup
  57              	 .code 16
  58              	 .thumb_func
  60              	SystemCoreSetup:
  61              	.LFB37:
 159:../Startup/system_XMC1400.c **** 
 160:../Startup/system_XMC1400.c **** __WEAK void SystemCoreSetup(void)
 161:../Startup/system_XMC1400.c **** {
  62              	 .loc 1 161 0
  63              	 .cfi_startproc
  64 0000 80B5     	 push {r7,lr}
  65              	.LCFI2:
  66              	 .cfi_def_cfa_offset 8
  67              	 .cfi_offset 7,-8
  68              	 .cfi_offset 14,-4
  69 0002 00AF     	 add r7,sp,#0
  70              	.LCFI3:
  71              	 .cfi_def_cfa_register 7
 162:../Startup/system_XMC1400.c ****   /* Enable Prefetch unit */
 163:../Startup/system_XMC1400.c ****   SCU_GENERAL->PFUCR &= ~SCU_GENERAL_PFUCR_PFUBYP_Msk;
  72              	 .loc 1 163 0
  73 0004 034B     	 ldr r3,.L3
  74 0006 034A     	 ldr r2,.L3
  75 0008 926E     	 ldr r2,[r2,#104]
  76 000a 0121     	 mov r1,#1
  77 000c 8A43     	 bic r2,r1
  78 000e 9A66     	 str r2,[r3,#104]
 164:../Startup/system_XMC1400.c **** }
  79              	 .loc 1 164 0
  80 0010 BD46     	 mov sp,r7
  81              	 
  82 0012 80BD     	 pop {r7,pc}
  83              	.L4:
  84              	 .align 2
  85              	.L3:
  86 0014 00000140 	 .word 1073807360
  87              	 .cfi_endproc
  88              	.LFE37:
  90              	 .section .text.SystemCoreClockSetup,"ax",%progbits
  91              	 .align 2
  92              	 .weak SystemCoreClockSetup
  93              	 .code 16
  94              	 .thumb_func
  96              	SystemCoreClockSetup:
  97              	.LFB38:
 165:../Startup/system_XMC1400.c **** 
 166:../Startup/system_XMC1400.c **** __WEAK void SystemCoreClockSetup(void)
 167:../Startup/system_XMC1400.c **** {
  98              	 .loc 1 167 0
  99              	 .cfi_startproc
 100 0000 80B5     	 push {r7,lr}
 101              	.LCFI4:
 102              	 .cfi_def_cfa_offset 8
 103              	 .cfi_offset 7,-8
 104              	 .cfi_offset 14,-4
 105 0002 00AF     	 add r7,sp,#0
 106              	.LCFI5:
 107              	 .cfi_def_cfa_register 7
 168:../Startup/system_XMC1400.c ****   /* Clock setup done during SSW using the CLOCK_VAL1 and CLOCK_VAL2 defined in vector table */
 169:../Startup/system_XMC1400.c **** 
 170:../Startup/system_XMC1400.c ****   /* disable bit protection */
 171:../Startup/system_XMC1400.c ****   SCU_GENERAL->PASSWD = 0x000000C0UL;
 108              	 .loc 1 171 0
 109 0004 094B     	 ldr r3,.L6
 110 0006 C022     	 mov r2,#192
 111 0008 5A62     	 str r2,[r3,#36]
 172:../Startup/system_XMC1400.c **** 
 173:../Startup/system_XMC1400.c **** #if DCLK_CLOCK_SRC != DCLK_CLOCK_SRC_DCO1
 174:../Startup/system_XMC1400.c **** 
 175:../Startup/system_XMC1400.c ****   if (OSCHP_GetFrequency() > 20000000U)
 176:../Startup/system_XMC1400.c ****   {
 177:../Startup/system_XMC1400.c ****     SCU_ANALOG->ANAOSCHPCTRL |= SCU_ANALOG_ANAOSCHPCTRL_HYSCTRL_Msk;
 178:../Startup/system_XMC1400.c ****   }
 179:../Startup/system_XMC1400.c **** 
 180:../Startup/system_XMC1400.c ****   /* OSCHP source selection - OSC mode */
 181:../Startup/system_XMC1400.c ****   SCU_ANALOG->ANAOSCHPCTRL = (SCU_ANALOG->ANAOSCHPCTRL & ~SCU_ANALOG_ANAOSCHPCTRL_MODE_Msk) |
 182:../Startup/system_XMC1400.c ****                              (OSCHP_MODE << SCU_ANALOG_ANAOSCHPCTRL_MODE_Pos);
 183:../Startup/system_XMC1400.c **** 
 184:../Startup/system_XMC1400.c ****   /* Enable OSC_HP oscillator watchdog*/
 185:../Startup/system_XMC1400.c ****   SCU_CLK->OSCCSR |= SCU_CLK_OSCCSR_XOWDEN_Msk;
 186:../Startup/system_XMC1400.c **** 
 187:../Startup/system_XMC1400.c ****   do
 188:../Startup/system_XMC1400.c ****   {
 189:../Startup/system_XMC1400.c ****     /* Restart OSC_HP oscillator watchdog */
 190:../Startup/system_XMC1400.c ****     SCU_INTERRUPT->SRCLR1 = SCU_INTERRUPT_SRCLR1_LOECI_Msk;
 191:../Startup/system_XMC1400.c ****     SCU_CLK->OSCCSR |= SCU_CLK_OSCCSR_XOWDRES_Msk;
 192:../Startup/system_XMC1400.c **** 
 193:../Startup/system_XMC1400.c ****     /* Wait a few DCO2 cycles for the update of the clock detection result */
 194:../Startup/system_XMC1400.c ****     delay(2500);
 195:../Startup/system_XMC1400.c **** 
 196:../Startup/system_XMC1400.c ****     /* check clock is ok */
 197:../Startup/system_XMC1400.c ****   }
 198:../Startup/system_XMC1400.c ****   while(SCU_INTERRUPT->SRRAW1 & SCU_INTERRUPT_SRRAW1_LOECI_Msk);
 199:../Startup/system_XMC1400.c **** 
 200:../Startup/system_XMC1400.c ****   /* DCLK source using OSC_HP */
 201:../Startup/system_XMC1400.c ****   SCU_CLK->CLKCR1 |= SCU_CLK_CLKCR1_DCLKSEL_Msk;
 202:../Startup/system_XMC1400.c ****   
 203:../Startup/system_XMC1400.c **** #else
 204:../Startup/system_XMC1400.c ****     
 205:../Startup/system_XMC1400.c ****   /* DCLK source using DCO1 */
 206:../Startup/system_XMC1400.c ****   SCU_CLK->CLKCR1 &= ~SCU_CLK_CLKCR1_DCLKSEL_Msk;
 112              	 .loc 1 206 0
 113 000a 094B     	 ldr r3,.L6+4
 114 000c 084A     	 ldr r2,.L6+4
 115 000e D269     	 ldr r2,[r2,#28]
 116 0010 0849     	 ldr r1,.L6+8
 117 0012 0A40     	 and r2,r1
 118 0014 DA61     	 str r2,[r3,#28]
 207:../Startup/system_XMC1400.c ****   
 208:../Startup/system_XMC1400.c **** #endif    
 209:../Startup/system_XMC1400.c **** 
 210:../Startup/system_XMC1400.c **** #if RTC_CLOCK_SRC == RTC_CLOCK_SRC_EXT_XTAL
 211:../Startup/system_XMC1400.c ****   /* Enable OSC_LP */
 212:../Startup/system_XMC1400.c ****   SCU_ANALOG->ANAOSCLPCTRL &= ~SCU_ANALOG_ANAOSCLPCTRL_MODE_Msk;
 213:../Startup/system_XMC1400.c **** #endif  
 214:../Startup/system_XMC1400.c **** 
 215:../Startup/system_XMC1400.c ****   /* Update PCLK selection mux. */
 216:../Startup/system_XMC1400.c ****   /* Fractional divider enabled, MCLK frequency equal DCO1 frequency or external crystal frequency 
 217:../Startup/system_XMC1400.c ****   SCU_CLK->CLKCR = (1023UL <<SCU_CLK_CLKCR_CNTADJ_Pos) |
 119              	 .loc 1 217 0
 120 0016 064B     	 ldr r3,.L6+4
 121 0018 074A     	 ldr r2,.L6+12
 122 001a 1A60     	 str r2,[r3]
 218:../Startup/system_XMC1400.c ****                     (RTC_CLOCK_SRC << SCU_CLK_CLKCR_RTCCLKSEL_Pos) |
 219:../Startup/system_XMC1400.c ****                     (PCLK_CLOCK_SRC << SCU_CLK_CLKCR_PCLKSEL_Pos) |
 220:../Startup/system_XMC1400.c ****                     0x100U; /* IDIV = 1 */
 221:../Startup/system_XMC1400.c **** 
 222:../Startup/system_XMC1400.c ****   /* enable bit protection */
 223:../Startup/system_XMC1400.c ****   SCU_GENERAL->PASSWD = 0x000000C3UL;
 123              	 .loc 1 223 0
 124 001c 034B     	 ldr r3,.L6
 125 001e C322     	 mov r2,#195
 126 0020 5A62     	 str r2,[r3,#36]
 224:../Startup/system_XMC1400.c **** 
 225:../Startup/system_XMC1400.c ****   SystemCoreClockUpdate();
 127              	 .loc 1 225 0
 128 0022 FFF7FEFF 	 bl SystemCoreClockUpdate
 226:../Startup/system_XMC1400.c **** }
 129              	 .loc 1 226 0
 130 0026 BD46     	 mov sp,r7
 131              	 
 132 0028 80BD     	 pop {r7,pc}
 133              	.L7:
 134 002a C046     	 .align 2
 135              	.L6:
 136 002c 00000140 	 .word 1073807360
 137 0030 00030140 	 .word 1073808128
 138 0034 FFFDFFFF 	 .word -513
 139 0038 0001F13F 	 .word 1072759040
 140              	 .cfi_endproc
 141              	.LFE38:
 143              	 .global __aeabi_uidiv
 144              	 .section .text.SystemCoreClockUpdate,"ax",%progbits
 145              	 .align 2
 146              	 .weak SystemCoreClockUpdate
 147              	 .code 16
 148              	 .thumb_func
 150              	SystemCoreClockUpdate:
 151              	.LFB39:
 227:../Startup/system_XMC1400.c **** 
 228:../Startup/system_XMC1400.c **** __WEAK void SystemCoreClockUpdate(void)
 229:../Startup/system_XMC1400.c **** {
 152              	 .loc 1 229 0
 153              	 .cfi_startproc
 154 0000 80B5     	 push {r7,lr}
 155              	.LCFI6:
 156              	 .cfi_def_cfa_offset 8
 157              	 .cfi_offset 7,-8
 158              	 .cfi_offset 14,-4
 159 0002 00AF     	 add r7,sp,#0
 160              	.LCFI7:
 161              	 .cfi_def_cfa_register 7
 230:../Startup/system_XMC1400.c ****   static uint32_t IDIV, FDIV;
 231:../Startup/system_XMC1400.c **** 
 232:../Startup/system_XMC1400.c ****   IDIV = ((SCU_CLK->CLKCR) & SCU_CLK_CLKCR_IDIV_Msk) >> SCU_CLK_CLKCR_IDIV_Pos;
 162              	 .loc 1 232 0
 163 0004 2A4B     	 ldr r3,.L14
 164 0006 1A68     	 ldr r2,[r3]
 165 0008 FF23     	 mov r3,#255
 166 000a 1B02     	 lsl r3,r3,#8
 167 000c 1340     	 and r3,r2
 168 000e 1A0A     	 lsr r2,r3,#8
 169 0010 284B     	 ldr r3,.L14+4
 170 0012 1A60     	 str r2,[r3]
 233:../Startup/system_XMC1400.c **** 
 234:../Startup/system_XMC1400.c ****   if (IDIV != 0)
 171              	 .loc 1 234 0
 172 0014 274B     	 ldr r3,.L14+4
 173 0016 1B68     	 ldr r3,[r3]
 174 0018 002B     	 cmp r3,#0
 175 001a 37D0     	 beq .L9
 235:../Startup/system_XMC1400.c ****   {
 236:../Startup/system_XMC1400.c ****     FDIV = ((SCU_CLK->CLKCR) & SCU_CLK_CLKCR_FDIV_Msk) >> SCU_CLK_CLKCR_FDIV_Pos;
 176              	 .loc 1 236 0
 177 001c 244B     	 ldr r3,.L14
 178 001e 1B68     	 ldr r3,[r3]
 179 0020 FF22     	 mov r2,#255
 180 0022 1A40     	 and r2,r3
 181 0024 244B     	 ldr r3,.L14+8
 182 0026 1A60     	 str r2,[r3]
 237:../Startup/system_XMC1400.c ****     FDIV |= ((SCU_CLK->CLKCR1) & SCU_CLK_CLKCR1_FDIV_Msk) << 8;
 183              	 .loc 1 237 0
 184 0028 214B     	 ldr r3,.L14
 185 002a DB69     	 ldr r3,[r3,#28]
 186 002c 0322     	 mov r2,#3
 187 002e 1340     	 and r3,r2
 188 0030 1A02     	 lsl r2,r3,#8
 189 0032 214B     	 ldr r3,.L14+8
 190 0034 1B68     	 ldr r3,[r3]
 191 0036 1A43     	 orr r2,r3
 192 0038 1F4B     	 ldr r3,.L14+8
 193 003a 1A60     	 str r2,[r3]
 238:../Startup/system_XMC1400.c ****     
 239:../Startup/system_XMC1400.c ****     /* Fractional divider is enabled and used */
 240:../Startup/system_XMC1400.c ****     if (((SCU_CLK->CLKCR1) & SCU_CLK_CLKCR1_DCLKSEL_Msk) == 0U)
 194              	 .loc 1 240 0
 195 003c 1C4B     	 ldr r3,.L14
 196 003e DA69     	 ldr r2,[r3,#28]
 197 0040 8023     	 mov r3,#128
 198 0042 9B00     	 lsl r3,r3,#2
 199 0044 1340     	 and r3,r2
 200 0046 0ED1     	 bne .L10
 241:../Startup/system_XMC1400.c ****     {
 242:../Startup/system_XMC1400.c ****        SystemCoreClock = ((uint32_t)((DCO1_FREQUENCY << 6U) / ((IDIV << 10) + FDIV))) << 4U;
 201              	 .loc 1 242 0
 202 0048 1A4B     	 ldr r3,.L14+4
 203 004a 1B68     	 ldr r3,[r3]
 204 004c 9A02     	 lsl r2,r3,#10
 205 004e 1A4B     	 ldr r3,.L14+8
 206 0050 1B68     	 ldr r3,[r3]
 207 0052 D318     	 add r3,r2,r3
 208 0054 1948     	 ldr r0,.L14+12
 209 0056 191C     	 mov r1,r3
 210 0058 FFF7FEFF 	 bl __aeabi_uidiv
 211 005c 031C     	 mov r3,r0
 212 005e 1A01     	 lsl r2,r3,#4
 213 0060 174B     	 ldr r3,.L14+16
 214 0062 1A60     	 str r2,[r3]
 215 0064 21E0     	 b .L8
 216              	.L10:
 243:../Startup/system_XMC1400.c ****     }
 244:../Startup/system_XMC1400.c ****     else
 245:../Startup/system_XMC1400.c ****     {
 246:../Startup/system_XMC1400.c ****        SystemCoreClock = ((uint32_t)((OSCHP_GetFrequency() << 6U) / ((IDIV << 10) + FDIV))) << 4U;
 217              	 .loc 1 246 0
 218 0066 FFF7FEFF 	 bl OSCHP_GetFrequency
 219 006a 031C     	 mov r3,r0
 220 006c 9901     	 lsl r1,r3,#6
 221 006e 114B     	 ldr r3,.L14+4
 222 0070 1B68     	 ldr r3,[r3]
 223 0072 9A02     	 lsl r2,r3,#10
 224 0074 104B     	 ldr r3,.L14+8
 225 0076 1B68     	 ldr r3,[r3]
 226 0078 D318     	 add r3,r2,r3
 227 007a 081C     	 mov r0,r1
 228 007c 191C     	 mov r1,r3
 229 007e FFF7FEFF 	 bl __aeabi_uidiv
 230 0082 031C     	 mov r3,r0
 231 0084 1A01     	 lsl r2,r3,#4
 232 0086 0E4B     	 ldr r3,.L14+16
 233 0088 1A60     	 str r2,[r3]
 234 008a 0EE0     	 b .L8
 235              	.L9:
 247:../Startup/system_XMC1400.c ****     }
 248:../Startup/system_XMC1400.c ****   }
 249:../Startup/system_XMC1400.c ****   else
 250:../Startup/system_XMC1400.c ****   {
 251:../Startup/system_XMC1400.c ****     /* Fractional divider bypassed. */
 252:../Startup/system_XMC1400.c ****     if (((SCU_CLK->CLKCR1) & SCU_CLK_CLKCR1_DCLKSEL_Msk) == 0U)
 236              	 .loc 1 252 0
 237 008c 084B     	 ldr r3,.L14
 238 008e DA69     	 ldr r2,[r3,#28]
 239 0090 8023     	 mov r3,#128
 240 0092 9B00     	 lsl r3,r3,#2
 241 0094 1340     	 and r3,r2
 242 0096 03D1     	 bne .L13
 253:../Startup/system_XMC1400.c ****     {
 254:../Startup/system_XMC1400.c ****         SystemCoreClock = DCO1_FREQUENCY;
 243              	 .loc 1 254 0
 244 0098 094B     	 ldr r3,.L14+16
 245 009a 0A4A     	 ldr r2,.L14+20
 246 009c 1A60     	 str r2,[r3]
 247 009e 04E0     	 b .L8
 248              	.L13:
 255:../Startup/system_XMC1400.c ****     }
 256:../Startup/system_XMC1400.c ****     else
 257:../Startup/system_XMC1400.c ****     {
 258:../Startup/system_XMC1400.c ****         SystemCoreClock = OSCHP_GetFrequency();
 249              	 .loc 1 258 0
 250 00a0 FFF7FEFF 	 bl OSCHP_GetFrequency
 251 00a4 021C     	 mov r2,r0
 252 00a6 064B     	 ldr r3,.L14+16
 253 00a8 1A60     	 str r2,[r3]
 254              	.L8:
 259:../Startup/system_XMC1400.c ****     }
 260:../Startup/system_XMC1400.c ****   }
 261:../Startup/system_XMC1400.c **** }
 255              	 .loc 1 261 0
 256 00aa BD46     	 mov sp,r7
 257              	 
 258 00ac 80BD     	 pop {r7,pc}
 259              	.L15:
 260 00ae C046     	 .align 2
 261              	.L14:
 262 00b0 00030140 	 .word 1073808128
 263 00b4 00000000 	 .word IDIV.5069
 264 00b8 00000000 	 .word FDIV.5070
 265 00bc 00001BB7 	 .word -1222967296
 266 00c0 00000000 	 .word SystemCoreClock
 267 00c4 006CDC02 	 .word 48000000
 268              	 .cfi_endproc
 269              	.LFE39:
 271              	 .section .text.OSCHP_GetFrequency,"ax",%progbits
 272              	 .align 2
 273              	 .weak OSCHP_GetFrequency
 274              	 .code 16
 275              	 .thumb_func
 277              	OSCHP_GetFrequency:
 278              	.LFB40:
 262:../Startup/system_XMC1400.c **** 
 263:../Startup/system_XMC1400.c **** __WEAK uint32_t OSCHP_GetFrequency(void)
 264:../Startup/system_XMC1400.c **** {
 279              	 .loc 1 264 0
 280              	 .cfi_startproc
 281 0000 80B5     	 push {r7,lr}
 282              	.LCFI8:
 283              	 .cfi_def_cfa_offset 8
 284              	 .cfi_offset 7,-8
 285              	 .cfi_offset 14,-4
 286 0002 00AF     	 add r7,sp,#0
 287              	.LCFI9:
 288              	 .cfi_def_cfa_register 7
 265:../Startup/system_XMC1400.c ****   return OSCHP_FREQUENCY;
 289              	 .loc 1 265 0
 290 0004 014B     	 ldr r3,.L18
 266:../Startup/system_XMC1400.c **** }
 291              	 .loc 1 266 0
 292 0006 181C     	 mov r0,r3
 293 0008 BD46     	 mov sp,r7
 294              	 
 295 000a 80BD     	 pop {r7,pc}
 296              	.L19:
 297              	 .align 2
 298              	.L18:
 299 000c 002D3101 	 .word 20000000
 300              	 .cfi_endproc
 301              	.LFE40:
 303              	 .section .bss.IDIV.5069,"aw",%nobits
 304              	 .align 2
 307              	IDIV.5069:
 308 0000 00000000 	 .space 4
 309              	 .section .bss.FDIV.5070,"aw",%nobits
 310              	 .align 2
 313              	FDIV.5070:
 314 0000 00000000 	 .space 4
 315              	 .text
 316              	.Letext0:
 317              	 .file 2 "d:\\software\\dave_4-4-2_64bit_2018-02-23\\dave_4-4-2_64bit_2018-02-23\\dave-ide-4.4.2-64bit\\dave-ide-4.4.2-64bit\\eclipse\\arm-gcc-49\\arm-none-eabi\\include\\machine\\_default_types.h"
 318              	 .file 3 "d:\\software\\dave_4-4-2_64bit_2018-02-23\\dave_4-4-2_64bit_2018-02-23\\dave-ide-4.4.2-64bit\\dave-ide-4.4.2-64bit\\eclipse\\arm-gcc-49\\arm-none-eabi\\include\\stdint.h"
 319              	 .file 4 "C:/Users/Lenovo/workspace/dave_workspace/SOLAR_TOWER/Libraries/CMSIS/Infineon/XMC1400_series/Include/XMC1400.h"